
key_led.elf:     file format elf32-littlearm


Disassembly of section .text:

00000000 <_start>:
   0:	e3a00207 	mov	r0, #1879048192	; 0x70000000
   4:	e3800013 	orr	r0, r0, #19
   8:	ee0f0f92 	mcr	15, 0, r0, cr15, cr2, {4}
   c:	e59f002c 	ldr	r0, [pc, #44]	; 40 <halt+0x4>
  10:	e3a01000 	mov	r1, #0
  14:	e5801000 	str	r1, [r0]
  18:	e3a01000 	mov	r1, #0
  1c:	e5910000 	ldr	r0, [r1]
  20:	e5811000 	str	r1, [r1]
  24:	e5912000 	ldr	r2, [r1]
  28:	e1510002 	cmp	r1, r2
  2c:	e59fd010 	ldr	sp, [pc, #16]	; 44 <halt+0x8>
  30:	03a0da01 	moveq	sp, #4096	; 0x1000
  34:	05810000 	streq	r0, [r1]
  38:	eb000002 	bl	48 <main>

0000003c <halt>:
  3c:	eafffffe 	b	3c <halt>
  40:	7e004000 	cdpvc	0, 0, cr4, cr0, cr0, {0}
  44:	40001000 	andmi	r1, r0, r0

00000048 <main>:
  48:	e52db004 	push	{fp}		; (str fp, [sp, #-4]!)
  4c:	e28db000 	add	fp, sp, #0
  50:	e24dd00c 	sub	sp, sp, #12
  54:	e3a03000 	mov	r3, #0
  58:	e50b3008 	str	r3, [fp, #-8]
  5c:	e59f2158 	ldr	r2, [pc, #344]	; 1bc <main+0x174>
  60:	e59f3154 	ldr	r3, [pc, #340]	; 1bc <main+0x174>
  64:	e5933000 	ldr	r3, [r3]
  68:	e1a03803 	lsl	r3, r3, #16
  6c:	e1a03823 	lsr	r3, r3, #16
  70:	e5823000 	str	r3, [r2]
  74:	e59f2140 	ldr	r2, [pc, #320]	; 1bc <main+0x174>
  78:	e59f313c 	ldr	r3, [pc, #316]	; 1bc <main+0x174>
  7c:	e5933000 	ldr	r3, [r3]
  80:	e3833411 	orr	r3, r3, #285212672	; 0x11000000
  84:	e3833811 	orr	r3, r3, #1114112	; 0x110000
  88:	e5823000 	str	r3, [r2]
  8c:	e59f312c 	ldr	r3, [pc, #300]	; 1c0 <main+0x178>
  90:	e59f2128 	ldr	r2, [pc, #296]	; 1c0 <main+0x178>
  94:	e5922000 	ldr	r2, [r2]
  98:	e3c220ff 	bic	r2, r2, #255	; 0xff
  9c:	e5832000 	str	r2, [r3]
  a0:	e59f3118 	ldr	r3, [pc, #280]	; 1c0 <main+0x178>
  a4:	e59f2114 	ldr	r2, [pc, #276]	; 1c0 <main+0x178>
  a8:	e5922000 	ldr	r2, [r2]
  ac:	e38220aa 	orr	r2, r2, #170	; 0xaa
  b0:	e5832000 	str	r2, [r3]
  b4:	e59f3108 	ldr	r3, [pc, #264]	; 1c4 <main+0x17c>
  b8:	e5933000 	ldr	r3, [r3]
  bc:	e2033001 	and	r3, r3, #1
  c0:	e6ef3073 	uxtb	r3, r3
  c4:	e3530000 	cmp	r3, #0
  c8:	0a000005 	beq	e4 <main+0x9c>
  cc:	e59f30f4 	ldr	r3, [pc, #244]	; 1c8 <main+0x180>
  d0:	e59f20f0 	ldr	r2, [pc, #240]	; 1c8 <main+0x180>
  d4:	e5922000 	ldr	r2, [r2]
  d8:	e3822010 	orr	r2, r2, #16
  dc:	e5832000 	str	r2, [r3]
  e0:	ea000004 	b	f8 <main+0xb0>
  e4:	e59f30dc 	ldr	r3, [pc, #220]	; 1c8 <main+0x180>
  e8:	e59f20d8 	ldr	r2, [pc, #216]	; 1c8 <main+0x180>
  ec:	e5922000 	ldr	r2, [r2]
  f0:	e3c22010 	bic	r2, r2, #16
  f4:	e5832000 	str	r2, [r3]
  f8:	e59f30c4 	ldr	r3, [pc, #196]	; 1c4 <main+0x17c>
  fc:	e5933000 	ldr	r3, [r3]
 100:	e2033002 	and	r3, r3, #2
 104:	e3530000 	cmp	r3, #0
 108:	0a000005 	beq	124 <main+0xdc>
 10c:	e59f30b4 	ldr	r3, [pc, #180]	; 1c8 <main+0x180>
 110:	e59f20b0 	ldr	r2, [pc, #176]	; 1c8 <main+0x180>
 114:	e5922000 	ldr	r2, [r2]
 118:	e3822020 	orr	r2, r2, #32
 11c:	e5832000 	str	r2, [r3]
 120:	ea000004 	b	138 <main+0xf0>
 124:	e59f309c 	ldr	r3, [pc, #156]	; 1c8 <main+0x180>
 128:	e59f2098 	ldr	r2, [pc, #152]	; 1c8 <main+0x180>
 12c:	e5922000 	ldr	r2, [r2]
 130:	e3c22020 	bic	r2, r2, #32
 134:	e5832000 	str	r2, [r3]
 138:	e59f3084 	ldr	r3, [pc, #132]	; 1c4 <main+0x17c>
 13c:	e5933000 	ldr	r3, [r3]
 140:	e2033004 	and	r3, r3, #4
 144:	e3530000 	cmp	r3, #0
 148:	0a000005 	beq	164 <main+0x11c>
 14c:	e59f3074 	ldr	r3, [pc, #116]	; 1c8 <main+0x180>
 150:	e59f2070 	ldr	r2, [pc, #112]	; 1c8 <main+0x180>
 154:	e5922000 	ldr	r2, [r2]
 158:	e3822040 	orr	r2, r2, #64	; 0x40
 15c:	e5832000 	str	r2, [r3]
 160:	ea000004 	b	178 <main+0x130>
 164:	e59f305c 	ldr	r3, [pc, #92]	; 1c8 <main+0x180>
 168:	e59f2058 	ldr	r2, [pc, #88]	; 1c8 <main+0x180>
 16c:	e5922000 	ldr	r2, [r2]
 170:	e3c22040 	bic	r2, r2, #64	; 0x40
 174:	e5832000 	str	r2, [r3]
 178:	e59f3044 	ldr	r3, [pc, #68]	; 1c4 <main+0x17c>
 17c:	e5933000 	ldr	r3, [r3]
 180:	e2033008 	and	r3, r3, #8
 184:	e3530000 	cmp	r3, #0
 188:	0a000005 	beq	1a4 <main+0x15c>
 18c:	e59f3034 	ldr	r3, [pc, #52]	; 1c8 <main+0x180>
 190:	e59f2030 	ldr	r2, [pc, #48]	; 1c8 <main+0x180>
 194:	e5922000 	ldr	r2, [r2]
 198:	e3822080 	orr	r2, r2, #128	; 0x80
 19c:	e5832000 	str	r2, [r3]
 1a0:	eaffffc3 	b	b4 <main+0x6c>
 1a4:	e59f301c 	ldr	r3, [pc, #28]	; 1c8 <main+0x180>
 1a8:	e59f2018 	ldr	r2, [pc, #24]	; 1c8 <main+0x180>
 1ac:	e5922000 	ldr	r2, [r2]
 1b0:	e3c22080 	bic	r2, r2, #128	; 0x80
 1b4:	e5832000 	str	r2, [r3]
 1b8:	eaffffbd 	b	b4 <main+0x6c>
 1bc:	7f008800 	svcvc	0x00008800
 1c0:	7f008830 	svcvc	0x00008830
 1c4:	7f008834 	svcvc	0x00008834
 1c8:	7f008808 	svcvc	0x00008808

000001cc <delay>:
 1cc:	e52db004 	push	{fp}		; (str fp, [sp, #-4]!)
 1d0:	e28db000 	add	fp, sp, #0
 1d4:	e24dd00c 	sub	sp, sp, #12
 1d8:	e50b0008 	str	r0, [fp, #-8]
 1dc:	e1a00000 	nop			; (mov r0, r0)
 1e0:	e51b3008 	ldr	r3, [fp, #-8]
 1e4:	e3530000 	cmp	r3, #0
 1e8:	03a02000 	moveq	r2, #0
 1ec:	13a02001 	movne	r2, #1
 1f0:	e6ef2072 	uxtb	r2, r2
 1f4:	e2433001 	sub	r3, r3, #1
 1f8:	e50b3008 	str	r3, [fp, #-8]
 1fc:	e3520000 	cmp	r2, #0
 200:	1afffff6 	bne	1e0 <delay+0x14>
 204:	e28bd000 	add	sp, fp, #0
 208:	e8bd0800 	pop	{fp}
 20c:	e12fff1e 	bx	lr
