
main.elf:     file format elf32-littlearm

Disassembly of section .text:

50000000 <_start>:
50000000:	ea000009 	b	5000002c <reset>
50000004:	e59ff014 	ldr	pc, [pc, #20]	; 50000020 <und_addr>
50000008:	e59ff014 	ldr	pc, [pc, #20]	; 50000024 <swi_addr>
5000000c:	ea00001b 	b	50000080 <halt>
50000010:	ea00001a 	b	50000080 <halt>
50000014:	ea000019 	b	50000080 <halt>
50000018:	e59ff008 	ldr	pc, [pc, #8]	; 50000028 <irq_addr>
5000001c:	ea000017 	b	50000080 <halt>

50000020 <und_addr>:
50000020:	50000084 	andpl	r0, r0, r4, lsl #1

50000024 <swi_addr>:
50000024:	500000b0 	strplh	r0, [r0], -r0

50000028 <irq_addr>:
50000028:	500000f0 	strpld	r0, [r0], -r0

5000002c <reset>:
5000002c:	e3a00207 	mov	r0, #1879048192	; 0x70000000
50000030:	e3800013 	orr	r0, r0, #19	; 0x13
50000034:	ee0f0f92 	mcr	15, 0, r0, cr15, cr2, {4}
50000038:	e59f00c4 	ldr	r0, [pc, #196]	; 50000104 <.text+0x104>
5000003c:	e3a01000 	mov	r1, #0	; 0x0
50000040:	e5801000 	str	r1, [r0]
50000044:	e3a0da02 	mov	sp, #8192	; 0x2000
50000048:	eb000034 	bl	50000120 <clock_init>
5000004c:	eb000056 	bl	500001ac <sdram_init>
50000050:	eb00023e 	bl	50000950 <uart0_init>
50000054:	eb000172 	bl	50000624 <copy2sdram>
50000058:	eb00018f 	bl	5000069c <clean_bss>
5000005c:	e59ff0a4 	ldr	pc, [pc, #164]	; 50000108 <.text+0x108>

50000060 <on_ddr>:
50000060:	eb0001c3 	bl	50000774 <irq_init>
50000064:	e10f0000 	mrs	r0, CPSR
50000068:	e3c0001f 	bic	r0, r0, #31	; 0x1f
5000006c:	e3c00080 	bic	r0, r0, #128	; 0x80
50000070:	e3800010 	orr	r0, r0, #16	; 0x10
50000074:	e129f000 	msr	CPSR_fc, r0
50000078:	e3a0d45a 	mov	sp, #1509949440	; 0x5a000000
5000007c:	e59ff088 	ldr	pc, [pc, #136]	; 5000010c <.text+0x10c>

50000080 <halt>:
50000080:	eafffffe 	b	50000080 <halt>

50000084 <do_und>:
50000084:	e3a0d45f 	mov	sp, #1593835520	; 0x5f000000
50000088:	e92d5fff 	stmdb	sp!, {r0, r1, r2, r3, r4, r5, r6, r7, r8, r9, sl, fp, ip, lr}
5000008c:	e10f0000 	mrs	r0, CPSR
50000090:	e59f1078 	ldr	r1, [pc, #120]	; 50000110 <.text+0x110>
50000094:	eb0001fc 	bl	5000088c <printException>
50000098:	e8fd9fff 	ldmia	sp!, {r0, r1, r2, r3, r4, r5, r6, r7, r8, r9, sl, fp, ip, pc}^

5000009c <und_string>:
5000009c:	20646e75 	rsbcs	r6, r4, r5, ror lr
500000a0:	74736574 	ldrvcbt	r6, [r3], #-1396
500000a4:	20796220 	rsbcss	r6, r9, r0, lsr #4
500000a8:	00666773 	rsbeq	r6, r6, r3, ror r7
500000ac:	00000000 	andeq	r0, r0, r0

500000b0 <do_swi>:
500000b0:	e3a0d45e 	mov	sp, #1577058304	; 0x5e000000
500000b4:	e92d5fff 	stmdb	sp!, {r0, r1, r2, r3, r4, r5, r6, r7, r8, r9, sl, fp, ip, lr}
500000b8:	e1a0400e 	mov	r4, lr
500000bc:	e10f0000 	mrs	r0, CPSR
500000c0:	e59f104c 	ldr	r1, [pc, #76]	; 50000114 <.text+0x114>
500000c4:	eb0001f0 	bl	5000088c <printException>
500000c8:	e2440004 	sub	r0, r4, #4	; 0x4
500000cc:	eb0002f1 	bl	50000c98 <printSwi_Val>
500000d0:	e8fd9fff 	ldmia	sp!, {r0, r1, r2, r3, r4, r5, r6, r7, r8, r9, sl, fp, ip, pc}^

500000d4 <svc_string>:
500000d4:	20697773 	rsbcs	r7, r9, r3, ror r7
500000d8:	74736574 	ldrvcbt	r6, [r3], #-1396
500000dc:	20796220 	rsbcss	r6, r9, r0, lsr #4
500000e0:	00666773 	rsbeq	r6, r6, r3, ror r7
	...

500000f0 <do_irq>:
500000f0:	e3a0d45d 	mov	sp, #1560281088	; 0x5d000000
500000f4:	e24ee004 	sub	lr, lr, #4	; 0x4
500000f8:	e92d5fff 	stmdb	sp!, {r0, r1, r2, r3, r4, r5, r6, r7, r8, r9, sl, fp, ip, lr}
500000fc:	eb0001a4 	bl	50000794 <handle_irq_c>
50000100:	e8fd9fff 	ldmia	sp!, {r0, r1, r2, r3, r4, r5, r6, r7, r8, r9, sl, fp, ip, pc}^
50000104:	7e004000 	cdpvc	0, 0, cr4, cr0, cr0, {0}
50000108:	50000060 	andpl	r0, r0, r0, rrx
5000010c:	500008f8 	strpld	r0, [r0], -r8
50000110:	5000009c 	mulpl	r0, ip, r0
50000114:	500000d4 	ldrpld	r0, [r0], -r4
50000118:	e1a00000 	nop			(mov r0,r0)
5000011c:	e1a00000 	nop			(mov r0,r0)

50000120 <clock_init>:
50000120:	e59f0064 	ldr	r0, [pc, #100]	; 5000018c <.text+0x18c>
50000124:	e59f1064 	ldr	r1, [pc, #100]	; 50000190 <.text+0x190>
50000128:	e5801000 	str	r1, [r0]
5000012c:	e5801004 	str	r1, [r0, #4]
50000130:	e5801008 	str	r1, [r0, #8]
50000134:	e59f0058 	ldr	r0, [pc, #88]	; 50000194 <.text+0x194>
50000138:	e5901000 	ldr	r1, [r0]
5000013c:	e3c110c0 	bic	r1, r1, #192	; 0xc0
50000140:	e5801000 	str	r1, [r0]

50000144 <loop>:
50000144:	e59f0048 	ldr	r0, [pc, #72]	; 50000194 <.text+0x194>
50000148:	e5901000 	ldr	r1, [r0]
5000014c:	e2011c0f 	and	r1, r1, #3840	; 0xf00
50000150:	e3510000 	cmp	r1, #0	; 0x0
50000154:	1afffffa 	bne	50000144 <loop>
50000158:	e59f0038 	ldr	r0, [pc, #56]	; 50000198 <.text+0x198>
5000015c:	e3a01c33 	mov	r1, #13056	; 0x3300
50000160:	e5801000 	str	r1, [r0]
50000164:	e59f0030 	ldr	r0, [pc, #48]	; 5000019c <.text+0x19c>
50000168:	e59f1030 	ldr	r1, [pc, #48]	; 500001a0 <.text+0x1a0>
5000016c:	e5801000 	str	r1, [r0]
50000170:	e59f002c 	ldr	r0, [pc, #44]	; 500001a4 <.text+0x1a4>
50000174:	e59f1024 	ldr	r1, [pc, #36]	; 500001a0 <.text+0x1a0>
50000178:	e5801000 	str	r1, [r0]
5000017c:	e59f0024 	ldr	r0, [pc, #36]	; 500001a8 <.text+0x1a8>
50000180:	e3a01003 	mov	r1, #3	; 0x3
50000184:	e5801000 	str	r1, [r0]
50000188:	e1a0f00e 	mov	pc, lr
5000018c:	7e00f000 	cdpvc	0, 0, cr15, cr0, cr0, {0}
50000190:	0000ffff 	streqd	pc, [r0], -pc
50000194:	7e00f900 	cdpvc	9, 0, cr15, cr0, cr0, {0}
50000198:	7e00f020 	cdpvc	0, 0, cr15, cr0, cr0, {1}
5000019c:	7e00f00c 	cdpvc	0, 0, cr15, cr0, cr12, {0}
500001a0:	810a0301 	tsthi	sl, r1, lsl #6
500001a4:	7e00f010 	mcrvc	0, 0, pc, cr0, cr0, {0}
500001a8:	7e00f01c 	mcrvc	0, 0, pc, cr0, cr12, {0}

500001ac <sdram_init>:
500001ac:	e1a0c00d 	mov	ip, sp
500001b0:	e92dd800 	stmdb	sp!, {fp, ip, lr, pc}
500001b4:	e24cb004 	sub	fp, ip, #4	; 0x4
500001b8:	e24dd00c 	sub	sp, sp, #12	; 0xc
500001bc:	e3a0347e 	mov	r3, #2113929216	; 0x7e000000
500001c0:	e2833a01 	add	r3, r3, #4096	; 0x1000
500001c4:	e2833004 	add	r3, r3, #4	; 0x4
500001c8:	e3a02004 	mov	r2, #4	; 0x4
500001cc:	e5832000 	str	r2, [r3]
500001d0:	e3a0247e 	mov	r2, #2113929216	; 0x7e000000
500001d4:	e2822a01 	add	r2, r2, #4096	; 0x1000
500001d8:	e2822010 	add	r2, r2, #16	; 0x10
500001dc:	e3a03e45 	mov	r3, #1104	; 0x450
500001e0:	e283300b 	add	r3, r3, #11	; 0xb
500001e4:	e5823000 	str	r3, [r2]
500001e8:	e3a0347e 	mov	r3, #2113929216	; 0x7e000000
500001ec:	e2833a01 	add	r3, r3, #4096	; 0x1000
500001f0:	e2833014 	add	r3, r3, #20	; 0x14
500001f4:	e3a02006 	mov	r2, #6	; 0x6
500001f8:	e5832000 	str	r2, [r3]
500001fc:	e3a0347e 	mov	r3, #2113929216	; 0x7e000000
50000200:	e2833a01 	add	r3, r3, #4096	; 0x1000
50000204:	e2833018 	add	r3, r3, #24	; 0x18
50000208:	e3a02001 	mov	r2, #1	; 0x1
5000020c:	e5832000 	str	r2, [r3]
50000210:	e3a0347e 	mov	r3, #2113929216	; 0x7e000000
50000214:	e2833a01 	add	r3, r3, #4096	; 0x1000
50000218:	e283301c 	add	r3, r3, #28	; 0x1c
5000021c:	e3a02002 	mov	r2, #2	; 0x2
50000220:	e5832000 	str	r2, [r3]
50000224:	e3a0347e 	mov	r3, #2113929216	; 0x7e000000
50000228:	e2833a01 	add	r3, r3, #4096	; 0x1000
5000022c:	e2833020 	add	r3, r3, #32	; 0x20
50000230:	e3a02007 	mov	r2, #7	; 0x7
50000234:	e5832000 	str	r2, [r3]
50000238:	e3a0347e 	mov	r3, #2113929216	; 0x7e000000
5000023c:	e2833a01 	add	r3, r3, #4096	; 0x1000
50000240:	e2833024 	add	r3, r3, #36	; 0x24
50000244:	e3a02009 	mov	r2, #9	; 0x9
50000248:	e5832000 	str	r2, [r3]
5000024c:	e3a03003 	mov	r3, #3	; 0x3
50000250:	e50b3010 	str	r3, [fp, #-16]
50000254:	e3a0247e 	mov	r2, #2113929216	; 0x7e000000
50000258:	e2822a01 	add	r2, r2, #4096	; 0x1000
5000025c:	e2822028 	add	r2, r2, #40	; 0x28
50000260:	e51b3010 	ldr	r3, [fp, #-16]
50000264:	e2433003 	sub	r3, r3, #3	; 0x3
50000268:	e1a01183 	mov	r1, r3, lsl #3
5000026c:	e51b3010 	ldr	r3, [fp, #-16]
50000270:	e1813003 	orr	r3, r1, r3
50000274:	e5823000 	str	r3, [r2]
50000278:	e3a0300b 	mov	r3, #11	; 0xb
5000027c:	e50b3014 	str	r3, [fp, #-20]
50000280:	e3a0247e 	mov	r2, #2113929216	; 0x7e000000
50000284:	e2822a01 	add	r2, r2, #4096	; 0x1000
50000288:	e282202c 	add	r2, r2, #44	; 0x2c
5000028c:	e51b3014 	ldr	r3, [fp, #-20]
50000290:	e2433003 	sub	r3, r3, #3	; 0x3
50000294:	e1a01283 	mov	r1, r3, lsl #5
50000298:	e51b3014 	ldr	r3, [fp, #-20]
5000029c:	e1813003 	orr	r3, r1, r3
500002a0:	e5823000 	str	r3, [r2]
500002a4:	e3a03003 	mov	r3, #3	; 0x3
500002a8:	e50b3018 	str	r3, [fp, #-24]
500002ac:	e3a0247e 	mov	r2, #2113929216	; 0x7e000000
500002b0:	e2822a01 	add	r2, r2, #4096	; 0x1000
500002b4:	e2822030 	add	r2, r2, #48	; 0x30
500002b8:	e51b3018 	ldr	r3, [fp, #-24]
500002bc:	e2433003 	sub	r3, r3, #3	; 0x3
500002c0:	e1a01183 	mov	r1, r3, lsl #3
500002c4:	e51b3018 	ldr	r3, [fp, #-24]
500002c8:	e1813003 	orr	r3, r1, r3
500002cc:	e5823000 	str	r3, [r2]
500002d0:	e3a0347e 	mov	r3, #2113929216	; 0x7e000000
500002d4:	e2833a01 	add	r3, r3, #4096	; 0x1000
500002d8:	e2833034 	add	r3, r3, #52	; 0x34
500002dc:	e3a02002 	mov	r2, #2	; 0x2
500002e0:	e5832000 	str	r2, [r3]
500002e4:	e3a0347e 	mov	r3, #2113929216	; 0x7e000000
500002e8:	e2833a01 	add	r3, r3, #4096	; 0x1000
500002ec:	e2833038 	add	r3, r3, #56	; 0x38
500002f0:	e3a02002 	mov	r2, #2	; 0x2
500002f4:	e5832000 	str	r2, [r3]
500002f8:	e3a0347e 	mov	r3, #2113929216	; 0x7e000000
500002fc:	e2833a01 	add	r3, r3, #4096	; 0x1000
50000300:	e283303c 	add	r3, r3, #60	; 0x3c
50000304:	e3a02001 	mov	r2, #1	; 0x1
50000308:	e5832000 	str	r2, [r3]
5000030c:	e3a0347e 	mov	r3, #2113929216	; 0x7e000000
50000310:	e2833d41 	add	r3, r3, #4160	; 0x1040
50000314:	e3a02001 	mov	r2, #1	; 0x1
50000318:	e5832000 	str	r2, [r3]
5000031c:	e3a0347e 	mov	r3, #2113929216	; 0x7e000000
50000320:	e2833d41 	add	r3, r3, #4160	; 0x1040
50000324:	e2833004 	add	r3, r3, #4	; 0x4
50000328:	e3a02012 	mov	r2, #18	; 0x12
5000032c:	e5832000 	str	r2, [r3]
50000330:	e3a0347e 	mov	r3, #2113929216	; 0x7e000000
50000334:	e2833d41 	add	r3, r3, #4160	; 0x1040
50000338:	e2833008 	add	r3, r3, #8	; 0x8
5000033c:	e3a02012 	mov	r2, #18	; 0x12
50000340:	e5832000 	str	r2, [r3]
50000344:	e3a0247e 	mov	r2, #2113929216	; 0x7e000000
50000348:	e2822a01 	add	r2, r2, #4096	; 0x1000
5000034c:	e282200c 	add	r2, r2, #12	; 0xc
50000350:	e3a0347e 	mov	r3, #2113929216	; 0x7e000000
50000354:	e2833a01 	add	r3, r3, #4096	; 0x1000
50000358:	e283300c 	add	r3, r3, #12	; 0xc
5000035c:	e5933000 	ldr	r3, [r3]
50000360:	e3c33007 	bic	r3, r3, #7	; 0x7
50000364:	e3833002 	orr	r3, r3, #2	; 0x2
50000368:	e5823000 	str	r3, [r2]
5000036c:	e3a0247e 	mov	r2, #2113929216	; 0x7e000000
50000370:	e2822a01 	add	r2, r2, #4096	; 0x1000
50000374:	e282200c 	add	r2, r2, #12	; 0xc
50000378:	e3a0347e 	mov	r3, #2113929216	; 0x7e000000
5000037c:	e2833a01 	add	r3, r3, #4096	; 0x1000
50000380:	e283300c 	add	r3, r3, #12	; 0xc
50000384:	e5933000 	ldr	r3, [r3]
50000388:	e3c33038 	bic	r3, r3, #56	; 0x38
5000038c:	e3833018 	orr	r3, r3, #24	; 0x18
50000390:	e5823000 	str	r3, [r2]
50000394:	e3a0247e 	mov	r2, #2113929216	; 0x7e000000
50000398:	e2822a01 	add	r2, r2, #4096	; 0x1000
5000039c:	e282200c 	add	r2, r2, #12	; 0xc
500003a0:	e3a0347e 	mov	r3, #2113929216	; 0x7e000000
500003a4:	e2833a01 	add	r3, r3, #4096	; 0x1000
500003a8:	e283300c 	add	r3, r3, #12	; 0xc
500003ac:	e5933000 	ldr	r3, [r3]
500003b0:	e3c33040 	bic	r3, r3, #64	; 0x40
500003b4:	e5823000 	str	r3, [r2]
500003b8:	e3a0247e 	mov	r2, #2113929216	; 0x7e000000
500003bc:	e2822a01 	add	r2, r2, #4096	; 0x1000
500003c0:	e282200c 	add	r2, r2, #12	; 0xc
500003c4:	e3a0347e 	mov	r3, #2113929216	; 0x7e000000
500003c8:	e2833a01 	add	r3, r3, #4096	; 0x1000
500003cc:	e283300c 	add	r3, r3, #12	; 0xc
500003d0:	e5933000 	ldr	r3, [r3]
500003d4:	e3c3390e 	bic	r3, r3, #229376	; 0x38000
500003d8:	e3833801 	orr	r3, r3, #65536	; 0x10000
500003dc:	e5823000 	str	r3, [r2]
500003e0:	e3a0247e 	mov	r2, #2113929216	; 0x7e000000
500003e4:	e2822d41 	add	r2, r2, #4160	; 0x1040
500003e8:	e282200c 	add	r2, r2, #12	; 0xc
500003ec:	e3a0347e 	mov	r3, #2113929216	; 0x7e000000
500003f0:	e2833d41 	add	r3, r3, #4160	; 0x1040
500003f4:	e283300c 	add	r3, r3, #12	; 0xc
500003f8:	e5933000 	ldr	r3, [r3]
500003fc:	e3c3300f 	bic	r3, r3, #15	; 0xf
50000400:	e3833005 	orr	r3, r3, #5	; 0x5
50000404:	e5823000 	str	r3, [r2]
50000408:	e3a0247e 	mov	r2, #2113929216	; 0x7e000000
5000040c:	e2822d41 	add	r2, r2, #4160	; 0x1040
50000410:	e282200c 	add	r2, r2, #12	; 0xc
50000414:	e3a0347e 	mov	r3, #2113929216	; 0x7e000000
50000418:	e2833d41 	add	r3, r3, #4160	; 0x1040
5000041c:	e283300c 	add	r3, r3, #12	; 0xc
50000420:	e5933000 	ldr	r3, [r3]
50000424:	e3c330c0 	bic	r3, r3, #192	; 0xc0
50000428:	e3833040 	orr	r3, r3, #64	; 0x40
5000042c:	e5823000 	str	r3, [r2]
50000430:	e3a0247e 	mov	r2, #2113929216	; 0x7e000000
50000434:	e2822d41 	add	r2, r2, #4160	; 0x1040
50000438:	e282200c 	add	r2, r2, #12	; 0xc
5000043c:	e3a0347e 	mov	r3, #2113929216	; 0x7e000000
50000440:	e2833d41 	add	r3, r3, #4160	; 0x1040
50000444:	e283300c 	add	r3, r3, #12	; 0xc
50000448:	e5933000 	ldr	r3, [r3]
5000044c:	e3c33c07 	bic	r3, r3, #1792	; 0x700
50000450:	e3833c03 	orr	r3, r3, #768	; 0x300
50000454:	e5823000 	str	r3, [r2]
50000458:	e3a0247e 	mov	r2, #2113929216	; 0x7e000000
5000045c:	e2822d41 	add	r2, r2, #4160	; 0x1040
50000460:	e282200c 	add	r2, r2, #12	; 0xc
50000464:	e3a0347e 	mov	r3, #2113929216	; 0x7e000000
50000468:	e2833d41 	add	r3, r3, #4160	; 0x1040
5000046c:	e283300c 	add	r3, r3, #12	; 0xc
50000470:	e5933000 	ldr	r3, [r3]
50000474:	e3c33b06 	bic	r3, r3, #6144	; 0x1800
50000478:	e3833b02 	orr	r3, r3, #2048	; 0x800
5000047c:	e5823000 	str	r3, [r2]
50000480:	e3a0247e 	mov	r2, #2113929216	; 0x7e000000
50000484:	e2822c12 	add	r2, r2, #4608	; 0x1200
50000488:	e3a0347e 	mov	r3, #2113929216	; 0x7e000000
5000048c:	e2833c12 	add	r3, r3, #4608	; 0x1200
50000490:	e5933000 	ldr	r3, [r3]
50000494:	e3833801 	orr	r3, r3, #65536	; 0x10000
50000498:	e5823000 	str	r3, [r2]
5000049c:	e3a0347e 	mov	r3, #2113929216	; 0x7e000000
500004a0:	e2833a01 	add	r3, r3, #4096	; 0x1000
500004a4:	e2833008 	add	r3, r3, #8	; 0x8
500004a8:	e3a02703 	mov	r2, #786432	; 0xc0000
500004ac:	e5832000 	str	r2, [r3]
500004b0:	e3a0347e 	mov	r3, #2113929216	; 0x7e000000
500004b4:	e2833a01 	add	r3, r3, #4096	; 0x1000
500004b8:	e2833008 	add	r3, r3, #8	; 0x8
500004bc:	e3a02000 	mov	r2, #0	; 0x0
500004c0:	e5832000 	str	r2, [r3]
500004c4:	e3a0347e 	mov	r3, #2113929216	; 0x7e000000
500004c8:	e2833a01 	add	r3, r3, #4096	; 0x1000
500004cc:	e2833008 	add	r3, r3, #8	; 0x8
500004d0:	e3a02701 	mov	r2, #262144	; 0x40000
500004d4:	e5832000 	str	r2, [r3]
500004d8:	e3a0347e 	mov	r3, #2113929216	; 0x7e000000
500004dc:	e2833a01 	add	r3, r3, #4096	; 0x1000
500004e0:	e2833008 	add	r3, r3, #8	; 0x8
500004e4:	e3a02701 	mov	r2, #262144	; 0x40000
500004e8:	e5832000 	str	r2, [r3]
500004ec:	e3a0347e 	mov	r3, #2113929216	; 0x7e000000
500004f0:	e2833a01 	add	r3, r3, #4096	; 0x1000
500004f4:	e2833008 	add	r3, r3, #8	; 0x8
500004f8:	e3a0280a 	mov	r2, #655360	; 0xa0000
500004fc:	e5832000 	str	r2, [r3]
50000500:	e3a0247e 	mov	r2, #2113929216	; 0x7e000000
50000504:	e2822a01 	add	r2, r2, #4096	; 0x1000
50000508:	e2822008 	add	r2, r2, #8	; 0x8
5000050c:	e3a03702 	mov	r3, #524288	; 0x80000
50000510:	e2833032 	add	r3, r3, #50	; 0x32
50000514:	e5823000 	str	r3, [r2]
50000518:	e3a0347e 	mov	r3, #2113929216	; 0x7e000000
5000051c:	e2833cf1 	add	r3, r3, #61696	; 0xf100
50000520:	e2833020 	add	r3, r3, #32	; 0x20
50000524:	e3a02000 	mov	r2, #0	; 0x0
50000528:	e5832000 	str	r2, [r3]
5000052c:	e3a0347e 	mov	r3, #2113929216	; 0x7e000000
50000530:	e2833a01 	add	r3, r3, #4096	; 0x1000
50000534:	e2833004 	add	r3, r3, #4	; 0x4
50000538:	e3a02000 	mov	r2, #0	; 0x0
5000053c:	e5832000 	str	r2, [r3]
50000540:	e3a0347e 	mov	r3, #2113929216	; 0x7e000000
50000544:	e2833a01 	add	r3, r3, #4096	; 0x1000
50000548:	e5933000 	ldr	r3, [r3]
5000054c:	e2033003 	and	r3, r3, #3	; 0x3
50000550:	e3530001 	cmp	r3, #1	; 0x1
50000554:	0a000000 	beq	5000055c <sdram_init+0x3b0>
50000558:	eafffff8 	b	50000540 <sdram_init+0x394>
5000055c:	e24bd00c 	sub	sp, fp, #12	; 0xc
50000560:	e89da800 	ldmia	sp, {fp, sp, pc}

50000564 <sdram_test>:
50000564:	e1a0c00d 	mov	ip, sp
50000568:	e92dd800 	stmdb	sp!, {fp, ip, lr, pc}
5000056c:	e24cb004 	sub	fp, ip, #4	; 0x4
50000570:	e24dd00c 	sub	sp, sp, #12	; 0xc
50000574:	e3a03205 	mov	r3, #1342177280	; 0x50000000
50000578:	e50b3010 	str	r3, [fp, #-16]
5000057c:	e3a03000 	mov	r3, #0	; 0x0
50000580:	e50b3014 	str	r3, [fp, #-20]
50000584:	e51b2014 	ldr	r2, [fp, #-20]
50000588:	e3a03c27 	mov	r3, #9984	; 0x2700
5000058c:	e283300f 	add	r3, r3, #15	; 0xf
50000590:	e1520003 	cmp	r2, r3
50000594:	ca000008 	bgt	500005bc <sdram_test+0x58>
50000598:	e51b2010 	ldr	r2, [fp, #-16]
5000059c:	e51b3014 	ldr	r3, [fp, #-20]
500005a0:	e0822003 	add	r2, r2, r3
500005a4:	e3a03055 	mov	r3, #85	; 0x55
500005a8:	e5c23000 	strb	r3, [r2]
500005ac:	e51b3014 	ldr	r3, [fp, #-20]
500005b0:	e2833001 	add	r3, r3, #1	; 0x1
500005b4:	e50b3014 	str	r3, [fp, #-20]
500005b8:	eafffff1 	b	50000584 <sdram_test+0x20>
500005bc:	e3a03000 	mov	r3, #0	; 0x0
500005c0:	e50b3014 	str	r3, [fp, #-20]
500005c4:	e51b2014 	ldr	r2, [fp, #-20]
500005c8:	e3a03c27 	mov	r3, #9984	; 0x2700
500005cc:	e283300f 	add	r3, r3, #15	; 0xf
500005d0:	e1520003 	cmp	r2, r3
500005d4:	ca00000d 	bgt	50000610 <sdram_test+0xac>
500005d8:	e51b2010 	ldr	r2, [fp, #-16]
500005dc:	e51b3014 	ldr	r3, [fp, #-20]
500005e0:	e0823003 	add	r3, r2, r3
500005e4:	e5d33000 	ldrb	r3, [r3]
500005e8:	e20330ff 	and	r3, r3, #255	; 0xff
500005ec:	e3530055 	cmp	r3, #85	; 0x55
500005f0:	0a000002 	beq	50000600 <sdram_test+0x9c>
500005f4:	e3e03000 	mvn	r3, #0	; 0x0
500005f8:	e50b3018 	str	r3, [fp, #-24]
500005fc:	ea000005 	b	50000618 <sdram_test+0xb4>
50000600:	e51b3014 	ldr	r3, [fp, #-20]
50000604:	e2833001 	add	r3, r3, #1	; 0x1
50000608:	e50b3014 	str	r3, [fp, #-20]
5000060c:	eaffffec 	b	500005c4 <sdram_test+0x60>
50000610:	e3a03000 	mov	r3, #0	; 0x0
50000614:	e50b3018 	str	r3, [fp, #-24]
50000618:	e51b0018 	ldr	r0, [fp, #-24]
5000061c:	e24bd00c 	sub	sp, fp, #12	; 0xc
50000620:	e89da800 	ldmia	sp, {fp, sp, pc}

50000624 <copy2sdram>:
50000624:	e1a0c00d 	mov	ip, sp
50000628:	e92dd800 	stmdb	sp!, {fp, ip, lr, pc}
5000062c:	e24cb004 	sub	fp, ip, #4	; 0x4
50000630:	e24dd00c 	sub	sp, sp, #12	; 0xc
50000634:	e59f3058 	ldr	r3, [pc, #88]	; 50000694 <.text+0x694>
50000638:	e50b3010 	str	r3, [fp, #-16]
5000063c:	e59f3054 	ldr	r3, [pc, #84]	; 50000698 <.text+0x698>
50000640:	e50b3014 	str	r3, [fp, #-20]
50000644:	e3a03000 	mov	r3, #0	; 0x0
50000648:	e50b3018 	str	r3, [fp, #-24]
5000064c:	e51b2010 	ldr	r2, [fp, #-16]
50000650:	e51b3014 	ldr	r3, [fp, #-20]
50000654:	e1520003 	cmp	r2, r3
50000658:	2a00000b 	bcs	5000068c <copy2sdram+0x68>
5000065c:	e24bc010 	sub	ip, fp, #16	; 0x10
50000660:	e59c2000 	ldr	r2, [ip]
50000664:	e24b1018 	sub	r1, fp, #24	; 0x18
50000668:	e5913000 	ldr	r3, [r1]
5000066c:	e5930000 	ldr	r0, [r3]
50000670:	e2833004 	add	r3, r3, #4	; 0x4
50000674:	e5813000 	str	r3, [r1]
50000678:	e1a03002 	mov	r3, r2
5000067c:	e5830000 	str	r0, [r3]
50000680:	e2822004 	add	r2, r2, #4	; 0x4
50000684:	e58c2000 	str	r2, [ip]
50000688:	eaffffef 	b	5000064c <copy2sdram+0x28>
5000068c:	e24bd00c 	sub	sp, fp, #12	; 0xc
50000690:	e89da800 	ldmia	sp, {fp, sp, pc}
50000694:	50000000 	andpl	r0, r0, r0
50000698:	500014b0 	strplh	r1, [r0], -r0

5000069c <clean_bss>:
5000069c:	e1a0c00d 	mov	ip, sp
500006a0:	e92dd800 	stmdb	sp!, {fp, ip, lr, pc}
500006a4:	e24cb004 	sub	fp, ip, #4	; 0x4
500006a8:	e24dd008 	sub	sp, sp, #8	; 0x8
500006ac:	e59f3040 	ldr	r3, [pc, #64]	; 500006f4 <.text+0x6f4>
500006b0:	e50b3010 	str	r3, [fp, #-16]
500006b4:	e59f303c 	ldr	r3, [pc, #60]	; 500006f8 <.text+0x6f8>
500006b8:	e50b3014 	str	r3, [fp, #-20]
500006bc:	e51b2010 	ldr	r2, [fp, #-16]
500006c0:	e51b3014 	ldr	r3, [fp, #-20]
500006c4:	e1520003 	cmp	r2, r3
500006c8:	8a000007 	bhi	500006ec <clean_bss+0x50>
500006cc:	e24b0010 	sub	r0, fp, #16	; 0x10
500006d0:	e5903000 	ldr	r3, [r0]
500006d4:	e1a01003 	mov	r1, r3
500006d8:	e3a02000 	mov	r2, #0	; 0x0
500006dc:	e5812000 	str	r2, [r1]
500006e0:	e2833004 	add	r3, r3, #4	; 0x4
500006e4:	e5803000 	str	r3, [r0]
500006e8:	eafffff3 	b	500006bc <clean_bss+0x20>
500006ec:	e24bd00c 	sub	sp, fp, #12	; 0xc
500006f0:	e89da800 	ldmia	sp, {fp, sp, pc}
500006f4:	500014b0 	strplh	r1, [r0], -r0
500006f8:	500015b0 	strplh	r1, [r0], -r0
500006fc:	43434700 	cmpmi	r3, #0	; 0x0
50000700:	4728203a 	undefined
50000704:	2029554e 	eorcs	r5, r9, lr, asr #10
50000708:	2e342e33 	mrccs	14, 1, r2, cr4, cr3, {1}
5000070c:	00000035 	andeq	r0, r0, r5, lsr r0

50000710 <register_irq>:
50000710:	e1a0c00d 	mov	ip, sp
50000714:	e92dd800 	stmdb	sp!, {fp, ip, lr, pc}
50000718:	e24cb004 	sub	fp, ip, #4	; 0x4
5000071c:	e24dd008 	sub	sp, sp, #8	; 0x8
50000720:	e50b0010 	str	r0, [fp, #-16]
50000724:	e50b1014 	str	r1, [fp, #-20]
50000728:	e59f1040 	ldr	r1, [pc, #64]	; 50000770 <.text+0x770>
5000072c:	e51b2010 	ldr	r2, [fp, #-16]
50000730:	e51b3014 	ldr	r3, [fp, #-20]
50000734:	e7813102 	str	r3, [r1, r2, lsl #2]
50000738:	e3a01471 	mov	r1, #1895825408	; 0x71000000
5000073c:	e2811602 	add	r1, r1, #2097152	; 0x200000
50000740:	e2811010 	add	r1, r1, #16	; 0x10
50000744:	e3a03471 	mov	r3, #1895825408	; 0x71000000
50000748:	e2833602 	add	r3, r3, #2097152	; 0x200000
5000074c:	e2833010 	add	r3, r3, #16	; 0x10
50000750:	e3a00001 	mov	r0, #1	; 0x1
50000754:	e51b2010 	ldr	r2, [fp, #-16]
50000758:	e1a02210 	mov	r2, r0, lsl r2
5000075c:	e5933000 	ldr	r3, [r3]
50000760:	e1833002 	orr	r3, r3, r2
50000764:	e5813000 	str	r3, [r1]
50000768:	e24bd00c 	sub	sp, fp, #12	; 0xc
5000076c:	e89da800 	ldmia	sp, {fp, sp, pc}
50000770:	500014b0 	strplh	r1, [r0], -r0

50000774 <irq_init>:
50000774:	e1a0c00d 	mov	ip, sp
50000778:	e92dd800 	stmdb	sp!, {fp, ip, lr, pc}
5000077c:	e24cb004 	sub	fp, ip, #4	; 0x4
50000780:	e3a032c7 	mov	r3, #1879048204	; 0x7000000c
50000784:	e2833612 	add	r3, r3, #18874368	; 0x1200000
50000788:	e3a02000 	mov	r2, #0	; 0x0
5000078c:	e5832000 	str	r2, [r3]
50000790:	e89da800 	ldmia	sp, {fp, sp, pc}

50000794 <handle_irq_c>:
50000794:	e1a0c00d 	mov	ip, sp
50000798:	e92dd800 	stmdb	sp!, {fp, ip, lr, pc}
5000079c:	e24cb004 	sub	fp, ip, #4	; 0x4
500007a0:	e24dd008 	sub	sp, sp, #8	; 0x8
500007a4:	e3a03000 	mov	r3, #0	; 0x0
500007a8:	e50b3010 	str	r3, [fp, #-16]
500007ac:	e51b3010 	ldr	r3, [fp, #-16]
500007b0:	e353001e 	cmp	r3, #30	; 0x1e
500007b4:	8a000027 	bhi	50000858 <handle_irq_c+0xc4>
500007b8:	e3a02471 	mov	r2, #1895825408	; 0x71000000
500007bc:	e2822602 	add	r2, r2, #2097152	; 0x200000
500007c0:	e3a01001 	mov	r1, #1	; 0x1
500007c4:	e51b3010 	ldr	r3, [fp, #-16]
500007c8:	e1a01311 	mov	r1, r1, lsl r3
500007cc:	e5923000 	ldr	r3, [r2]
500007d0:	e0013003 	and	r3, r1, r3
500007d4:	e3530000 	cmp	r3, #0	; 0x0
500007d8:	0a000005 	beq	500007f4 <handle_irq_c+0x60>
500007dc:	e59f30a4 	ldr	r3, [pc, #164]	; 50000888 <.text+0x888>
500007e0:	e51b2010 	ldr	r2, [fp, #-16]
500007e4:	e7933102 	ldr	r3, [r3, r2, lsl #2]
500007e8:	e51b0010 	ldr	r0, [fp, #-16]
500007ec:	e1a0e00f 	mov	lr, pc
500007f0:	e1a0f003 	mov	pc, r3
500007f4:	e3a02471 	mov	r2, #1895825408	; 0x71000000
500007f8:	e2822603 	add	r2, r2, #3145728	; 0x300000
500007fc:	e3a01001 	mov	r1, #1	; 0x1
50000800:	e51b3010 	ldr	r3, [fp, #-16]
50000804:	e1a01311 	mov	r1, r1, lsl r3
50000808:	e5923000 	ldr	r3, [r2]
5000080c:	e0013003 	and	r3, r1, r3
50000810:	e3530000 	cmp	r3, #0	; 0x0
50000814:	0a00000b 	beq	50000848 <handle_irq_c+0xb4>
50000818:	e59f2068 	ldr	r2, [pc, #104]	; 50000888 <.text+0x888>
5000081c:	e51b3010 	ldr	r3, [fp, #-16]
50000820:	e3a01080 	mov	r1, #128	; 0x80
50000824:	e1a03103 	mov	r3, r3, lsl #2
50000828:	e0833002 	add	r3, r3, r2
5000082c:	e0832001 	add	r2, r3, r1
50000830:	e51b3010 	ldr	r3, [fp, #-16]
50000834:	e2833020 	add	r3, r3, #32	; 0x20
50000838:	e5922000 	ldr	r2, [r2]
5000083c:	e1a00003 	mov	r0, r3
50000840:	e1a0e00f 	mov	lr, pc
50000844:	e1a0f002 	mov	pc, r2
50000848:	e51b3010 	ldr	r3, [fp, #-16]
5000084c:	e2833001 	add	r3, r3, #1	; 0x1
50000850:	e50b3010 	str	r3, [fp, #-16]
50000854:	eaffffd4 	b	500007ac <handle_irq_c+0x18>
50000858:	e3a03471 	mov	r3, #1895825408	; 0x71000000
5000085c:	e2833602 	add	r3, r3, #2097152	; 0x200000
50000860:	e2833c0f 	add	r3, r3, #3840	; 0xf00
50000864:	e3a02000 	mov	r2, #0	; 0x0
50000868:	e5832000 	str	r2, [r3]
5000086c:	e3a03471 	mov	r3, #1895825408	; 0x71000000
50000870:	e2833603 	add	r3, r3, #3145728	; 0x300000
50000874:	e2833c0f 	add	r3, r3, #3840	; 0xf00
50000878:	e3a02000 	mov	r2, #0	; 0x0
5000087c:	e5832000 	str	r2, [r3]
50000880:	e24bd00c 	sub	sp, fp, #12	; 0xc
50000884:	e89da800 	ldmia	sp, {fp, sp, pc}
50000888:	500014b0 	strplh	r1, [r0], -r0

5000088c <printException>:
5000088c:	e1a0c00d 	mov	ip, sp
50000890:	e92dd800 	stmdb	sp!, {fp, ip, lr, pc}
50000894:	e24cb004 	sub	fp, ip, #4	; 0x4
50000898:	e24dd008 	sub	sp, sp, #8	; 0x8
5000089c:	e50b0010 	str	r0, [fp, #-16]
500008a0:	e50b1014 	str	r1, [fp, #-20]
500008a4:	e59f0028 	ldr	r0, [pc, #40]	; 500008d4 <.text+0x8d4>
500008a8:	eb00008e 	bl	50000ae8 <puts>
500008ac:	e51b0010 	ldr	r0, [fp, #-16]
500008b0:	eb00009e 	bl	50000b30 <printHex>
500008b4:	e59f001c 	ldr	r0, [pc, #28]	; 500008d8 <.text+0x8d8>
500008b8:	eb00008a 	bl	50000ae8 <puts>
500008bc:	e51b0014 	ldr	r0, [fp, #-20]
500008c0:	eb000088 	bl	50000ae8 <puts>
500008c4:	e59f0010 	ldr	r0, [pc, #16]	; 500008dc <.text+0x8dc>
500008c8:	eb000086 	bl	50000ae8 <puts>
500008cc:	e24bd00c 	sub	sp, fp, #12	; 0xc
500008d0:	e89da800 	ldmia	sp, {fp, sp, pc}
500008d4:	50001480 	andpl	r1, r0, r0, lsl #9
500008d8:	50001494 	mulpl	r0, r4, r4
500008dc:	50001498 	mulpl	r0, r8, r4

500008e0 <raise>:
500008e0:	e1a0c00d 	mov	ip, sp
500008e4:	e92dd800 	stmdb	sp!, {fp, ip, lr, pc}
500008e8:	e24cb004 	sub	fp, ip, #4	; 0x4
500008ec:	e3a03000 	mov	r3, #0	; 0x0
500008f0:	e1a00003 	mov	r0, r3
500008f4:	e89da800 	ldmia	sp, {fp, sp, pc}

500008f8 <main>:
500008f8:	e1a0c00d 	mov	ip, sp
500008fc:	e92dd800 	stmdb	sp!, {fp, ip, lr, pc}
50000900:	e24cb004 	sub	fp, ip, #4	; 0x4
50000904:	e24dd008 	sub	sp, sp, #8	; 0x8
50000908:	e3a03032 	mov	r3, #50	; 0x32
5000090c:	e50b3014 	str	r3, [fp, #-20]
50000910:	eb0000f1 	bl	50000cdc <timer0_pwm_init>
50000914:	e3a03a7a 	mov	r3, #499712	; 0x7a000
50000918:	e2833e12 	add	r3, r3, #288	; 0x120
5000091c:	e50b3010 	str	r3, [fp, #-16]
50000920:	e51b0014 	ldr	r0, [fp, #-20]
50000924:	e3a0103c 	mov	r1, #60	; 0x3c
50000928:	eb000117 	bl	50000d8c <timer0_pwm>
5000092c:	e51b3014 	ldr	r3, [fp, #-20]
50000930:	e2833032 	add	r3, r3, #50	; 0x32
50000934:	e50b3014 	str	r3, [fp, #-20]
50000938:	e51b3010 	ldr	r3, [fp, #-16]
5000093c:	e2433001 	sub	r3, r3, #1	; 0x1
50000940:	e50b3010 	str	r3, [fp, #-16]
50000944:	e3730001 	cmn	r3, #1	; 0x1
50000948:	0afffff1 	beq	50000914 <main+0x1c>
5000094c:	eafffff9 	b	50000938 <main+0x40>

50000950 <uart0_init>:
50000950:	e1a0c00d 	mov	ip, sp
50000954:	e92dd800 	stmdb	sp!, {fp, ip, lr, pc}
50000958:	e24cb004 	sub	fp, ip, #4	; 0x4
5000095c:	e3a0247f 	mov	r2, #2130706432	; 0x7f000000
50000960:	e2822902 	add	r2, r2, #32768	; 0x8000
50000964:	e3a0347f 	mov	r3, #2130706432	; 0x7f000000
50000968:	e2833902 	add	r3, r3, #32768	; 0x8000
5000096c:	e5933000 	ldr	r3, [r3]
50000970:	e3c330ff 	bic	r3, r3, #255	; 0xff
50000974:	e5823000 	str	r3, [r2]
50000978:	e3a0247f 	mov	r2, #2130706432	; 0x7f000000
5000097c:	e2822902 	add	r2, r2, #32768	; 0x8000
50000980:	e3a0347f 	mov	r3, #2130706432	; 0x7f000000
50000984:	e2833902 	add	r3, r3, #32768	; 0x8000
50000988:	e5933000 	ldr	r3, [r3]
5000098c:	e3833022 	orr	r3, r3, #34	; 0x22
50000990:	e5823000 	str	r3, [r2]
50000994:	e3a0247f 	mov	r2, #2130706432	; 0x7f000000
50000998:	e2822902 	add	r2, r2, #32768	; 0x8000
5000099c:	e2822008 	add	r2, r2, #8	; 0x8
500009a0:	e3a0347f 	mov	r3, #2130706432	; 0x7f000000
500009a4:	e2833902 	add	r3, r3, #32768	; 0x8000
500009a8:	e2833008 	add	r3, r3, #8	; 0x8
500009ac:	e5933000 	ldr	r3, [r3]
500009b0:	e3c3300f 	bic	r3, r3, #15	; 0xf
500009b4:	e5823000 	str	r3, [r2]
500009b8:	e3a0247f 	mov	r2, #2130706432	; 0x7f000000
500009bc:	e2822902 	add	r2, r2, #32768	; 0x8000
500009c0:	e2822008 	add	r2, r2, #8	; 0x8
500009c4:	e3a0347f 	mov	r3, #2130706432	; 0x7f000000
500009c8:	e2833902 	add	r3, r3, #32768	; 0x8000
500009cc:	e2833008 	add	r3, r3, #8	; 0x8
500009d0:	e5933000 	ldr	r3, [r3]
500009d4:	e383300a 	orr	r3, r3, #10	; 0xa
500009d8:	e5823000 	str	r3, [r2]
500009dc:	e3a0247f 	mov	r2, #2130706432	; 0x7f000000
500009e0:	e2822a05 	add	r2, r2, #20480	; 0x5000
500009e4:	e2822004 	add	r2, r2, #4	; 0x4
500009e8:	e3a0347f 	mov	r3, #2130706432	; 0x7f000000
500009ec:	e2833a05 	add	r3, r3, #20480	; 0x5000
500009f0:	e2833004 	add	r3, r3, #4	; 0x4
500009f4:	e5933000 	ldr	r3, [r3]
500009f8:	e3833005 	orr	r3, r3, #5	; 0x5
500009fc:	e5823000 	str	r3, [r2]
50000a00:	e3a0347f 	mov	r3, #2130706432	; 0x7f000000
50000a04:	e2833a05 	add	r3, r3, #20480	; 0x5000
50000a08:	e2833028 	add	r3, r3, #40	; 0x28
50000a0c:	e3a02023 	mov	r2, #35	; 0x23
50000a10:	e5832000 	str	r2, [r3]
50000a14:	e3a0347f 	mov	r3, #2130706432	; 0x7f000000
50000a18:	e2833a05 	add	r3, r3, #20480	; 0x5000
50000a1c:	e283302c 	add	r3, r3, #44	; 0x2c
50000a20:	e3a02001 	mov	r2, #1	; 0x1
50000a24:	e5832000 	str	r2, [r3]
50000a28:	e3a0347f 	mov	r3, #2130706432	; 0x7f000000
50000a2c:	e2833a05 	add	r3, r3, #20480	; 0x5000
50000a30:	e3a02003 	mov	r2, #3	; 0x3
50000a34:	e5832000 	str	r2, [r3]
50000a38:	e3a0347f 	mov	r3, #2130706432	; 0x7f000000
50000a3c:	e2833a05 	add	r3, r3, #20480	; 0x5000
50000a40:	e283300c 	add	r3, r3, #12	; 0xc
50000a44:	e3a02000 	mov	r2, #0	; 0x0
50000a48:	e5832000 	str	r2, [r3]
50000a4c:	e89da800 	ldmia	sp, {fp, sp, pc}

50000a50 <putchar>:
50000a50:	e1a0c00d 	mov	ip, sp
50000a54:	e92dd800 	stmdb	sp!, {fp, ip, lr, pc}
50000a58:	e24cb004 	sub	fp, ip, #4	; 0x4
50000a5c:	e24dd004 	sub	sp, sp, #4	; 0x4
50000a60:	e1a03000 	mov	r3, r0
50000a64:	e54b300d 	strb	r3, [fp, #-13]
50000a68:	e3a0347f 	mov	r3, #2130706432	; 0x7f000000
50000a6c:	e2833a05 	add	r3, r3, #20480	; 0x5000
50000a70:	e2833010 	add	r3, r3, #16	; 0x10
50000a74:	e5933000 	ldr	r3, [r3]
50000a78:	e2033004 	and	r3, r3, #4	; 0x4
50000a7c:	e3530000 	cmp	r3, #0	; 0x0
50000a80:	1a000000 	bne	50000a88 <putchar+0x38>
50000a84:	eafffff7 	b	50000a68 <putchar+0x18>
50000a88:	e3a0347f 	mov	r3, #2130706432	; 0x7f000000
50000a8c:	e2833a05 	add	r3, r3, #20480	; 0x5000
50000a90:	e2833020 	add	r3, r3, #32	; 0x20
50000a94:	e55b200d 	ldrb	r2, [fp, #-13]
50000a98:	e5832000 	str	r2, [r3]
50000a9c:	e89da808 	ldmia	sp, {r3, fp, sp, pc}

50000aa0 <getchar>:
50000aa0:	e1a0c00d 	mov	ip, sp
50000aa4:	e92dd800 	stmdb	sp!, {fp, ip, lr, pc}
50000aa8:	e24cb004 	sub	fp, ip, #4	; 0x4
50000aac:	e3a0347f 	mov	r3, #2130706432	; 0x7f000000
50000ab0:	e2833a05 	add	r3, r3, #20480	; 0x5000
50000ab4:	e2833010 	add	r3, r3, #16	; 0x10
50000ab8:	e5933000 	ldr	r3, [r3]
50000abc:	e2033001 	and	r3, r3, #1	; 0x1
50000ac0:	e3530000 	cmp	r3, #0	; 0x0
50000ac4:	1a000000 	bne	50000acc <getchar+0x2c>
50000ac8:	eafffff7 	b	50000aac <getchar+0xc>
50000acc:	e3a0347f 	mov	r3, #2130706432	; 0x7f000000
50000ad0:	e2833a05 	add	r3, r3, #20480	; 0x5000
50000ad4:	e2833024 	add	r3, r3, #36	; 0x24
50000ad8:	e5933000 	ldr	r3, [r3]
50000adc:	e20330ff 	and	r3, r3, #255	; 0xff
50000ae0:	e1a00003 	mov	r0, r3
50000ae4:	e89da800 	ldmia	sp, {fp, sp, pc}

50000ae8 <puts>:
50000ae8:	e1a0c00d 	mov	ip, sp
50000aec:	e92dd800 	stmdb	sp!, {fp, ip, lr, pc}
50000af0:	e24cb004 	sub	fp, ip, #4	; 0x4
50000af4:	e24dd004 	sub	sp, sp, #4	; 0x4
50000af8:	e50b0010 	str	r0, [fp, #-16]
50000afc:	e51b3010 	ldr	r3, [fp, #-16]
50000b00:	e5d33000 	ldrb	r3, [r3]
50000b04:	e3530000 	cmp	r3, #0	; 0x0
50000b08:	0a000007 	beq	50000b2c <puts+0x44>
50000b0c:	e51b3010 	ldr	r3, [fp, #-16]
50000b10:	e5d33000 	ldrb	r3, [r3]
50000b14:	e1a00003 	mov	r0, r3
50000b18:	ebffffcc 	bl	50000a50 <putchar>
50000b1c:	e51b3010 	ldr	r3, [fp, #-16]
50000b20:	e2833001 	add	r3, r3, #1	; 0x1
50000b24:	e50b3010 	str	r3, [fp, #-16]
50000b28:	eafffff3 	b	50000afc <puts+0x14>
50000b2c:	e89da808 	ldmia	sp, {r3, fp, sp, pc}

50000b30 <printHex>:
50000b30:	e1a0c00d 	mov	ip, sp
50000b34:	e92dd800 	stmdb	sp!, {fp, ip, lr, pc}
50000b38:	e24cb004 	sub	fp, ip, #4	; 0x4
50000b3c:	e24dd028 	sub	sp, sp, #40	; 0x28
50000b40:	e50b0010 	str	r0, [fp, #-16]
50000b44:	e3a03000 	mov	r3, #0	; 0x0
50000b48:	e50b3014 	str	r3, [fp, #-20]
50000b4c:	e51b3014 	ldr	r3, [fp, #-20]
50000b50:	e3530007 	cmp	r3, #7	; 0x7
50000b54:	ca00000f 	bgt	50000b98 <printHex+0x68>
50000b58:	e51b3014 	ldr	r3, [fp, #-20]
50000b5c:	e3e02027 	mvn	r2, #39	; 0x27
50000b60:	e1a03103 	mov	r3, r3, lsl #2
50000b64:	e24b100c 	sub	r1, fp, #12	; 0xc
50000b68:	e0833001 	add	r3, r3, r1
50000b6c:	e0832002 	add	r2, r3, r2
50000b70:	e51b3010 	ldr	r3, [fp, #-16]
50000b74:	e203300f 	and	r3, r3, #15	; 0xf
50000b78:	e5823000 	str	r3, [r2]
50000b7c:	e51b3010 	ldr	r3, [fp, #-16]
50000b80:	e1a03223 	mov	r3, r3, lsr #4
50000b84:	e50b3010 	str	r3, [fp, #-16]
50000b88:	e51b3014 	ldr	r3, [fp, #-20]
50000b8c:	e2833001 	add	r3, r3, #1	; 0x1
50000b90:	e50b3014 	str	r3, [fp, #-20]
50000b94:	eaffffec 	b	50000b4c <printHex+0x1c>
50000b98:	e59f00f4 	ldr	r0, [pc, #244]	; 50000c94 <.text+0xc94>
50000b9c:	ebffffd1 	bl	50000ae8 <puts>
50000ba0:	e3a03007 	mov	r3, #7	; 0x7
50000ba4:	e50b3014 	str	r3, [fp, #-20]
50000ba8:	e51b3014 	ldr	r3, [fp, #-20]
50000bac:	e3530000 	cmp	r3, #0	; 0x0
50000bb0:	ba000035 	blt	50000c8c <printHex+0x15c>
50000bb4:	e51b3014 	ldr	r3, [fp, #-20]
50000bb8:	e3e02027 	mvn	r2, #39	; 0x27
50000bbc:	e1a03103 	mov	r3, r3, lsl #2
50000bc0:	e24b100c 	sub	r1, fp, #12	; 0xc
50000bc4:	e0833001 	add	r3, r3, r1
50000bc8:	e0833002 	add	r3, r3, r2
50000bcc:	e5933000 	ldr	r3, [r3]
50000bd0:	e3530009 	cmp	r3, #9	; 0x9
50000bd4:	8a00000b 	bhi	50000c08 <printHex+0xd8>
50000bd8:	e51b3014 	ldr	r3, [fp, #-20]
50000bdc:	e3e02027 	mvn	r2, #39	; 0x27
50000be0:	e1a03103 	mov	r3, r3, lsl #2
50000be4:	e24b100c 	sub	r1, fp, #12	; 0xc
50000be8:	e0833001 	add	r3, r3, r1
50000bec:	e0833002 	add	r3, r3, r2
50000bf0:	e5933000 	ldr	r3, [r3]
50000bf4:	e2833030 	add	r3, r3, #48	; 0x30
50000bf8:	e20330ff 	and	r3, r3, #255	; 0xff
50000bfc:	e1a00003 	mov	r0, r3
50000c00:	ebffff92 	bl	50000a50 <putchar>
50000c04:	ea00001c 	b	50000c7c <printHex+0x14c>
50000c08:	e51b3014 	ldr	r3, [fp, #-20]
50000c0c:	e3e02027 	mvn	r2, #39	; 0x27
50000c10:	e1a03103 	mov	r3, r3, lsl #2
50000c14:	e24b100c 	sub	r1, fp, #12	; 0xc
50000c18:	e0833001 	add	r3, r3, r1
50000c1c:	e0833002 	add	r3, r3, r2
50000c20:	e5933000 	ldr	r3, [r3]
50000c24:	e3530009 	cmp	r3, #9	; 0x9
50000c28:	9a000013 	bls	50000c7c <printHex+0x14c>
50000c2c:	e51b3014 	ldr	r3, [fp, #-20]
50000c30:	e3e02027 	mvn	r2, #39	; 0x27
50000c34:	e1a03103 	mov	r3, r3, lsl #2
50000c38:	e24b100c 	sub	r1, fp, #12	; 0xc
50000c3c:	e0833001 	add	r3, r3, r1
50000c40:	e0833002 	add	r3, r3, r2
50000c44:	e5933000 	ldr	r3, [r3]
50000c48:	e353000f 	cmp	r3, #15	; 0xf
50000c4c:	8a00000a 	bhi	50000c7c <printHex+0x14c>
50000c50:	e51b3014 	ldr	r3, [fp, #-20]
50000c54:	e3e02027 	mvn	r2, #39	; 0x27
50000c58:	e1a03103 	mov	r3, r3, lsl #2
50000c5c:	e24b100c 	sub	r1, fp, #12	; 0xc
50000c60:	e0833001 	add	r3, r3, r1
50000c64:	e0833002 	add	r3, r3, r2
50000c68:	e5933000 	ldr	r3, [r3]
50000c6c:	e2833037 	add	r3, r3, #55	; 0x37
50000c70:	e20330ff 	and	r3, r3, #255	; 0xff
50000c74:	e1a00003 	mov	r0, r3
50000c78:	ebffff74 	bl	50000a50 <putchar>
50000c7c:	e51b3014 	ldr	r3, [fp, #-20]
50000c80:	e2433001 	sub	r3, r3, #1	; 0x1
50000c84:	e50b3014 	str	r3, [fp, #-20]
50000c88:	eaffffc6 	b	50000ba8 <printHex+0x78>
50000c8c:	e24bd00c 	sub	sp, fp, #12	; 0xc
50000c90:	e89da800 	ldmia	sp, {fp, sp, pc}
50000c94:	5000149c 	mulpl	r0, ip, r4

50000c98 <printSwi_Val>:
50000c98:	e1a0c00d 	mov	ip, sp
50000c9c:	e92dd800 	stmdb	sp!, {fp, ip, lr, pc}
50000ca0:	e24cb004 	sub	fp, ip, #4	; 0x4
50000ca4:	e24dd004 	sub	sp, sp, #4	; 0x4
50000ca8:	e50b0010 	str	r0, [fp, #-16]
50000cac:	e59f0020 	ldr	r0, [pc, #32]	; 50000cd4 <.text+0xcd4>
50000cb0:	ebffff8c 	bl	50000ae8 <puts>
50000cb4:	e51b3010 	ldr	r3, [fp, #-16]
50000cb8:	e5933000 	ldr	r3, [r3]
50000cbc:	e3c334ff 	bic	r3, r3, #-16777216	; 0xff000000
50000cc0:	e1a00003 	mov	r0, r3
50000cc4:	ebffff99 	bl	50000b30 <printHex>
50000cc8:	e59f0008 	ldr	r0, [pc, #8]	; 50000cd8 <.text+0xcd8>
50000ccc:	ebffff85 	bl	50000ae8 <puts>
50000cd0:	e89da808 	ldmia	sp, {r3, fp, sp, pc}
50000cd4:	500014a0 	andpl	r1, r0, r0, lsr #9
50000cd8:	500014ac 	andpl	r1, r0, ip, lsr #9

50000cdc <timer0_pwm_init>:
50000cdc:	e1a0c00d 	mov	ip, sp
50000ce0:	e92dd800 	stmdb	sp!, {fp, ip, lr, pc}
50000ce4:	e24cb004 	sub	fp, ip, #4	; 0x4
50000ce8:	e3a0247f 	mov	r2, #2130706432	; 0x7f000000
50000cec:	e2822902 	add	r2, r2, #32768	; 0x8000
50000cf0:	e28220a0 	add	r2, r2, #160	; 0xa0
50000cf4:	e3a0347f 	mov	r3, #2130706432	; 0x7f000000
50000cf8:	e2833902 	add	r3, r3, #32768	; 0x8000
50000cfc:	e28330a0 	add	r3, r3, #160	; 0xa0
50000d00:	e5933000 	ldr	r3, [r3]
50000d04:	e3833202 	orr	r3, r3, #536870912	; 0x20000000
50000d08:	e5823000 	str	r3, [r2]
50000d0c:	e3a0247f 	mov	r2, #2130706432	; 0x7f000000
50000d10:	e2822a06 	add	r2, r2, #24576	; 0x6000
50000d14:	e3a0347f 	mov	r3, #2130706432	; 0x7f000000
50000d18:	e2833a06 	add	r3, r3, #24576	; 0x6000
50000d1c:	e5933000 	ldr	r3, [r3]
50000d20:	e3c330ff 	bic	r3, r3, #255	; 0xff
50000d24:	e5823000 	str	r3, [r2]
50000d28:	e3a0247f 	mov	r2, #2130706432	; 0x7f000000
50000d2c:	e2822a06 	add	r2, r2, #24576	; 0x6000
50000d30:	e3a0347f 	mov	r3, #2130706432	; 0x7f000000
50000d34:	e2833a06 	add	r3, r3, #24576	; 0x6000
50000d38:	e5933000 	ldr	r3, [r3]
50000d3c:	e3833084 	orr	r3, r3, #132	; 0x84
50000d40:	e5823000 	str	r3, [r2]
50000d44:	e3a0247f 	mov	r2, #2130706432	; 0x7f000000
50000d48:	e2822a06 	add	r2, r2, #24576	; 0x6000
50000d4c:	e2822004 	add	r2, r2, #4	; 0x4
50000d50:	e3a0347f 	mov	r3, #2130706432	; 0x7f000000
50000d54:	e2833a06 	add	r3, r3, #24576	; 0x6000
50000d58:	e2833004 	add	r3, r3, #4	; 0x4
50000d5c:	e5933000 	ldr	r3, [r3]
50000d60:	e3c3300f 	bic	r3, r3, #15	; 0xf
50000d64:	e5823000 	str	r3, [r2]
50000d68:	e3a0247f 	mov	r2, #2130706432	; 0x7f000000
50000d6c:	e2822a06 	add	r2, r2, #24576	; 0x6000
50000d70:	e2822004 	add	r2, r2, #4	; 0x4
50000d74:	e3a0347f 	mov	r3, #2130706432	; 0x7f000000
50000d78:	e2833a06 	add	r3, r3, #24576	; 0x6000
50000d7c:	e2833004 	add	r3, r3, #4	; 0x4
50000d80:	e5933000 	ldr	r3, [r3]
50000d84:	e5823000 	str	r3, [r2]
50000d88:	e89da800 	ldmia	sp, {fp, sp, pc}

50000d8c <timer0_pwm>:
50000d8c:	e1a0c00d 	mov	ip, sp
50000d90:	e92dd800 	stmdb	sp!, {fp, ip, lr, pc}
50000d94:	e24cb004 	sub	fp, ip, #4	; 0x4
50000d98:	e24dd010 	sub	sp, sp, #16	; 0x10
50000d9c:	e50b0010 	str	r0, [fp, #-16]
50000da0:	e50b1014 	str	r1, [fp, #-20]
50000da4:	e3a0247f 	mov	r2, #2130706432	; 0x7f000000
50000da8:	e2822a06 	add	r2, r2, #24576	; 0x6000
50000dac:	e2822008 	add	r2, r2, #8	; 0x8
50000db0:	e3a0347f 	mov	r3, #2130706432	; 0x7f000000
50000db4:	e2833a06 	add	r3, r3, #24576	; 0x6000
50000db8:	e2833008 	add	r3, r3, #8	; 0x8
50000dbc:	e5933000 	ldr	r3, [r3]
50000dc0:	e3c3300f 	bic	r3, r3, #15	; 0xf
50000dc4:	e5823000 	str	r3, [r2]
50000dc8:	e3a00a7a 	mov	r0, #499712	; 0x7a000
50000dcc:	e2800e12 	add	r0, r0, #288	; 0x120
50000dd0:	e51b1010 	ldr	r1, [fp, #-16]
50000dd4:	eb0000bd 	bl	500010d0 <__udivsi3>
50000dd8:	e1a03000 	mov	r3, r0
50000ddc:	e50b3018 	str	r3, [fp, #-24]
50000de0:	e51b3018 	ldr	r3, [fp, #-24]
50000de4:	e1a00003 	mov	r0, r3
50000de8:	e3a01064 	mov	r1, #100	; 0x64
50000dec:	eb0000b7 	bl	500010d0 <__udivsi3>
50000df0:	e1a02000 	mov	r2, r0
50000df4:	e51b3014 	ldr	r3, [fp, #-20]
50000df8:	e0020293 	mul	r2, r3, r2
50000dfc:	e51b3018 	ldr	r3, [fp, #-24]
50000e00:	e0623003 	rsb	r3, r2, r3
50000e04:	e50b301c 	str	r3, [fp, #-28]
50000e08:	e3a0347f 	mov	r3, #2130706432	; 0x7f000000
50000e0c:	e2833a06 	add	r3, r3, #24576	; 0x6000
50000e10:	e283300c 	add	r3, r3, #12	; 0xc
50000e14:	e51b2018 	ldr	r2, [fp, #-24]
50000e18:	e5832000 	str	r2, [r3]
50000e1c:	e3a0347f 	mov	r3, #2130706432	; 0x7f000000
50000e20:	e2833a06 	add	r3, r3, #24576	; 0x6000
50000e24:	e2833010 	add	r3, r3, #16	; 0x10
50000e28:	e51b201c 	ldr	r2, [fp, #-28]
50000e2c:	e5832000 	str	r2, [r3]
50000e30:	e3a0247f 	mov	r2, #2130706432	; 0x7f000000
50000e34:	e2822a06 	add	r2, r2, #24576	; 0x6000
50000e38:	e2822008 	add	r2, r2, #8	; 0x8
50000e3c:	e3a0347f 	mov	r3, #2130706432	; 0x7f000000
50000e40:	e2833a06 	add	r3, r3, #24576	; 0x6000
50000e44:	e2833008 	add	r3, r3, #8	; 0x8
50000e48:	e5933000 	ldr	r3, [r3]
50000e4c:	e3833002 	orr	r3, r3, #2	; 0x2
50000e50:	e5823000 	str	r3, [r2]
50000e54:	e3a0247f 	mov	r2, #2130706432	; 0x7f000000
50000e58:	e2822a06 	add	r2, r2, #24576	; 0x6000
50000e5c:	e2822008 	add	r2, r2, #8	; 0x8
50000e60:	e3a0347f 	mov	r3, #2130706432	; 0x7f000000
50000e64:	e2833a06 	add	r3, r3, #24576	; 0x6000
50000e68:	e2833008 	add	r3, r3, #8	; 0x8
50000e6c:	e5933000 	ldr	r3, [r3]
50000e70:	e3c33002 	bic	r3, r3, #2	; 0x2
50000e74:	e5823000 	str	r3, [r2]
50000e78:	e3a0247f 	mov	r2, #2130706432	; 0x7f000000
50000e7c:	e2822a06 	add	r2, r2, #24576	; 0x6000
50000e80:	e2822008 	add	r2, r2, #8	; 0x8
50000e84:	e3a0347f 	mov	r3, #2130706432	; 0x7f000000
50000e88:	e2833a06 	add	r3, r3, #24576	; 0x6000
50000e8c:	e2833008 	add	r3, r3, #8	; 0x8
50000e90:	e5933000 	ldr	r3, [r3]
50000e94:	e3833008 	orr	r3, r3, #8	; 0x8
50000e98:	e5823000 	str	r3, [r2]
50000e9c:	e3a0247f 	mov	r2, #2130706432	; 0x7f000000
50000ea0:	e2822a06 	add	r2, r2, #24576	; 0x6000
50000ea4:	e2822008 	add	r2, r2, #8	; 0x8
50000ea8:	e3a0347f 	mov	r3, #2130706432	; 0x7f000000
50000eac:	e2833a06 	add	r3, r3, #24576	; 0x6000
50000eb0:	e2833008 	add	r3, r3, #8	; 0x8
50000eb4:	e5933000 	ldr	r3, [r3]
50000eb8:	e3833001 	orr	r3, r3, #1	; 0x1
50000ebc:	e5823000 	str	r3, [r2]
50000ec0:	e24bd00c 	sub	sp, fp, #12	; 0xc
50000ec4:	e89da800 	ldmia	sp, {fp, sp, pc}

50000ec8 <led_init>:
50000ec8:	e1a0c00d 	mov	ip, sp
50000ecc:	e92dd800 	stmdb	sp!, {fp, ip, lr, pc}
50000ed0:	e24cb004 	sub	fp, ip, #4	; 0x4
50000ed4:	e3a0247f 	mov	r2, #2130706432	; 0x7f000000
50000ed8:	e2822b22 	add	r2, r2, #34816	; 0x8800
50000edc:	e3a0347f 	mov	r3, #2130706432	; 0x7f000000
50000ee0:	e2833b22 	add	r3, r3, #34816	; 0x8800
50000ee4:	e5933000 	ldr	r3, [r3]
50000ee8:	e1a03803 	mov	r3, r3, lsl #16
50000eec:	e1a03823 	mov	r3, r3, lsr #16
50000ef0:	e5823000 	str	r3, [r2]
50000ef4:	e3a0247f 	mov	r2, #2130706432	; 0x7f000000
50000ef8:	e2822b22 	add	r2, r2, #34816	; 0x8800
50000efc:	e3a0347f 	mov	r3, #2130706432	; 0x7f000000
50000f00:	e2833b22 	add	r3, r3, #34816	; 0x8800
50000f04:	e5933000 	ldr	r3, [r3]
50000f08:	e3833411 	orr	r3, r3, #285212672	; 0x11000000
50000f0c:	e3833811 	orr	r3, r3, #1114112	; 0x110000
50000f10:	e5823000 	str	r3, [r2]
50000f14:	e3a0247f 	mov	r2, #2130706432	; 0x7f000000
50000f18:	e2822b22 	add	r2, r2, #34816	; 0x8800
50000f1c:	e2822008 	add	r2, r2, #8	; 0x8
50000f20:	e3a0347f 	mov	r3, #2130706432	; 0x7f000000
50000f24:	e2833b22 	add	r3, r3, #34816	; 0x8800
50000f28:	e2833008 	add	r3, r3, #8	; 0x8
50000f2c:	e5933000 	ldr	r3, [r3]
50000f30:	e38330f0 	orr	r3, r3, #240	; 0xf0
50000f34:	e5823000 	str	r3, [r2]
50000f38:	e89da800 	ldmia	sp, {fp, sp, pc}

50000f3c <led_on>:
50000f3c:	e1a0c00d 	mov	ip, sp
50000f40:	e92dd800 	stmdb	sp!, {fp, ip, lr, pc}
50000f44:	e24cb004 	sub	fp, ip, #4	; 0x4
50000f48:	e24dd008 	sub	sp, sp, #8	; 0x8
50000f4c:	e3a03000 	mov	r3, #0	; 0x0
50000f50:	e50b3010 	str	r3, [fp, #-16]
50000f54:	ebffffdb 	bl	50000ec8 <led_init>
50000f58:	e51b3010 	ldr	r3, [fp, #-16]
50000f5c:	e1e03003 	mvn	r3, r3
50000f60:	e50b3014 	str	r3, [fp, #-20]
50000f64:	e51b3014 	ldr	r3, [fp, #-20]
50000f68:	e203300f 	and	r3, r3, #15	; 0xf
50000f6c:	e50b3014 	str	r3, [fp, #-20]
50000f70:	e3a0247f 	mov	r2, #2130706432	; 0x7f000000
50000f74:	e2822b22 	add	r2, r2, #34816	; 0x8800
50000f78:	e2822008 	add	r2, r2, #8	; 0x8
50000f7c:	e3a0347f 	mov	r3, #2130706432	; 0x7f000000
50000f80:	e2833b22 	add	r3, r3, #34816	; 0x8800
50000f84:	e2833008 	add	r3, r3, #8	; 0x8
50000f88:	e5933000 	ldr	r3, [r3]
50000f8c:	e3c330f0 	bic	r3, r3, #240	; 0xf0
50000f90:	e5823000 	str	r3, [r2]
50000f94:	e3a0147f 	mov	r1, #2130706432	; 0x7f000000
50000f98:	e2811b22 	add	r1, r1, #34816	; 0x8800
50000f9c:	e2811008 	add	r1, r1, #8	; 0x8
50000fa0:	e3a0347f 	mov	r3, #2130706432	; 0x7f000000
50000fa4:	e2833b22 	add	r3, r3, #34816	; 0x8800
50000fa8:	e2833008 	add	r3, r3, #8	; 0x8
50000fac:	e51b2014 	ldr	r2, [fp, #-20]
50000fb0:	e1a02202 	mov	r2, r2, lsl #4
50000fb4:	e5933000 	ldr	r3, [r3]
50000fb8:	e1833002 	orr	r3, r3, r2
50000fbc:	e5813000 	str	r3, [r1]
50000fc0:	e3a00b61 	mov	r0, #99328	; 0x18400
50000fc4:	e2800e2a 	add	r0, r0, #672	; 0x2a0
50000fc8:	eb000031 	bl	50001094 <delay>
50000fcc:	e51b3010 	ldr	r3, [fp, #-16]
50000fd0:	e2833001 	add	r3, r3, #1	; 0x1
50000fd4:	e50b3010 	str	r3, [fp, #-16]
50000fd8:	e51b3010 	ldr	r3, [fp, #-16]
50000fdc:	e353000f 	cmp	r3, #15	; 0xf
50000fe0:	9affffdc 	bls	50000f58 <led_on+0x1c>
50000fe4:	e3a03000 	mov	r3, #0	; 0x0
50000fe8:	e50b3010 	str	r3, [fp, #-16]
50000fec:	e24bd00c 	sub	sp, fp, #12	; 0xc
50000ff0:	e89da800 	ldmia	sp, {fp, sp, pc}

50000ff4 <led1_on>:
50000ff4:	e1a0c00d 	mov	ip, sp
50000ff8:	e92dd800 	stmdb	sp!, {fp, ip, lr, pc}
50000ffc:	e24cb004 	sub	fp, ip, #4	; 0x4
50001000:	ebffffb0 	bl	50000ec8 <led_init>
50001004:	e3a0347f 	mov	r3, #2130706432	; 0x7f000000
50001008:	e2833b22 	add	r3, r3, #34816	; 0x8800
5000100c:	e2833008 	add	r3, r3, #8	; 0x8
50001010:	e3a020e0 	mov	r2, #224	; 0xe0
50001014:	e5832000 	str	r2, [r3]
50001018:	e89da800 	ldmia	sp, {fp, sp, pc}

5000101c <led2_on>:
5000101c:	e1a0c00d 	mov	ip, sp
50001020:	e92dd800 	stmdb	sp!, {fp, ip, lr, pc}
50001024:	e24cb004 	sub	fp, ip, #4	; 0x4
50001028:	ebffffa6 	bl	50000ec8 <led_init>
5000102c:	e3a0347f 	mov	r3, #2130706432	; 0x7f000000
50001030:	e2833b22 	add	r3, r3, #34816	; 0x8800
50001034:	e2833008 	add	r3, r3, #8	; 0x8
50001038:	e3a020d0 	mov	r2, #208	; 0xd0
5000103c:	e5832000 	str	r2, [r3]
50001040:	e89da800 	ldmia	sp, {fp, sp, pc}

50001044 <led3_on>:
50001044:	e1a0c00d 	mov	ip, sp
50001048:	e92dd800 	stmdb	sp!, {fp, ip, lr, pc}
5000104c:	e24cb004 	sub	fp, ip, #4	; 0x4
50001050:	ebffff9c 	bl	50000ec8 <led_init>
50001054:	e3a0347f 	mov	r3, #2130706432	; 0x7f000000
50001058:	e2833b22 	add	r3, r3, #34816	; 0x8800
5000105c:	e2833008 	add	r3, r3, #8	; 0x8
50001060:	e3a020b0 	mov	r2, #176	; 0xb0
50001064:	e5832000 	str	r2, [r3]
50001068:	e89da800 	ldmia	sp, {fp, sp, pc}

5000106c <led4_on>:
5000106c:	e1a0c00d 	mov	ip, sp
50001070:	e92dd800 	stmdb	sp!, {fp, ip, lr, pc}
50001074:	e24cb004 	sub	fp, ip, #4	; 0x4
50001078:	ebffff92 	bl	50000ec8 <led_init>
5000107c:	e3a0347f 	mov	r3, #2130706432	; 0x7f000000
50001080:	e2833b22 	add	r3, r3, #34816	; 0x8800
50001084:	e2833008 	add	r3, r3, #8	; 0x8
50001088:	e3a02070 	mov	r2, #112	; 0x70
5000108c:	e5832000 	str	r2, [r3]
50001090:	e89da800 	ldmia	sp, {fp, sp, pc}

50001094 <delay>:
50001094:	e1a0c00d 	mov	ip, sp
50001098:	e92dd800 	stmdb	sp!, {fp, ip, lr, pc}
5000109c:	e24cb004 	sub	fp, ip, #4	; 0x4
500010a0:	e24dd004 	sub	sp, sp, #4	; 0x4
500010a4:	e50b0010 	str	r0, [fp, #-16]
500010a8:	e51b3010 	ldr	r3, [fp, #-16]
500010ac:	e2433001 	sub	r3, r3, #1	; 0x1
500010b0:	e50b3010 	str	r3, [fp, #-16]
500010b4:	e51b3010 	ldr	r3, [fp, #-16]
500010b8:	e3730001 	cmn	r3, #1	; 0x1
500010bc:	0a000000 	beq	500010c4 <delay+0x30>
500010c0:	eafffff8 	b	500010a8 <delay+0x14>
500010c4:	e89da808 	ldmia	sp, {r3, fp, sp, pc}
	...

500010d0 <__udivsi3>:
500010d0:	e2512001 	subs	r2, r1, #1	; 0x1
500010d4:	01a0f00e 	moveq	pc, lr
500010d8:	3a0000e5 	bcc	50001474 <Ldiv0>
500010dc:	e1500001 	cmp	r0, r1
500010e0:	9a000022 	bls	50001170 <__udivsi3+0xa0>
500010e4:	e1110002 	tst	r1, r2
500010e8:	0a000023 	beq	5000117c <__udivsi3+0xac>
500010ec:	e311020e 	tst	r1, #-536870912	; 0xe0000000
500010f0:	01a01181 	moveq	r1, r1, lsl #3
500010f4:	03a03008 	moveq	r3, #8	; 0x8
500010f8:	13a03001 	movne	r3, #1	; 0x1
500010fc:	e3510201 	cmp	r1, #268435456	; 0x10000000
50001100:	31510000 	cmpcc	r1, r0
50001104:	31a01201 	movcc	r1, r1, lsl #4
50001108:	31a03203 	movcc	r3, r3, lsl #4
5000110c:	3afffffa 	bcc	500010fc <__udivsi3+0x2c>
50001110:	e3510102 	cmp	r1, #-2147483648	; 0x80000000
50001114:	31510000 	cmpcc	r1, r0
50001118:	31a01081 	movcc	r1, r1, lsl #1
5000111c:	31a03083 	movcc	r3, r3, lsl #1
50001120:	3afffffa 	bcc	50001110 <__udivsi3+0x40>
50001124:	e3a02000 	mov	r2, #0	; 0x0
50001128:	e1500001 	cmp	r0, r1
5000112c:	20400001 	subcs	r0, r0, r1
50001130:	21822003 	orrcs	r2, r2, r3
50001134:	e15000a1 	cmp	r0, r1, lsr #1
50001138:	204000a1 	subcs	r0, r0, r1, lsr #1
5000113c:	218220a3 	orrcs	r2, r2, r3, lsr #1
50001140:	e1500121 	cmp	r0, r1, lsr #2
50001144:	20400121 	subcs	r0, r0, r1, lsr #2
50001148:	21822123 	orrcs	r2, r2, r3, lsr #2
5000114c:	e15001a1 	cmp	r0, r1, lsr #3
50001150:	204001a1 	subcs	r0, r0, r1, lsr #3
50001154:	218221a3 	orrcs	r2, r2, r3, lsr #3
50001158:	e3500000 	cmp	r0, #0	; 0x0
5000115c:	11b03223 	movnes	r3, r3, lsr #4
50001160:	11a01221 	movne	r1, r1, lsr #4
50001164:	1affffef 	bne	50001128 <__udivsi3+0x58>
50001168:	e1a00002 	mov	r0, r2
5000116c:	e1a0f00e 	mov	pc, lr
50001170:	03a00001 	moveq	r0, #1	; 0x1
50001174:	13a00000 	movne	r0, #0	; 0x0
50001178:	e1a0f00e 	mov	pc, lr
5000117c:	e3510801 	cmp	r1, #65536	; 0x10000
50001180:	21a01821 	movcs	r1, r1, lsr #16
50001184:	23a02010 	movcs	r2, #16	; 0x10
50001188:	33a02000 	movcc	r2, #0	; 0x0
5000118c:	e3510c01 	cmp	r1, #256	; 0x100
50001190:	21a01421 	movcs	r1, r1, lsr #8
50001194:	22822008 	addcs	r2, r2, #8	; 0x8
50001198:	e3510010 	cmp	r1, #16	; 0x10
5000119c:	21a01221 	movcs	r1, r1, lsr #4
500011a0:	22822004 	addcs	r2, r2, #4	; 0x4
500011a4:	e3510004 	cmp	r1, #4	; 0x4
500011a8:	82822003 	addhi	r2, r2, #3	; 0x3
500011ac:	908220a1 	addls	r2, r2, r1, lsr #1
500011b0:	e1a00230 	mov	r0, r0, lsr r2
500011b4:	e1a0f00e 	mov	pc, lr
500011b8:	90909090 	umulllss	r9, r0, r0, r0
500011bc:	90909090 	umulllss	r9, r0, r0, r0

500011c0 <__umodsi3>:
500011c0:	e2512001 	subs	r2, r1, #1	; 0x1
500011c4:	3a0000aa 	bcc	50001474 <Ldiv0>
500011c8:	11500001 	cmpne	r0, r1
500011cc:	03a00000 	moveq	r0, #0	; 0x0
500011d0:	81110002 	tsthi	r1, r2
500011d4:	00000002 	andeq	r0, r0, r2
500011d8:	91a0f00e 	movls	pc, lr
500011dc:	e3a02000 	mov	r2, #0	; 0x0
500011e0:	e3510201 	cmp	r1, #268435456	; 0x10000000
500011e4:	31510000 	cmpcc	r1, r0
500011e8:	31a01201 	movcc	r1, r1, lsl #4
500011ec:	32822004 	addcc	r2, r2, #4	; 0x4
500011f0:	3afffffa 	bcc	500011e0 <__umodsi3+0x20>
500011f4:	e3510102 	cmp	r1, #-2147483648	; 0x80000000
500011f8:	31510000 	cmpcc	r1, r0
500011fc:	31a01081 	movcc	r1, r1, lsl #1
50001200:	32822001 	addcc	r2, r2, #1	; 0x1
50001204:	3afffffa 	bcc	500011f4 <__umodsi3+0x34>
50001208:	e2522003 	subs	r2, r2, #3	; 0x3
5000120c:	ba00000e 	blt	5000124c <__umodsi3+0x8c>
50001210:	e1500001 	cmp	r0, r1
50001214:	20400001 	subcs	r0, r0, r1
50001218:	e15000a1 	cmp	r0, r1, lsr #1
5000121c:	204000a1 	subcs	r0, r0, r1, lsr #1
50001220:	e1500121 	cmp	r0, r1, lsr #2
50001224:	20400121 	subcs	r0, r0, r1, lsr #2
50001228:	e15001a1 	cmp	r0, r1, lsr #3
5000122c:	204001a1 	subcs	r0, r0, r1, lsr #3
50001230:	e3500001 	cmp	r0, #1	; 0x1
50001234:	e1a01221 	mov	r1, r1, lsr #4
50001238:	a2522004 	subges	r2, r2, #4	; 0x4
5000123c:	aafffff3 	bge	50001210 <__umodsi3+0x50>
50001240:	e3120003 	tst	r2, #3	; 0x3
50001244:	13300000 	teqne	r0, #0	; 0x0
50001248:	0a00000a 	beq	50001278 <__umodsi3+0xb8>
5000124c:	e3720002 	cmn	r2, #2	; 0x2
50001250:	ba000006 	blt	50001270 <__umodsi3+0xb0>
50001254:	0a000002 	beq	50001264 <__umodsi3+0xa4>
50001258:	e1500001 	cmp	r0, r1
5000125c:	20400001 	subcs	r0, r0, r1
50001260:	e1a010a1 	mov	r1, r1, lsr #1
50001264:	e1500001 	cmp	r0, r1
50001268:	20400001 	subcs	r0, r0, r1
5000126c:	e1a010a1 	mov	r1, r1, lsr #1
50001270:	e1500001 	cmp	r0, r1
50001274:	20400001 	subcs	r0, r0, r1
50001278:	e1a0f00e 	mov	pc, lr
5000127c:	90909090 	umulllss	r9, r0, r0, r0

50001280 <__divsi3>:
50001280:	e3510000 	cmp	r1, #0	; 0x0
50001284:	e020c001 	eor	ip, r0, r1
50001288:	0a000079 	beq	50001474 <Ldiv0>
5000128c:	42611000 	rsbmi	r1, r1, #0	; 0x0
50001290:	e2512001 	subs	r2, r1, #1	; 0x1
50001294:	0a000027 	beq	50001338 <__divsi3+0xb8>
50001298:	e1b03000 	movs	r3, r0
5000129c:	42603000 	rsbmi	r3, r0, #0	; 0x0
500012a0:	e1530001 	cmp	r3, r1
500012a4:	9a000026 	bls	50001344 <__divsi3+0xc4>
500012a8:	e1110002 	tst	r1, r2
500012ac:	0a000028 	beq	50001354 <__divsi3+0xd4>
500012b0:	e311020e 	tst	r1, #-536870912	; 0xe0000000
500012b4:	01a01181 	moveq	r1, r1, lsl #3
500012b8:	03a02008 	moveq	r2, #8	; 0x8
500012bc:	13a02001 	movne	r2, #1	; 0x1
500012c0:	e3510201 	cmp	r1, #268435456	; 0x10000000
500012c4:	31510003 	cmpcc	r1, r3
500012c8:	31a01201 	movcc	r1, r1, lsl #4
500012cc:	31a02202 	movcc	r2, r2, lsl #4
500012d0:	3afffffa 	bcc	500012c0 <__divsi3+0x40>
500012d4:	e3510102 	cmp	r1, #-2147483648	; 0x80000000
500012d8:	31510003 	cmpcc	r1, r3
500012dc:	31a01081 	movcc	r1, r1, lsl #1
500012e0:	31a02082 	movcc	r2, r2, lsl #1
500012e4:	3afffffa 	bcc	500012d4 <__divsi3+0x54>
500012e8:	e3a00000 	mov	r0, #0	; 0x0
500012ec:	e1530001 	cmp	r3, r1
500012f0:	20433001 	subcs	r3, r3, r1
500012f4:	21800002 	orrcs	r0, r0, r2
500012f8:	e15300a1 	cmp	r3, r1, lsr #1
500012fc:	204330a1 	subcs	r3, r3, r1, lsr #1
50001300:	218000a2 	orrcs	r0, r0, r2, lsr #1
50001304:	e1530121 	cmp	r3, r1, lsr #2
50001308:	20433121 	subcs	r3, r3, r1, lsr #2
5000130c:	21800122 	orrcs	r0, r0, r2, lsr #2
50001310:	e15301a1 	cmp	r3, r1, lsr #3
50001314:	204331a1 	subcs	r3, r3, r1, lsr #3
50001318:	218001a2 	orrcs	r0, r0, r2, lsr #3
5000131c:	e3530000 	cmp	r3, #0	; 0x0
50001320:	11b02222 	movnes	r2, r2, lsr #4
50001324:	11a01221 	movne	r1, r1, lsr #4
50001328:	1affffef 	bne	500012ec <__divsi3+0x6c>
5000132c:	e35c0000 	cmp	ip, #0	; 0x0
50001330:	42600000 	rsbmi	r0, r0, #0	; 0x0
50001334:	e1a0f00e 	mov	pc, lr
50001338:	e13c0000 	teq	ip, r0
5000133c:	42600000 	rsbmi	r0, r0, #0	; 0x0
50001340:	e1a0f00e 	mov	pc, lr
50001344:	33a00000 	movcc	r0, #0	; 0x0
50001348:	01a00fcc 	moveq	r0, ip, asr #31
5000134c:	03800001 	orreq	r0, r0, #1	; 0x1
50001350:	e1a0f00e 	mov	pc, lr
50001354:	e3510801 	cmp	r1, #65536	; 0x10000
50001358:	21a01821 	movcs	r1, r1, lsr #16
5000135c:	23a02010 	movcs	r2, #16	; 0x10
50001360:	33a02000 	movcc	r2, #0	; 0x0
50001364:	e3510c01 	cmp	r1, #256	; 0x100
50001368:	21a01421 	movcs	r1, r1, lsr #8
5000136c:	22822008 	addcs	r2, r2, #8	; 0x8
50001370:	e3510010 	cmp	r1, #16	; 0x10
50001374:	21a01221 	movcs	r1, r1, lsr #4
50001378:	22822004 	addcs	r2, r2, #4	; 0x4
5000137c:	e3510004 	cmp	r1, #4	; 0x4
50001380:	82822003 	addhi	r2, r2, #3	; 0x3
50001384:	908220a1 	addls	r2, r2, r1, lsr #1
50001388:	e35c0000 	cmp	ip, #0	; 0x0
5000138c:	e1a00233 	mov	r0, r3, lsr r2
50001390:	42600000 	rsbmi	r0, r0, #0	; 0x0
50001394:	e1a0f00e 	mov	pc, lr
50001398:	90909090 	umulllss	r9, r0, r0, r0
5000139c:	90909090 	umulllss	r9, r0, r0, r0

500013a0 <__modsi3>:
500013a0:	e3510000 	cmp	r1, #0	; 0x0
500013a4:	0a000032 	beq	50001474 <Ldiv0>
500013a8:	42611000 	rsbmi	r1, r1, #0	; 0x0
500013ac:	e1b0c000 	movs	ip, r0
500013b0:	42600000 	rsbmi	r0, r0, #0	; 0x0
500013b4:	e2512001 	subs	r2, r1, #1	; 0x1
500013b8:	11500001 	cmpne	r0, r1
500013bc:	03a00000 	moveq	r0, #0	; 0x0
500013c0:	81110002 	tsthi	r1, r2
500013c4:	00000002 	andeq	r0, r0, r2
500013c8:	9a000026 	bls	50001468 <__modsi3+0xc8>
500013cc:	e3a02000 	mov	r2, #0	; 0x0
500013d0:	e3510201 	cmp	r1, #268435456	; 0x10000000
500013d4:	31510000 	cmpcc	r1, r0
500013d8:	31a01201 	movcc	r1, r1, lsl #4
500013dc:	32822004 	addcc	r2, r2, #4	; 0x4
500013e0:	3afffffa 	bcc	500013d0 <__modsi3+0x30>
500013e4:	e3510102 	cmp	r1, #-2147483648	; 0x80000000
500013e8:	31510000 	cmpcc	r1, r0
500013ec:	31a01081 	movcc	r1, r1, lsl #1
500013f0:	32822001 	addcc	r2, r2, #1	; 0x1
500013f4:	3afffffa 	bcc	500013e4 <__modsi3+0x44>
500013f8:	e2522003 	subs	r2, r2, #3	; 0x3
500013fc:	ba00000e 	blt	5000143c <__modsi3+0x9c>
50001400:	e1500001 	cmp	r0, r1
50001404:	20400001 	subcs	r0, r0, r1
50001408:	e15000a1 	cmp	r0, r1, lsr #1
5000140c:	204000a1 	subcs	r0, r0, r1, lsr #1
50001410:	e1500121 	cmp	r0, r1, lsr #2
50001414:	20400121 	subcs	r0, r0, r1, lsr #2
50001418:	e15001a1 	cmp	r0, r1, lsr #3
5000141c:	204001a1 	subcs	r0, r0, r1, lsr #3
50001420:	e3500001 	cmp	r0, #1	; 0x1
50001424:	e1a01221 	mov	r1, r1, lsr #4
50001428:	a2522004 	subges	r2, r2, #4	; 0x4
5000142c:	aafffff3 	bge	50001400 <__modsi3+0x60>
50001430:	e3120003 	tst	r2, #3	; 0x3
50001434:	13300000 	teqne	r0, #0	; 0x0
50001438:	0a00000a 	beq	50001468 <__modsi3+0xc8>
5000143c:	e3720002 	cmn	r2, #2	; 0x2
50001440:	ba000006 	blt	50001460 <__modsi3+0xc0>
50001444:	0a000002 	beq	50001454 <__modsi3+0xb4>
50001448:	e1500001 	cmp	r0, r1
5000144c:	20400001 	subcs	r0, r0, r1
50001450:	e1a010a1 	mov	r1, r1, lsr #1
50001454:	e1500001 	cmp	r0, r1
50001458:	20400001 	subcs	r0, r0, r1
5000145c:	e1a010a1 	mov	r1, r1, lsr #1
50001460:	e1500001 	cmp	r0, r1
50001464:	20400001 	subcs	r0, r0, r1
50001468:	e35c0000 	cmp	ip, #0	; 0x0
5000146c:	42600000 	rsbmi	r0, r0, #0	; 0x0
50001470:	e1a0f00e 	mov	pc, lr

50001474 <Ldiv0>:
50001474:	e52de004 	str	lr, [sp, #-4]!
50001478:	e3a00000 	mov	r0, #0	; 0x0
5000147c:	e49df004 	ldr	pc, [sp], #4
Disassembly of section .rodata:

50001480 <.rodata>:
50001480:	65637845 	strvsb	r7, [r3, #-2117]!
50001484:	6f697470 	swivs	0x00697470
50001488:	6320216e 	teqvs	r0, #-2147483621	; 0x8000001b
5000148c:	20727370 	rsbcss	r7, r2, r0, ror r3
50001490:	0000203d 	andeq	r2, r0, sp, lsr r0
50001494:	00000020 	andeq	r0, r0, r0, lsr #32
50001498:	00000d0a 	andeq	r0, r0, sl, lsl #26
5000149c:	00007830 	andeq	r7, r0, r0, lsr r8
500014a0:	5f495753 	swipl	0x00495753
500014a4:	3d6c6176 	stfcce	f6, [ip, #-472]!
500014a8:	00000000 	andeq	r0, r0, r0
500014ac:	00000d0a 	andeq	r0, r0, sl, lsl #26
Disassembly of section .bss:

500014b0 <irq_array>:
	...
Disassembly of section .comment:

00000000 <.comment>:
   0:	43434700 	cmpmi	r3, #0	; 0x0
   4:	4728203a 	undefined
   8:	2029554e 	eorcs	r5, r9, lr, asr #10
   c:	2e342e33 	mrccs	14, 1, r2, cr4, cr3, {1}
  10:	47000035 	smladxmi	r0, r5, r0, r0
  14:	203a4343 	eorcss	r4, sl, r3, asr #6
  18:	554e4728 	strplb	r4, [lr, #-1832]
  1c:	2e332029 	cdpcs	0, 3, cr2, cr3, cr9, {1}
  20:	00352e34 	eoreqs	r2, r5, r4, lsr lr
  24:	43434700 	cmpmi	r3, #0	; 0x0
  28:	4728203a 	undefined
  2c:	2029554e 	eorcs	r5, r9, lr, asr #10
  30:	2e342e33 	mrccs	14, 1, r2, cr4, cr3, {1}
  34:	47000035 	smladxmi	r0, r5, r0, r0
  38:	203a4343 	eorcss	r4, sl, r3, asr #6
  3c:	554e4728 	strplb	r4, [lr, #-1832]
  40:	2e332029 	cdpcs	0, 3, cr2, cr3, cr9, {1}
  44:	00352e34 	eoreqs	r2, r5, r4, lsr lr
  48:	43434700 	cmpmi	r3, #0	; 0x0
  4c:	4728203a 	undefined
  50:	2029554e 	eorcs	r5, r9, lr, asr #10
  54:	2e342e33 	mrccs	14, 1, r2, cr4, cr3, {1}
  58:	47000035 	smladxmi	r0, r5, r0, r0
  5c:	203a4343 	eorcss	r4, sl, r3, asr #6
  60:	554e4728 	strplb	r4, [lr, #-1832]
  64:	2e332029 	cdpcs	0, 3, cr2, cr3, cr9, {1}
  68:	00352e34 	eoreqs	r2, r5, r4, lsr lr
