
main.elf:     file format elf32-littlearm

Disassembly of section .text:

50000000 <_start>:
50000000:	e3a00207 	mov	r0, #1879048192	; 0x70000000
50000004:	e3800013 	orr	r0, r0, #19	; 0x13
50000008:	ee0f0f92 	mcr	15, 0, r0, cr15, cr2, {4}
5000000c:	e59f00a0 	ldr	r0, [pc, #160]	; 500000b4 <.text+0xb4>
50000010:	e3a01000 	mov	r1, #0	; 0x0
50000014:	e5801000 	str	r1, [r0]
50000018:	e3a01000 	mov	r1, #0	; 0x0
5000001c:	e5910000 	ldr	r0, [r1]
50000020:	e5811000 	str	r1, [r1]
50000024:	e5912000 	ldr	r2, [r1]
50000028:	e1510002 	cmp	r1, r2
5000002c:	e59fd084 	ldr	sp, [pc, #132]	; 500000b8 <.text+0xb8>
50000030:	03a0da01 	moveq	sp, #4096	; 0x1000
50000034:	05810000 	streq	r0, [r1]
50000038:	e59f007c 	ldr	r0, [pc, #124]	; 500000bc <.text+0xbc>
5000003c:	e59f107c 	ldr	r1, [pc, #124]	; 500000c0 <.text+0xc0>
50000040:	e5801000 	str	r1, [r0]
50000044:	e5801004 	str	r1, [r0, #4]
50000048:	e5801008 	str	r1, [r0, #8]
5000004c:	e59f0070 	ldr	r0, [pc, #112]	; 500000c4 <.text+0xc4>
50000050:	e5901000 	ldr	r1, [r0]
50000054:	e3c110c0 	bic	r1, r1, #192	; 0xc0
50000058:	e5801000 	str	r1, [r0]

5000005c <loop>:
5000005c:	e59f0060 	ldr	r0, [pc, #96]	; 500000c4 <.text+0xc4>
50000060:	e5901000 	ldr	r1, [r0]
50000064:	e2011c0f 	and	r1, r1, #3840	; 0xf00
50000068:	e3510000 	cmp	r1, #0	; 0x0
5000006c:	1afffffa 	bne	5000005c <loop>
50000070:	e59f0050 	ldr	r0, [pc, #80]	; 500000c8 <.text+0xc8>
50000074:	e3a01c33 	mov	r1, #13056	; 0x3300
50000078:	e5801000 	str	r1, [r0]
5000007c:	e59f0048 	ldr	r0, [pc, #72]	; 500000cc <.text+0xcc>
50000080:	e59f1048 	ldr	r1, [pc, #72]	; 500000d0 <.text+0xd0>
50000084:	e5801000 	str	r1, [r0]
50000088:	e59f0044 	ldr	r0, [pc, #68]	; 500000d4 <.text+0xd4>
5000008c:	e59f103c 	ldr	r1, [pc, #60]	; 500000d0 <.text+0xd0>
50000090:	e5801000 	str	r1, [r0]
50000094:	e59f003c 	ldr	r0, [pc, #60]	; 500000d8 <.text+0xd8>
50000098:	e3a01003 	mov	r1, #3	; 0x3
5000009c:	e5801000 	str	r1, [r0]
500000a0:	eb00000e 	bl	500000e0 <sdram_init>
500000a4:	eb000126 	bl	50000544 <copy2sdram>
500000a8:	eb000143 	bl	500005bc <clean_bss>
500000ac:	e59ff028 	ldr	pc, [pc, #40]	; 500000dc <.text+0xdc>

500000b0 <halt>:
500000b0:	eafffffe 	b	500000b0 <halt>
500000b4:	7e004000 	cdpvc	0, 0, cr4, cr0, cr0, {0}
500000b8:	40001000 	andmi	r1, r0, r0
500000bc:	7e00f000 	cdpvc	0, 0, cr15, cr0, cr0, {0}
500000c0:	0000ffff 	streqd	pc, [r0], -pc
500000c4:	7e00f900 	cdpvc	9, 0, cr15, cr0, cr0, {0}
500000c8:	7e00f020 	cdpvc	0, 0, cr15, cr0, cr0, {1}
500000cc:	7e00f00c 	cdpvc	0, 0, cr15, cr0, cr12, {0}
500000d0:	810a0301 	tsthi	sl, r1, lsl #6
500000d4:	7e00f010 	mcrvc	0, 0, pc, cr0, cr0, {0}
500000d8:	7e00f01c 	mcrvc	0, 0, pc, cr0, cr12, {0}
500000dc:	5000061c 	andpl	r0, r0, ip, lsl r6

500000e0 <sdram_init>:
500000e0:	e1a0c00d 	mov	ip, sp
500000e4:	e92dd800 	stmdb	sp!, {fp, ip, lr, pc}
500000e8:	e24cb004 	sub	fp, ip, #4	; 0x4
500000ec:	e3a0347e 	mov	r3, #2113929216	; 0x7e000000
500000f0:	e2833a01 	add	r3, r3, #4096	; 0x1000
500000f4:	e2833004 	add	r3, r3, #4	; 0x4
500000f8:	e3a02004 	mov	r2, #4	; 0x4
500000fc:	e5832000 	str	r2, [r3]
50000100:	e3a0247e 	mov	r2, #2113929216	; 0x7e000000
50000104:	e2822a01 	add	r2, r2, #4096	; 0x1000
50000108:	e2822010 	add	r2, r2, #16	; 0x10
5000010c:	e3a03e45 	mov	r3, #1104	; 0x450
50000110:	e283300b 	add	r3, r3, #11	; 0xb
50000114:	e5823000 	str	r3, [r2]
50000118:	e3a0247e 	mov	r2, #2113929216	; 0x7e000000
5000011c:	e2822a01 	add	r2, r2, #4096	; 0x1000
50000120:	e2822014 	add	r2, r2, #20	; 0x14
50000124:	e3a0347e 	mov	r3, #2113929216	; 0x7e000000
50000128:	e2833a01 	add	r3, r3, #4096	; 0x1000
5000012c:	e2833014 	add	r3, r3, #20	; 0x14
50000130:	e5933000 	ldr	r3, [r3]
50000134:	e3833006 	orr	r3, r3, #6	; 0x6
50000138:	e5823000 	str	r3, [r2]
5000013c:	e3a0347e 	mov	r3, #2113929216	; 0x7e000000
50000140:	e2833a01 	add	r3, r3, #4096	; 0x1000
50000144:	e2833018 	add	r3, r3, #24	; 0x18
50000148:	e3a02001 	mov	r2, #1	; 0x1
5000014c:	e5832000 	str	r2, [r3]
50000150:	e3a0347e 	mov	r3, #2113929216	; 0x7e000000
50000154:	e2833a01 	add	r3, r3, #4096	; 0x1000
50000158:	e283301c 	add	r3, r3, #28	; 0x1c
5000015c:	e3a02002 	mov	r2, #2	; 0x2
50000160:	e5832000 	str	r2, [r3]
50000164:	e3a0347e 	mov	r3, #2113929216	; 0x7e000000
50000168:	e2833a01 	add	r3, r3, #4096	; 0x1000
5000016c:	e2833020 	add	r3, r3, #32	; 0x20
50000170:	e3a02007 	mov	r2, #7	; 0x7
50000174:	e5832000 	str	r2, [r3]
50000178:	e3a0347e 	mov	r3, #2113929216	; 0x7e000000
5000017c:	e2833a01 	add	r3, r3, #4096	; 0x1000
50000180:	e2833024 	add	r3, r3, #36	; 0x24
50000184:	e3a02009 	mov	r2, #9	; 0x9
50000188:	e5832000 	str	r2, [r3]
5000018c:	e3a0347e 	mov	r3, #2113929216	; 0x7e000000
50000190:	e2833a01 	add	r3, r3, #4096	; 0x1000
50000194:	e2833028 	add	r3, r3, #40	; 0x28
50000198:	e3a02003 	mov	r2, #3	; 0x3
5000019c:	e5832000 	str	r2, [r3]
500001a0:	e3a0247e 	mov	r2, #2113929216	; 0x7e000000
500001a4:	e2822a01 	add	r2, r2, #4096	; 0x1000
500001a8:	e282202c 	add	r2, r2, #44	; 0x2c
500001ac:	e3a03f42 	mov	r3, #264	; 0x108
500001b0:	e2833003 	add	r3, r3, #3	; 0x3
500001b4:	e5823000 	str	r3, [r2]
500001b8:	e3a0347e 	mov	r3, #2113929216	; 0x7e000000
500001bc:	e2833a01 	add	r3, r3, #4096	; 0x1000
500001c0:	e2833030 	add	r3, r3, #48	; 0x30
500001c4:	e3a02003 	mov	r2, #3	; 0x3
500001c8:	e5832000 	str	r2, [r3]
500001cc:	e3a0347e 	mov	r3, #2113929216	; 0x7e000000
500001d0:	e2833a01 	add	r3, r3, #4096	; 0x1000
500001d4:	e2833034 	add	r3, r3, #52	; 0x34
500001d8:	e3a02002 	mov	r2, #2	; 0x2
500001dc:	e5832000 	str	r2, [r3]
500001e0:	e3a0347e 	mov	r3, #2113929216	; 0x7e000000
500001e4:	e2833a01 	add	r3, r3, #4096	; 0x1000
500001e8:	e2833038 	add	r3, r3, #56	; 0x38
500001ec:	e3a02002 	mov	r2, #2	; 0x2
500001f0:	e5832000 	str	r2, [r3]
500001f4:	e3a0347e 	mov	r3, #2113929216	; 0x7e000000
500001f8:	e2833a01 	add	r3, r3, #4096	; 0x1000
500001fc:	e283303c 	add	r3, r3, #60	; 0x3c
50000200:	e3a02001 	mov	r2, #1	; 0x1
50000204:	e5832000 	str	r2, [r3]
50000208:	e3a0347e 	mov	r3, #2113929216	; 0x7e000000
5000020c:	e2833d41 	add	r3, r3, #4160	; 0x1040
50000210:	e3a02001 	mov	r2, #1	; 0x1
50000214:	e5832000 	str	r2, [r3]
50000218:	e3a0347e 	mov	r3, #2113929216	; 0x7e000000
5000021c:	e2833d41 	add	r3, r3, #4160	; 0x1040
50000220:	e2833004 	add	r3, r3, #4	; 0x4
50000224:	e3a02012 	mov	r2, #18	; 0x12
50000228:	e5832000 	str	r2, [r3]
5000022c:	e3a0347e 	mov	r3, #2113929216	; 0x7e000000
50000230:	e2833d41 	add	r3, r3, #4160	; 0x1040
50000234:	e2833008 	add	r3, r3, #8	; 0x8
50000238:	e3a02012 	mov	r2, #18	; 0x12
5000023c:	e5832000 	str	r2, [r3]
50000240:	e3a0247e 	mov	r2, #2113929216	; 0x7e000000
50000244:	e2822a01 	add	r2, r2, #4096	; 0x1000
50000248:	e282200c 	add	r2, r2, #12	; 0xc
5000024c:	e3a0347e 	mov	r3, #2113929216	; 0x7e000000
50000250:	e2833a01 	add	r3, r3, #4096	; 0x1000
50000254:	e283300c 	add	r3, r3, #12	; 0xc
50000258:	e5933000 	ldr	r3, [r3]
5000025c:	e3833002 	orr	r3, r3, #2	; 0x2
50000260:	e5823000 	str	r3, [r2]
50000264:	e3a0247e 	mov	r2, #2113929216	; 0x7e000000
50000268:	e2822a01 	add	r2, r2, #4096	; 0x1000
5000026c:	e282200c 	add	r2, r2, #12	; 0xc
50000270:	e3a0347e 	mov	r3, #2113929216	; 0x7e000000
50000274:	e2833a01 	add	r3, r3, #4096	; 0x1000
50000278:	e283300c 	add	r3, r3, #12	; 0xc
5000027c:	e5933000 	ldr	r3, [r3]
50000280:	e3833018 	orr	r3, r3, #24	; 0x18
50000284:	e5823000 	str	r3, [r2]
50000288:	e3a0247e 	mov	r2, #2113929216	; 0x7e000000
5000028c:	e2822a01 	add	r2, r2, #4096	; 0x1000
50000290:	e282200c 	add	r2, r2, #12	; 0xc
50000294:	e3a0347e 	mov	r3, #2113929216	; 0x7e000000
50000298:	e2833a01 	add	r3, r3, #4096	; 0x1000
5000029c:	e283300c 	add	r3, r3, #12	; 0xc
500002a0:	e5933000 	ldr	r3, [r3]
500002a4:	e5823000 	str	r3, [r2]
500002a8:	e3a0247e 	mov	r2, #2113929216	; 0x7e000000
500002ac:	e2822a01 	add	r2, r2, #4096	; 0x1000
500002b0:	e282200c 	add	r2, r2, #12	; 0xc
500002b4:	e3a0347e 	mov	r3, #2113929216	; 0x7e000000
500002b8:	e2833a01 	add	r3, r3, #4096	; 0x1000
500002bc:	e283300c 	add	r3, r3, #12	; 0xc
500002c0:	e5933000 	ldr	r3, [r3]
500002c4:	e3c3390e 	bic	r3, r3, #229376	; 0x38000
500002c8:	e5823000 	str	r3, [r2]
500002cc:	e3a0247e 	mov	r2, #2113929216	; 0x7e000000
500002d0:	e2822a01 	add	r2, r2, #4096	; 0x1000
500002d4:	e282200c 	add	r2, r2, #12	; 0xc
500002d8:	e3a0347e 	mov	r3, #2113929216	; 0x7e000000
500002dc:	e2833a01 	add	r3, r3, #4096	; 0x1000
500002e0:	e283300c 	add	r3, r3, #12	; 0xc
500002e4:	e5933000 	ldr	r3, [r3]
500002e8:	e3833801 	orr	r3, r3, #65536	; 0x10000
500002ec:	e5823000 	str	r3, [r2]
500002f0:	e3a0247e 	mov	r2, #2113929216	; 0x7e000000
500002f4:	e2822d41 	add	r2, r2, #4160	; 0x1040
500002f8:	e282200c 	add	r2, r2, #12	; 0xc
500002fc:	e3a0347e 	mov	r3, #2113929216	; 0x7e000000
50000300:	e2833d41 	add	r3, r3, #4160	; 0x1040
50000304:	e283300c 	add	r3, r3, #12	; 0xc
50000308:	e5933000 	ldr	r3, [r3]
5000030c:	e3833040 	orr	r3, r3, #64	; 0x40
50000310:	e5823000 	str	r3, [r2]
50000314:	e3a0247e 	mov	r2, #2113929216	; 0x7e000000
50000318:	e2822d41 	add	r2, r2, #4160	; 0x1040
5000031c:	e282200c 	add	r2, r2, #12	; 0xc
50000320:	e3a0347e 	mov	r3, #2113929216	; 0x7e000000
50000324:	e2833d41 	add	r3, r3, #4160	; 0x1040
50000328:	e283300c 	add	r3, r3, #12	; 0xc
5000032c:	e5933000 	ldr	r3, [r3]
50000330:	e3c33c07 	bic	r3, r3, #1792	; 0x700
50000334:	e5823000 	str	r3, [r2]
50000338:	e3a0247e 	mov	r2, #2113929216	; 0x7e000000
5000033c:	e2822d41 	add	r2, r2, #4160	; 0x1040
50000340:	e282200c 	add	r2, r2, #12	; 0xc
50000344:	e3a0347e 	mov	r3, #2113929216	; 0x7e000000
50000348:	e2833d41 	add	r3, r3, #4160	; 0x1040
5000034c:	e283300c 	add	r3, r3, #12	; 0xc
50000350:	e5933000 	ldr	r3, [r3]
50000354:	e3833c03 	orr	r3, r3, #768	; 0x300
50000358:	e5823000 	str	r3, [r2]
5000035c:	e3a0247e 	mov	r2, #2113929216	; 0x7e000000
50000360:	e2822d41 	add	r2, r2, #4160	; 0x1040
50000364:	e282200c 	add	r2, r2, #12	; 0xc
50000368:	e3a0347e 	mov	r3, #2113929216	; 0x7e000000
5000036c:	e2833d41 	add	r3, r3, #4160	; 0x1040
50000370:	e283300c 	add	r3, r3, #12	; 0xc
50000374:	e5933000 	ldr	r3, [r3]
50000378:	e3c33b06 	bic	r3, r3, #6144	; 0x1800
5000037c:	e5823000 	str	r3, [r2]
50000380:	e3a0247e 	mov	r2, #2113929216	; 0x7e000000
50000384:	e2822d41 	add	r2, r2, #4160	; 0x1040
50000388:	e282200c 	add	r2, r2, #12	; 0xc
5000038c:	e3a0347e 	mov	r3, #2113929216	; 0x7e000000
50000390:	e2833d41 	add	r3, r3, #4160	; 0x1040
50000394:	e283300c 	add	r3, r3, #12	; 0xc
50000398:	e5933000 	ldr	r3, [r3]
5000039c:	e3833b02 	orr	r3, r3, #2048	; 0x800
500003a0:	e5823000 	str	r3, [r2]
500003a4:	e3a0247e 	mov	r2, #2113929216	; 0x7e000000
500003a8:	e2822c12 	add	r2, r2, #4608	; 0x1200
500003ac:	e3a0347e 	mov	r3, #2113929216	; 0x7e000000
500003b0:	e2833c12 	add	r3, r3, #4608	; 0x1200
500003b4:	e5933000 	ldr	r3, [r3]
500003b8:	e3833801 	orr	r3, r3, #65536	; 0x10000
500003bc:	e5823000 	str	r3, [r2]
500003c0:	e3a0347e 	mov	r3, #2113929216	; 0x7e000000
500003c4:	e2833a01 	add	r3, r3, #4096	; 0x1000
500003c8:	e2833008 	add	r3, r3, #8	; 0x8
500003cc:	e3a02703 	mov	r2, #786432	; 0xc0000
500003d0:	e5832000 	str	r2, [r3]
500003d4:	e3a0347e 	mov	r3, #2113929216	; 0x7e000000
500003d8:	e2833a01 	add	r3, r3, #4096	; 0x1000
500003dc:	e2833008 	add	r3, r3, #8	; 0x8
500003e0:	e3a02000 	mov	r2, #0	; 0x0
500003e4:	e5832000 	str	r2, [r3]
500003e8:	e3a0347e 	mov	r3, #2113929216	; 0x7e000000
500003ec:	e2833a01 	add	r3, r3, #4096	; 0x1000
500003f0:	e2833008 	add	r3, r3, #8	; 0x8
500003f4:	e3a02701 	mov	r2, #262144	; 0x40000
500003f8:	e5832000 	str	r2, [r3]
500003fc:	e3a0347e 	mov	r3, #2113929216	; 0x7e000000
50000400:	e2833a01 	add	r3, r3, #4096	; 0x1000
50000404:	e2833008 	add	r3, r3, #8	; 0x8
50000408:	e3a02701 	mov	r2, #262144	; 0x40000
5000040c:	e5832000 	str	r2, [r3]
50000410:	e3a0347e 	mov	r3, #2113929216	; 0x7e000000
50000414:	e2833a01 	add	r3, r3, #4096	; 0x1000
50000418:	e2833008 	add	r3, r3, #8	; 0x8
5000041c:	e3a0280a 	mov	r2, #655360	; 0xa0000
50000420:	e5832000 	str	r2, [r3]
50000424:	e3a0247e 	mov	r2, #2113929216	; 0x7e000000
50000428:	e2822a01 	add	r2, r2, #4096	; 0x1000
5000042c:	e2822008 	add	r2, r2, #8	; 0x8
50000430:	e3a03702 	mov	r3, #524288	; 0x80000
50000434:	e2833032 	add	r3, r3, #50	; 0x32
50000438:	e5823000 	str	r3, [r2]
5000043c:	e3a0347e 	mov	r3, #2113929216	; 0x7e000000
50000440:	e2833cf1 	add	r3, r3, #61696	; 0xf100
50000444:	e2833020 	add	r3, r3, #32	; 0x20
50000448:	e3a02000 	mov	r2, #0	; 0x0
5000044c:	e5832000 	str	r2, [r3]
50000450:	e3a0347e 	mov	r3, #2113929216	; 0x7e000000
50000454:	e2833a01 	add	r3, r3, #4096	; 0x1000
50000458:	e2833004 	add	r3, r3, #4	; 0x4
5000045c:	e3a02000 	mov	r2, #0	; 0x0
50000460:	e5832000 	str	r2, [r3]
50000464:	e3a0347e 	mov	r3, #2113929216	; 0x7e000000
50000468:	e2833a01 	add	r3, r3, #4096	; 0x1000
5000046c:	e5933000 	ldr	r3, [r3]
50000470:	e2033003 	and	r3, r3, #3	; 0x3
50000474:	e3530001 	cmp	r3, #1	; 0x1
50000478:	0a000000 	beq	50000480 <sdram_init+0x3a0>
5000047c:	eafffff8 	b	50000464 <sdram_init+0x384>
50000480:	e89da800 	ldmia	sp, {fp, sp, pc}

50000484 <sdram_test>:
50000484:	e1a0c00d 	mov	ip, sp
50000488:	e92dd800 	stmdb	sp!, {fp, ip, lr, pc}
5000048c:	e24cb004 	sub	fp, ip, #4	; 0x4
50000490:	e24dd00c 	sub	sp, sp, #12	; 0xc
50000494:	e3a03205 	mov	r3, #1342177280	; 0x50000000
50000498:	e50b3010 	str	r3, [fp, #-16]
5000049c:	e3a03000 	mov	r3, #0	; 0x0
500004a0:	e50b3014 	str	r3, [fp, #-20]
500004a4:	e51b2014 	ldr	r2, [fp, #-20]
500004a8:	e3a03c27 	mov	r3, #9984	; 0x2700
500004ac:	e283300f 	add	r3, r3, #15	; 0xf
500004b0:	e1520003 	cmp	r2, r3
500004b4:	ca000008 	bgt	500004dc <sdram_test+0x58>
500004b8:	e51b2010 	ldr	r2, [fp, #-16]
500004bc:	e51b3014 	ldr	r3, [fp, #-20]
500004c0:	e0822003 	add	r2, r2, r3
500004c4:	e3a03055 	mov	r3, #85	; 0x55
500004c8:	e5c23000 	strb	r3, [r2]
500004cc:	e51b3014 	ldr	r3, [fp, #-20]
500004d0:	e2833001 	add	r3, r3, #1	; 0x1
500004d4:	e50b3014 	str	r3, [fp, #-20]
500004d8:	eafffff1 	b	500004a4 <sdram_test+0x20>
500004dc:	e3a03000 	mov	r3, #0	; 0x0
500004e0:	e50b3014 	str	r3, [fp, #-20]
500004e4:	e51b2014 	ldr	r2, [fp, #-20]
500004e8:	e3a03c27 	mov	r3, #9984	; 0x2700
500004ec:	e283300f 	add	r3, r3, #15	; 0xf
500004f0:	e1520003 	cmp	r2, r3
500004f4:	ca00000d 	bgt	50000530 <sdram_test+0xac>
500004f8:	e51b2010 	ldr	r2, [fp, #-16]
500004fc:	e51b3014 	ldr	r3, [fp, #-20]
50000500:	e0823003 	add	r3, r2, r3
50000504:	e5d33000 	ldrb	r3, [r3]
50000508:	e20330ff 	and	r3, r3, #255	; 0xff
5000050c:	e3530055 	cmp	r3, #85	; 0x55
50000510:	0a000002 	beq	50000520 <sdram_test+0x9c>
50000514:	e3e03000 	mvn	r3, #0	; 0x0
50000518:	e50b3018 	str	r3, [fp, #-24]
5000051c:	ea000005 	b	50000538 <sdram_test+0xb4>
50000520:	e51b3014 	ldr	r3, [fp, #-20]
50000524:	e2833001 	add	r3, r3, #1	; 0x1
50000528:	e50b3014 	str	r3, [fp, #-20]
5000052c:	eaffffec 	b	500004e4 <sdram_test+0x60>
50000530:	e3a03000 	mov	r3, #0	; 0x0
50000534:	e50b3018 	str	r3, [fp, #-24]
50000538:	e51b0018 	ldr	r0, [fp, #-24]
5000053c:	e24bd00c 	sub	sp, fp, #12	; 0xc
50000540:	e89da800 	ldmia	sp, {fp, sp, pc}

50000544 <copy2sdram>:
50000544:	e1a0c00d 	mov	ip, sp
50000548:	e92dd800 	stmdb	sp!, {fp, ip, lr, pc}
5000054c:	e24cb004 	sub	fp, ip, #4	; 0x4
50000550:	e24dd00c 	sub	sp, sp, #12	; 0xc
50000554:	e59f3058 	ldr	r3, [pc, #88]	; 500005b4 <.text+0x5b4>
50000558:	e50b3010 	str	r3, [fp, #-16]
5000055c:	e59f3054 	ldr	r3, [pc, #84]	; 500005b8 <.text+0x5b8>
50000560:	e50b3014 	str	r3, [fp, #-20]
50000564:	e3a03000 	mov	r3, #0	; 0x0
50000568:	e50b3018 	str	r3, [fp, #-24]
5000056c:	e51b2010 	ldr	r2, [fp, #-16]
50000570:	e51b3014 	ldr	r3, [fp, #-20]
50000574:	e1520003 	cmp	r2, r3
50000578:	2a00000b 	bcs	500005ac <copy2sdram+0x68>
5000057c:	e24bc010 	sub	ip, fp, #16	; 0x10
50000580:	e59c2000 	ldr	r2, [ip]
50000584:	e24b1018 	sub	r1, fp, #24	; 0x18
50000588:	e5913000 	ldr	r3, [r1]
5000058c:	e5930000 	ldr	r0, [r3]
50000590:	e2833004 	add	r3, r3, #4	; 0x4
50000594:	e5813000 	str	r3, [r1]
50000598:	e1a03002 	mov	r3, r2
5000059c:	e5830000 	str	r0, [r3]
500005a0:	e2822004 	add	r2, r2, #4	; 0x4
500005a4:	e58c2000 	str	r2, [ip]
500005a8:	eaffffef 	b	5000056c <copy2sdram+0x28>
500005ac:	e24bd00c 	sub	sp, fp, #12	; 0xc
500005b0:	e89da800 	ldmia	sp, {fp, sp, pc}
500005b4:	50000000 	andpl	r0, r0, r0
500005b8:	50000b38 	andpl	r0, r0, r8, lsr fp

500005bc <clean_bss>:
500005bc:	e1a0c00d 	mov	ip, sp
500005c0:	e92dd800 	stmdb	sp!, {fp, ip, lr, pc}
500005c4:	e24cb004 	sub	fp, ip, #4	; 0x4
500005c8:	e24dd008 	sub	sp, sp, #8	; 0x8
500005cc:	e59f3040 	ldr	r3, [pc, #64]	; 50000614 <.text+0x614>
500005d0:	e50b3010 	str	r3, [fp, #-16]
500005d4:	e59f303c 	ldr	r3, [pc, #60]	; 50000618 <.text+0x618>
500005d8:	e50b3014 	str	r3, [fp, #-20]
500005dc:	e51b2010 	ldr	r2, [fp, #-16]
500005e0:	e51b3014 	ldr	r3, [fp, #-20]
500005e4:	e1520003 	cmp	r2, r3
500005e8:	8a000007 	bhi	5000060c <clean_bss+0x50>
500005ec:	e24b0010 	sub	r0, fp, #16	; 0x10
500005f0:	e5903000 	ldr	r3, [r0]
500005f4:	e1a01003 	mov	r1, r3
500005f8:	e3a02000 	mov	r2, #0	; 0x0
500005fc:	e5812000 	str	r2, [r1]
50000600:	e2833004 	add	r3, r3, #4	; 0x4
50000604:	e5803000 	str	r3, [r0]
50000608:	eafffff3 	b	500005dc <clean_bss+0x20>
5000060c:	e24bd00c 	sub	sp, fp, #12	; 0xc
50000610:	e89da800 	ldmia	sp, {fp, sp, pc}
50000614:	50000b38 	andpl	r0, r0, r8, lsr fp
50000618:	50000b3a 	andpl	r0, r0, sl, lsr fp

5000061c <main>:
5000061c:	e1a0c00d 	mov	ip, sp
50000620:	e92dd800 	stmdb	sp!, {fp, ip, lr, pc}
50000624:	e24cb004 	sub	fp, ip, #4	; 0x4
50000628:	eb000021 	bl	500006b4 <uart0_init>
5000062c:	e59f0070 	ldr	r0, [pc, #112]	; 500006a4 <.text+0x6a4>
50000630:	eb000085 	bl	5000084c <puts>
50000634:	e59f306c 	ldr	r3, [pc, #108]	; 500006a8 <.text+0x6a8>
50000638:	e5d33000 	ldrb	r3, [r3]
5000063c:	e1a00003 	mov	r0, r3
50000640:	eb000093 	bl	50000894 <printfHEX>
50000644:	e59f0060 	ldr	r0, [pc, #96]	; 500006ac <.text+0x6ac>
50000648:	eb00007f 	bl	5000084c <puts>
5000064c:	e59f305c 	ldr	r3, [pc, #92]	; 500006b0 <.text+0x6b0>
50000650:	e5d33000 	ldrb	r3, [r3]
50000654:	e1a00003 	mov	r0, r3
50000658:	eb000055 	bl	500007b4 <putchar>
5000065c:	e59f204c 	ldr	r2, [pc, #76]	; 500006b0 <.text+0x6b0>
50000660:	e59f3048 	ldr	r3, [pc, #72]	; 500006b0 <.text+0x6b0>
50000664:	e5d33000 	ldrb	r3, [r3]
50000668:	e2833001 	add	r3, r3, #1	; 0x1
5000066c:	e5c23000 	strb	r3, [r2]
50000670:	e59f3030 	ldr	r3, [pc, #48]	; 500006a8 <.text+0x6a8>
50000674:	e5d33000 	ldrb	r3, [r3]
50000678:	e1a00003 	mov	r0, r3
5000067c:	eb00004c 	bl	500007b4 <putchar>
50000680:	e59f2020 	ldr	r2, [pc, #32]	; 500006a8 <.text+0x6a8>
50000684:	e59f301c 	ldr	r3, [pc, #28]	; 500006a8 <.text+0x6a8>
50000688:	e5d33000 	ldrb	r3, [r3]
5000068c:	e2833001 	add	r3, r3, #1	; 0x1
50000690:	e5c23000 	strb	r3, [r2]
50000694:	e3a00b61 	mov	r0, #99328	; 0x18400
50000698:	e2800e2a 	add	r0, r0, #672	; 0x2a0
5000069c:	eb000112 	bl	50000aec <delay>
500006a0:	eaffffe9 	b	5000064c <main+0x30>
500006a4:	50000b20 	andpl	r0, r0, r0, lsr #22
500006a8:	50000b35 	andpl	r0, r0, r5, lsr fp
500006ac:	50000b2c 	andpl	r0, r0, ip, lsr #22
500006b0:	50000b34 	andpl	r0, r0, r4, lsr fp

500006b4 <uart0_init>:
500006b4:	e1a0c00d 	mov	ip, sp
500006b8:	e92dd800 	stmdb	sp!, {fp, ip, lr, pc}
500006bc:	e24cb004 	sub	fp, ip, #4	; 0x4
500006c0:	e3a0247f 	mov	r2, #2130706432	; 0x7f000000
500006c4:	e2822902 	add	r2, r2, #32768	; 0x8000
500006c8:	e3a0347f 	mov	r3, #2130706432	; 0x7f000000
500006cc:	e2833902 	add	r3, r3, #32768	; 0x8000
500006d0:	e5933000 	ldr	r3, [r3]
500006d4:	e3c330ff 	bic	r3, r3, #255	; 0xff
500006d8:	e5823000 	str	r3, [r2]
500006dc:	e3a0247f 	mov	r2, #2130706432	; 0x7f000000
500006e0:	e2822902 	add	r2, r2, #32768	; 0x8000
500006e4:	e3a0347f 	mov	r3, #2130706432	; 0x7f000000
500006e8:	e2833902 	add	r3, r3, #32768	; 0x8000
500006ec:	e5933000 	ldr	r3, [r3]
500006f0:	e3833022 	orr	r3, r3, #34	; 0x22
500006f4:	e5823000 	str	r3, [r2]
500006f8:	e3a0247f 	mov	r2, #2130706432	; 0x7f000000
500006fc:	e2822902 	add	r2, r2, #32768	; 0x8000
50000700:	e2822008 	add	r2, r2, #8	; 0x8
50000704:	e3a0347f 	mov	r3, #2130706432	; 0x7f000000
50000708:	e2833902 	add	r3, r3, #32768	; 0x8000
5000070c:	e2833008 	add	r3, r3, #8	; 0x8
50000710:	e5933000 	ldr	r3, [r3]
50000714:	e3c3300f 	bic	r3, r3, #15	; 0xf
50000718:	e5823000 	str	r3, [r2]
5000071c:	e3a0247f 	mov	r2, #2130706432	; 0x7f000000
50000720:	e2822902 	add	r2, r2, #32768	; 0x8000
50000724:	e2822008 	add	r2, r2, #8	; 0x8
50000728:	e3a0347f 	mov	r3, #2130706432	; 0x7f000000
5000072c:	e2833902 	add	r3, r3, #32768	; 0x8000
50000730:	e2833008 	add	r3, r3, #8	; 0x8
50000734:	e5933000 	ldr	r3, [r3]
50000738:	e383300a 	orr	r3, r3, #10	; 0xa
5000073c:	e5823000 	str	r3, [r2]
50000740:	e3a0247f 	mov	r2, #2130706432	; 0x7f000000
50000744:	e2822a05 	add	r2, r2, #20480	; 0x5000
50000748:	e2822004 	add	r2, r2, #4	; 0x4
5000074c:	e3a0347f 	mov	r3, #2130706432	; 0x7f000000
50000750:	e2833a05 	add	r3, r3, #20480	; 0x5000
50000754:	e2833004 	add	r3, r3, #4	; 0x4
50000758:	e5933000 	ldr	r3, [r3]
5000075c:	e3833005 	orr	r3, r3, #5	; 0x5
50000760:	e5823000 	str	r3, [r2]
50000764:	e3a0347f 	mov	r3, #2130706432	; 0x7f000000
50000768:	e2833a05 	add	r3, r3, #20480	; 0x5000
5000076c:	e2833028 	add	r3, r3, #40	; 0x28
50000770:	e3a02023 	mov	r2, #35	; 0x23
50000774:	e5832000 	str	r2, [r3]
50000778:	e3a0347f 	mov	r3, #2130706432	; 0x7f000000
5000077c:	e2833a05 	add	r3, r3, #20480	; 0x5000
50000780:	e283302c 	add	r3, r3, #44	; 0x2c
50000784:	e3a02001 	mov	r2, #1	; 0x1
50000788:	e5832000 	str	r2, [r3]
5000078c:	e3a0347f 	mov	r3, #2130706432	; 0x7f000000
50000790:	e2833a05 	add	r3, r3, #20480	; 0x5000
50000794:	e3a02003 	mov	r2, #3	; 0x3
50000798:	e5832000 	str	r2, [r3]
5000079c:	e3a0347f 	mov	r3, #2130706432	; 0x7f000000
500007a0:	e2833a05 	add	r3, r3, #20480	; 0x5000
500007a4:	e283300c 	add	r3, r3, #12	; 0xc
500007a8:	e3a02000 	mov	r2, #0	; 0x0
500007ac:	e5832000 	str	r2, [r3]
500007b0:	e89da800 	ldmia	sp, {fp, sp, pc}

500007b4 <putchar>:
500007b4:	e1a0c00d 	mov	ip, sp
500007b8:	e92dd800 	stmdb	sp!, {fp, ip, lr, pc}
500007bc:	e24cb004 	sub	fp, ip, #4	; 0x4
500007c0:	e24dd004 	sub	sp, sp, #4	; 0x4
500007c4:	e1a03000 	mov	r3, r0
500007c8:	e54b300d 	strb	r3, [fp, #-13]
500007cc:	e3a0347f 	mov	r3, #2130706432	; 0x7f000000
500007d0:	e2833a05 	add	r3, r3, #20480	; 0x5000
500007d4:	e2833010 	add	r3, r3, #16	; 0x10
500007d8:	e5933000 	ldr	r3, [r3]
500007dc:	e2033004 	and	r3, r3, #4	; 0x4
500007e0:	e3530000 	cmp	r3, #0	; 0x0
500007e4:	1a000000 	bne	500007ec <putchar+0x38>
500007e8:	eafffff7 	b	500007cc <putchar+0x18>
500007ec:	e3a0347f 	mov	r3, #2130706432	; 0x7f000000
500007f0:	e2833a05 	add	r3, r3, #20480	; 0x5000
500007f4:	e2833020 	add	r3, r3, #32	; 0x20
500007f8:	e55b200d 	ldrb	r2, [fp, #-13]
500007fc:	e5832000 	str	r2, [r3]
50000800:	e89da808 	ldmia	sp, {r3, fp, sp, pc}

50000804 <getchar>:
50000804:	e1a0c00d 	mov	ip, sp
50000808:	e92dd800 	stmdb	sp!, {fp, ip, lr, pc}
5000080c:	e24cb004 	sub	fp, ip, #4	; 0x4
50000810:	e3a0347f 	mov	r3, #2130706432	; 0x7f000000
50000814:	e2833a05 	add	r3, r3, #20480	; 0x5000
50000818:	e2833010 	add	r3, r3, #16	; 0x10
5000081c:	e5933000 	ldr	r3, [r3]
50000820:	e2033001 	and	r3, r3, #1	; 0x1
50000824:	e3530000 	cmp	r3, #0	; 0x0
50000828:	1a000000 	bne	50000830 <getchar+0x2c>
5000082c:	eafffff7 	b	50000810 <getchar+0xc>
50000830:	e3a0347f 	mov	r3, #2130706432	; 0x7f000000
50000834:	e2833a05 	add	r3, r3, #20480	; 0x5000
50000838:	e2833024 	add	r3, r3, #36	; 0x24
5000083c:	e5933000 	ldr	r3, [r3]
50000840:	e20330ff 	and	r3, r3, #255	; 0xff
50000844:	e1a00003 	mov	r0, r3
50000848:	e89da800 	ldmia	sp, {fp, sp, pc}

5000084c <puts>:
5000084c:	e1a0c00d 	mov	ip, sp
50000850:	e92dd800 	stmdb	sp!, {fp, ip, lr, pc}
50000854:	e24cb004 	sub	fp, ip, #4	; 0x4
50000858:	e24dd004 	sub	sp, sp, #4	; 0x4
5000085c:	e50b0010 	str	r0, [fp, #-16]
50000860:	e51b3010 	ldr	r3, [fp, #-16]
50000864:	e5d33000 	ldrb	r3, [r3]
50000868:	e3530000 	cmp	r3, #0	; 0x0
5000086c:	0a000007 	beq	50000890 <puts+0x44>
50000870:	e51b3010 	ldr	r3, [fp, #-16]
50000874:	e5d33000 	ldrb	r3, [r3]
50000878:	e1a00003 	mov	r0, r3
5000087c:	ebffffcc 	bl	500007b4 <putchar>
50000880:	e51b3010 	ldr	r3, [fp, #-16]
50000884:	e2833001 	add	r3, r3, #1	; 0x1
50000888:	e50b3010 	str	r3, [fp, #-16]
5000088c:	eafffff3 	b	50000860 <puts+0x14>
50000890:	e89da808 	ldmia	sp, {r3, fp, sp, pc}

50000894 <printfHEX>:
50000894:	e1a0c00d 	mov	ip, sp
50000898:	e92dd800 	stmdb	sp!, {fp, ip, lr, pc}
5000089c:	e24cb004 	sub	fp, ip, #4	; 0x4
500008a0:	e24dd028 	sub	sp, sp, #40	; 0x28
500008a4:	e50b0010 	str	r0, [fp, #-16]
500008a8:	e3a03000 	mov	r3, #0	; 0x0
500008ac:	e50b3014 	str	r3, [fp, #-20]
500008b0:	e51b3014 	ldr	r3, [fp, #-20]
500008b4:	e3530007 	cmp	r3, #7	; 0x7
500008b8:	ca00000f 	bgt	500008fc <printfHEX+0x68>
500008bc:	e51b3014 	ldr	r3, [fp, #-20]
500008c0:	e3e02027 	mvn	r2, #39	; 0x27
500008c4:	e1a03103 	mov	r3, r3, lsl #2
500008c8:	e24b100c 	sub	r1, fp, #12	; 0xc
500008cc:	e0833001 	add	r3, r3, r1
500008d0:	e0832002 	add	r2, r3, r2
500008d4:	e51b3010 	ldr	r3, [fp, #-16]
500008d8:	e203300f 	and	r3, r3, #15	; 0xf
500008dc:	e5823000 	str	r3, [r2]
500008e0:	e51b3010 	ldr	r3, [fp, #-16]
500008e4:	e1a03223 	mov	r3, r3, lsr #4
500008e8:	e50b3010 	str	r3, [fp, #-16]
500008ec:	e51b3014 	ldr	r3, [fp, #-20]
500008f0:	e2833001 	add	r3, r3, #1	; 0x1
500008f4:	e50b3014 	str	r3, [fp, #-20]
500008f8:	eaffffec 	b	500008b0 <printfHEX+0x1c>
500008fc:	e59f00f4 	ldr	r0, [pc, #244]	; 500009f8 <.text+0x9f8>
50000900:	ebffffd1 	bl	5000084c <puts>
50000904:	e3a03007 	mov	r3, #7	; 0x7
50000908:	e50b3014 	str	r3, [fp, #-20]
5000090c:	e51b3014 	ldr	r3, [fp, #-20]
50000910:	e3530000 	cmp	r3, #0	; 0x0
50000914:	ba000035 	blt	500009f0 <printfHEX+0x15c>
50000918:	e51b3014 	ldr	r3, [fp, #-20]
5000091c:	e3e02027 	mvn	r2, #39	; 0x27
50000920:	e1a03103 	mov	r3, r3, lsl #2
50000924:	e24b100c 	sub	r1, fp, #12	; 0xc
50000928:	e0833001 	add	r3, r3, r1
5000092c:	e0833002 	add	r3, r3, r2
50000930:	e5933000 	ldr	r3, [r3]
50000934:	e3530009 	cmp	r3, #9	; 0x9
50000938:	8a00000b 	bhi	5000096c <printfHEX+0xd8>
5000093c:	e51b3014 	ldr	r3, [fp, #-20]
50000940:	e3e02027 	mvn	r2, #39	; 0x27
50000944:	e1a03103 	mov	r3, r3, lsl #2
50000948:	e24b100c 	sub	r1, fp, #12	; 0xc
5000094c:	e0833001 	add	r3, r3, r1
50000950:	e0833002 	add	r3, r3, r2
50000954:	e5933000 	ldr	r3, [r3]
50000958:	e2833030 	add	r3, r3, #48	; 0x30
5000095c:	e20330ff 	and	r3, r3, #255	; 0xff
50000960:	e1a00003 	mov	r0, r3
50000964:	ebffff92 	bl	500007b4 <putchar>
50000968:	ea00001c 	b	500009e0 <printfHEX+0x14c>
5000096c:	e51b3014 	ldr	r3, [fp, #-20]
50000970:	e3e02027 	mvn	r2, #39	; 0x27
50000974:	e1a03103 	mov	r3, r3, lsl #2
50000978:	e24b100c 	sub	r1, fp, #12	; 0xc
5000097c:	e0833001 	add	r3, r3, r1
50000980:	e0833002 	add	r3, r3, r2
50000984:	e5933000 	ldr	r3, [r3]
50000988:	e3530009 	cmp	r3, #9	; 0x9
5000098c:	9a000013 	bls	500009e0 <printfHEX+0x14c>
50000990:	e51b3014 	ldr	r3, [fp, #-20]
50000994:	e3e02027 	mvn	r2, #39	; 0x27
50000998:	e1a03103 	mov	r3, r3, lsl #2
5000099c:	e24b100c 	sub	r1, fp, #12	; 0xc
500009a0:	e0833001 	add	r3, r3, r1
500009a4:	e0833002 	add	r3, r3, r2
500009a8:	e5933000 	ldr	r3, [r3]
500009ac:	e353000f 	cmp	r3, #15	; 0xf
500009b0:	8a00000a 	bhi	500009e0 <printfHEX+0x14c>
500009b4:	e51b3014 	ldr	r3, [fp, #-20]
500009b8:	e3e02027 	mvn	r2, #39	; 0x27
500009bc:	e1a03103 	mov	r3, r3, lsl #2
500009c0:	e24b100c 	sub	r1, fp, #12	; 0xc
500009c4:	e0833001 	add	r3, r3, r1
500009c8:	e0833002 	add	r3, r3, r2
500009cc:	e5933000 	ldr	r3, [r3]
500009d0:	e2833037 	add	r3, r3, #55	; 0x37
500009d4:	e20330ff 	and	r3, r3, #255	; 0xff
500009d8:	e1a00003 	mov	r0, r3
500009dc:	ebffff74 	bl	500007b4 <putchar>
500009e0:	e51b3014 	ldr	r3, [fp, #-20]
500009e4:	e2433001 	sub	r3, r3, #1	; 0x1
500009e8:	e50b3014 	str	r3, [fp, #-20]
500009ec:	eaffffc6 	b	5000090c <printfHEX+0x78>
500009f0:	e24bd00c 	sub	sp, fp, #12	; 0xc
500009f4:	e89da800 	ldmia	sp, {fp, sp, pc}
500009f8:	50000b30 	andpl	r0, r0, r0, lsr fp

500009fc <led_on>:
500009fc:	e1a0c00d 	mov	ip, sp
50000a00:	e92dd800 	stmdb	sp!, {fp, ip, lr, pc}
50000a04:	e24cb004 	sub	fp, ip, #4	; 0x4
50000a08:	e24dd008 	sub	sp, sp, #8	; 0x8
50000a0c:	e3a03000 	mov	r3, #0	; 0x0
50000a10:	e50b3010 	str	r3, [fp, #-16]
50000a14:	e3a0247f 	mov	r2, #2130706432	; 0x7f000000
50000a18:	e2822b22 	add	r2, r2, #34816	; 0x8800
50000a1c:	e3a0347f 	mov	r3, #2130706432	; 0x7f000000
50000a20:	e2833b22 	add	r3, r3, #34816	; 0x8800
50000a24:	e5933000 	ldr	r3, [r3]
50000a28:	e1a03803 	mov	r3, r3, lsl #16
50000a2c:	e1a03823 	mov	r3, r3, lsr #16
50000a30:	e5823000 	str	r3, [r2]
50000a34:	e3a0247f 	mov	r2, #2130706432	; 0x7f000000
50000a38:	e2822b22 	add	r2, r2, #34816	; 0x8800
50000a3c:	e3a0347f 	mov	r3, #2130706432	; 0x7f000000
50000a40:	e2833b22 	add	r3, r3, #34816	; 0x8800
50000a44:	e5933000 	ldr	r3, [r3]
50000a48:	e3833411 	orr	r3, r3, #285212672	; 0x11000000
50000a4c:	e3833811 	orr	r3, r3, #1114112	; 0x110000
50000a50:	e5823000 	str	r3, [r2]
50000a54:	e51b3010 	ldr	r3, [fp, #-16]
50000a58:	e1e03003 	mvn	r3, r3
50000a5c:	e50b3014 	str	r3, [fp, #-20]
50000a60:	e51b3014 	ldr	r3, [fp, #-20]
50000a64:	e203300f 	and	r3, r3, #15	; 0xf
50000a68:	e50b3014 	str	r3, [fp, #-20]
50000a6c:	e3a0247f 	mov	r2, #2130706432	; 0x7f000000
50000a70:	e2822b22 	add	r2, r2, #34816	; 0x8800
50000a74:	e2822008 	add	r2, r2, #8	; 0x8
50000a78:	e3a0347f 	mov	r3, #2130706432	; 0x7f000000
50000a7c:	e2833b22 	add	r3, r3, #34816	; 0x8800
50000a80:	e2833008 	add	r3, r3, #8	; 0x8
50000a84:	e5933000 	ldr	r3, [r3]
50000a88:	e3c330f0 	bic	r3, r3, #240	; 0xf0
50000a8c:	e5823000 	str	r3, [r2]
50000a90:	e3a0147f 	mov	r1, #2130706432	; 0x7f000000
50000a94:	e2811b22 	add	r1, r1, #34816	; 0x8800
50000a98:	e2811008 	add	r1, r1, #8	; 0x8
50000a9c:	e3a0347f 	mov	r3, #2130706432	; 0x7f000000
50000aa0:	e2833b22 	add	r3, r3, #34816	; 0x8800
50000aa4:	e2833008 	add	r3, r3, #8	; 0x8
50000aa8:	e51b2014 	ldr	r2, [fp, #-20]
50000aac:	e1a02202 	mov	r2, r2, lsl #4
50000ab0:	e5933000 	ldr	r3, [r3]
50000ab4:	e1833002 	orr	r3, r3, r2
50000ab8:	e5813000 	str	r3, [r1]
50000abc:	e3a00b61 	mov	r0, #99328	; 0x18400
50000ac0:	e2800e2a 	add	r0, r0, #672	; 0x2a0
50000ac4:	eb000008 	bl	50000aec <delay>
50000ac8:	e51b3010 	ldr	r3, [fp, #-16]
50000acc:	e2833001 	add	r3, r3, #1	; 0x1
50000ad0:	e50b3010 	str	r3, [fp, #-16]
50000ad4:	e51b3010 	ldr	r3, [fp, #-16]
50000ad8:	e353000f 	cmp	r3, #15	; 0xf
50000adc:	9affffdc 	bls	50000a54 <led_on+0x58>
50000ae0:	e3a03000 	mov	r3, #0	; 0x0
50000ae4:	e50b3010 	str	r3, [fp, #-16]
50000ae8:	eaffffd9 	b	50000a54 <led_on+0x58>

50000aec <delay>:
50000aec:	e1a0c00d 	mov	ip, sp
50000af0:	e92dd800 	stmdb	sp!, {fp, ip, lr, pc}
50000af4:	e24cb004 	sub	fp, ip, #4	; 0x4
50000af8:	e24dd004 	sub	sp, sp, #4	; 0x4
50000afc:	e50b0010 	str	r0, [fp, #-16]
50000b00:	e51b3010 	ldr	r3, [fp, #-16]
50000b04:	e2433001 	sub	r3, r3, #1	; 0x1
50000b08:	e50b3010 	str	r3, [fp, #-16]
50000b0c:	e51b3010 	ldr	r3, [fp, #-16]
50000b10:	e3730001 	cmn	r3, #1	; 0x1
50000b14:	0a000000 	beq	50000b1c <delay+0x30>
50000b18:	eafffff8 	b	50000b00 <delay+0x14>
50000b1c:	e89da808 	ldmia	sp, {r3, fp, sp, pc}
Disassembly of section .rodata:

50000b20 <.rodata>:
50000b20:	5f670d0a 	swipl	0x00670d0a
50000b24:	72616863 	rsbvc	r6, r1, #6488064	; 0x630000
50000b28:	00003d33 	andeq	r3, r0, r3, lsr sp
50000b2c:	00000d0a 	andeq	r0, r0, sl, lsl #26
50000b30:	00007830 	andeq	r7, r0, r0, lsr r8
Disassembly of section .data:

50000b34 <g_char1>:
50000b34:	Address 0x50000b34 is out of bounds.


50000b35 <g_char2>:
50000b35:	Address 0x50000b35 is out of bounds.

Disassembly of section .bss:

50000b38 <g_char3>:
	...

50000b39 <g_char4>:
	...
Disassembly of section .comment:

00000000 <.comment>:
   0:	43434700 	cmpmi	r3, #0	; 0x0
   4:	4728203a 	undefined
   8:	2029554e 	eorcs	r5, r9, lr, asr #10
   c:	2e342e33 	mrccs	14, 1, r2, cr4, cr3, {1}
  10:	47000035 	smladxmi	r0, r5, r0, r0
  14:	203a4343 	eorcss	r4, sl, r3, asr #6
  18:	554e4728 	strplb	r4, [lr, #-1832]
  1c:	2e332029 	cdpcs	0, 3, cr2, cr3, cr9, {1}
  20:	00352e34 	eoreqs	r2, r5, r4, lsr lr
  24:	43434700 	cmpmi	r3, #0	; 0x0
  28:	4728203a 	undefined
  2c:	2029554e 	eorcs	r5, r9, lr, asr #10
  30:	2e342e33 	mrccs	14, 1, r2, cr4, cr3, {1}
  34:	47000035 	smladxmi	r0, r5, r0, r0
  38:	203a4343 	eorcss	r4, sl, r3, asr #6
  3c:	554e4728 	strplb	r4, [lr, #-1832]
  40:	2e332029 	cdpcs	0, 3, cr2, cr3, cr9, {1}
  44:	00352e34 	eoreqs	r2, r5, r4, lsr lr
