
led_on_c.elf:     file format elf32-littlearm


Disassembly of section .text:

00000000 <_start>:
   0:	e3a00207 	mov	r0, #1879048192	; 0x70000000
   4:	e3800013 	orr	r0, r0, #19
   8:	ee0f0f92 	mcr	15, 0, r0, cr15, cr2, {4}
   c:	e59f002c 	ldr	r0, [pc, #44]	; 40 <halt+0x4>
  10:	e3a01000 	mov	r1, #0
  14:	e5801000 	str	r1, [r0]
  18:	e3a01000 	mov	r1, #0
  1c:	e5910000 	ldr	r0, [r1]
  20:	e5811000 	str	r1, [r1]
  24:	e5912000 	ldr	r2, [r1]
  28:	e1510002 	cmp	r1, r2
  2c:	e59fd010 	ldr	sp, [pc, #16]	; 44 <halt+0x8>
  30:	03a0da01 	moveq	sp, #4096	; 0x1000
  34:	05810000 	streq	r0, [r1]
  38:	eb000002 	bl	48 <main>

0000003c <halt>:
  3c:	eafffffe 	b	3c <halt>
  40:	7e004000 	cdpvc	0, 0, cr4, cr0, cr0, {0}
  44:	40001000 	andmi	r1, r0, r0

00000048 <main>:
  48:	e92d4800 	push	{fp, lr}
  4c:	e28db004 	add	fp, sp, #4
  50:	e24dd008 	sub	sp, sp, #8
  54:	e3a03000 	mov	r3, #0
  58:	e50b3008 	str	r3, [fp, #-8]
  5c:	e59f20a4 	ldr	r2, [pc, #164]	; 108 <main+0xc0>
  60:	e59f30a0 	ldr	r3, [pc, #160]	; 108 <main+0xc0>
  64:	e5933000 	ldr	r3, [r3]
  68:	e1a03803 	lsl	r3, r3, #16
  6c:	e1a03823 	lsr	r3, r3, #16
  70:	e5823000 	str	r3, [r2]
  74:	e59f208c 	ldr	r2, [pc, #140]	; 108 <main+0xc0>
  78:	e59f3088 	ldr	r3, [pc, #136]	; 108 <main+0xc0>
  7c:	e5933000 	ldr	r3, [r3]
  80:	e3833411 	orr	r3, r3, #285212672	; 0x11000000
  84:	e3833811 	orr	r3, r3, #1114112	; 0x110000
  88:	e5823000 	str	r3, [r2]
  8c:	ea000000 	b	94 <main+0x4c>
  90:	e1a00000 	nop			; (mov r0, r0)
  94:	e51b3008 	ldr	r3, [fp, #-8]
  98:	e1e03003 	mvn	r3, r3
  9c:	e50b300c 	str	r3, [fp, #-12]
  a0:	e51b300c 	ldr	r3, [fp, #-12]
  a4:	e203300f 	and	r3, r3, #15
  a8:	e50b300c 	str	r3, [fp, #-12]
  ac:	e59f3058 	ldr	r3, [pc, #88]	; 10c <main+0xc4>
  b0:	e59f2054 	ldr	r2, [pc, #84]	; 10c <main+0xc4>
  b4:	e5922000 	ldr	r2, [r2]
  b8:	e3c220f0 	bic	r2, r2, #240	; 0xf0
  bc:	e5832000 	str	r2, [r3]
  c0:	e59f3044 	ldr	r3, [pc, #68]	; 10c <main+0xc4>
  c4:	e59f2040 	ldr	r2, [pc, #64]	; 10c <main+0xc4>
  c8:	e5921000 	ldr	r1, [r2]
  cc:	e51b200c 	ldr	r2, [fp, #-12]
  d0:	e1a02202 	lsl	r2, r2, #4
  d4:	e1812002 	orr	r2, r1, r2
  d8:	e5832000 	str	r2, [r3]
  dc:	e59f002c 	ldr	r0, [pc, #44]	; 110 <main+0xc8>
  e0:	eb00000b 	bl	114 <delay>
  e4:	e51b3008 	ldr	r3, [fp, #-8]
  e8:	e2833001 	add	r3, r3, #1
  ec:	e50b3008 	str	r3, [fp, #-8]
  f0:	e51b3008 	ldr	r3, [fp, #-8]
  f4:	e353000f 	cmp	r3, #15
  f8:	9affffe4 	bls	90 <main+0x48>
  fc:	e3a03000 	mov	r3, #0
 100:	e50b3008 	str	r3, [fp, #-8]
 104:	eaffffe2 	b	94 <main+0x4c>
 108:	7f008800 	svcvc	0x00008800
 10c:	7f008808 	svcvc	0x00008808
 110:	000186a0 	andeq	r8, r1, r0, lsr #13

00000114 <delay>:
 114:	e52db004 	push	{fp}		; (str fp, [sp, #-4]!)
 118:	e28db000 	add	fp, sp, #0
 11c:	e24dd00c 	sub	sp, sp, #12
 120:	e50b0008 	str	r0, [fp, #-8]
 124:	e1a00000 	nop			; (mov r0, r0)
 128:	e51b3008 	ldr	r3, [fp, #-8]
 12c:	e3530000 	cmp	r3, #0
 130:	03a02000 	moveq	r2, #0
 134:	13a02001 	movne	r2, #1
 138:	e6ef2072 	uxtb	r2, r2
 13c:	e2433001 	sub	r3, r3, #1
 140:	e50b3008 	str	r3, [fp, #-8]
 144:	e3520000 	cmp	r2, #0
 148:	1afffff6 	bne	128 <delay+0x14>
 14c:	e28bd000 	add	sp, fp, #0
 150:	e8bd0800 	pop	{fp}
 154:	e12fff1e 	bx	lr
