
main.elf:     file format elf32-littlearm

Disassembly of section .text:

b0000000 <_start>:
b0000000:	ea000009 	b	b000002c <reset>
b0000004:	e59ff014 	ldr	pc, [pc, #20]	; b0000020 <und_addr>
b0000008:	e59ff014 	ldr	pc, [pc, #20]	; b0000024 <swi_addr>
b000000c:	ea000027 	b	b00000b0 <halt>
b0000010:	ea000026 	b	b00000b0 <halt>
b0000014:	ea000025 	b	b00000b0 <halt>
b0000018:	e59ff008 	ldr	pc, [pc, #8]	; b0000028 <irq_addr>
b000001c:	ea000023 	b	b00000b0 <halt>

b0000020 <und_addr>:
b0000020:	b00000b4 	strlth	r0, [r0], -r4

b0000024 <swi_addr>:
b0000024:	b00000e0 	andlt	r0, r0, r0, ror #1

b0000028 <irq_addr>:
b0000028:	b0000120 	andlt	r0, r0, r0, lsr #2

b000002c <reset>:
b000002c:	e3a00207 	mov	r0, #1879048192	; 0x70000000
b0000030:	e3800013 	orr	r0, r0, #19	; 0x13
b0000034:	ee0f0f92 	mcr	15, 0, r0, cr15, cr2, {4}
b0000038:	e59f00f4 	ldr	r0, [pc, #244]	; b0000134 <.text+0x134>
b000003c:	e3a01000 	mov	r1, #0	; 0x0
b0000040:	e5801000 	str	r1, [r0]
b0000044:	e3a0da02 	mov	sp, #8192	; 0x2000
b0000048:	eb000040 	bl	b0000150 <clock_init>
b000004c:	ee110f10 	mrc	15, 0, r0, cr1, cr0, {0}
b0000050:	e3800a01 	orr	r0, r0, #4096	; 0x1000
b0000054:	ee010f10 	mcr	15, 0, r0, cr1, cr0, {0}
b0000058:	eb00005f 	bl	b00001dc <sdram_init>
b000005c:	eb00036a 	bl	b0000e0c <create_page_table>
b0000060:	e3a0045b 	mov	r0, #1526726656	; 0x5b000000
b0000064:	ee020f10 	mcr	15, 0, r0, cr2, cr0, {0}
b0000068:	e3e00000 	mvn	r0, #0	; 0x0
b000006c:	ee030f10 	mcr	15, 0, r0, cr3, cr0, {0}
b0000070:	ee110f10 	mrc	15, 0, r0, cr1, cr0, {0}
b0000074:	e3800004 	orr	r0, r0, #4	; 0x4
b0000078:	e3800a01 	orr	r0, r0, #4096	; 0x1000
b000007c:	e3800001 	orr	r0, r0, #1	; 0x1
b0000080:	ee010f10 	mcr	15, 0, r0, cr1, cr0, {0}
b0000084:	eb0000d8 	bl	b00003ec <copy2sdram>
b0000088:	eb0000ee 	bl	b0000448 <clean_bss>

b000008c <on_ddr>:
b000008c:	eb0003d4 	bl	b0000fe4 <uart0_init>
b0000090:	eb00039e 	bl	b0000f10 <irq_init>
b0000094:	e10f0000 	mrs	r0, CPSR
b0000098:	e3c0001f 	bic	r0, r0, #31	; 0x1f
b000009c:	e3c00080 	bic	r0, r0, #128	; 0x80
b00000a0:	e3800010 	orr	r0, r0, #16	; 0x10
b00000a4:	e129f000 	msr	CPSR_fc, r0
b00000a8:	e3a0d317 	mov	sp, #1543503872	; 0x5c000000
b00000ac:	e59ff084 	ldr	pc, [pc, #132]	; b0000138 <.text+0x138>

b00000b0 <halt>:
b00000b0:	eafffffe 	b	b00000b0 <halt>

b00000b4 <do_und>:
b00000b4:	e3a0d45f 	mov	sp, #1593835520	; 0x5f000000
b00000b8:	e92d5fff 	stmdb	sp!, {r0, r1, r2, r3, r4, r5, r6, r7, r8, r9, sl, fp, ip, lr}
b00000bc:	e10f0000 	mrs	r0, CPSR
b00000c0:	e59f1074 	ldr	r1, [pc, #116]	; b000013c <.text+0x13c>
b00000c4:	eb0003b0 	bl	b0000f8c <printException>
b00000c8:	e8fd9fff 	ldmia	sp!, {r0, r1, r2, r3, r4, r5, r6, r7, r8, r9, sl, fp, ip, pc}^

b00000cc <und_string>:
b00000cc:	20646e75 	rsbcs	r6, r4, r5, ror lr
b00000d0:	74736574 	ldrvcbt	r6, [r3], #-1396
b00000d4:	20796220 	rsbcss	r6, r9, r0, lsr #4
b00000d8:	00666773 	rsbeq	r6, r6, r3, ror r7
b00000dc:	00000000 	andeq	r0, r0, r0

b00000e0 <do_swi>:
b00000e0:	e3a0d45e 	mov	sp, #1577058304	; 0x5e000000
b00000e4:	e92d5fff 	stmdb	sp!, {r0, r1, r2, r3, r4, r5, r6, r7, r8, r9, sl, fp, ip, lr}
b00000e8:	e1a0400e 	mov	r4, lr
b00000ec:	e10f0000 	mrs	r0, CPSR
b00000f0:	e59f1048 	ldr	r1, [pc, #72]	; b0000140 <.text+0x140>
b00000f4:	eb0003a4 	bl	b0000f8c <printException>
b00000f8:	e2440004 	sub	r0, r4, #4	; 0x4
b00000fc:	eb000416 	bl	b000115c <printSwi_Val>
b0000100:	e8fd9fff 	ldmia	sp!, {r0, r1, r2, r3, r4, r5, r6, r7, r8, r9, sl, fp, ip, pc}^

b0000104 <svc_string>:
b0000104:	20697773 	rsbcs	r7, r9, r3, ror r7
b0000108:	74736574 	ldrvcbt	r6, [r3], #-1396
b000010c:	20796220 	rsbcss	r6, r9, r0, lsr #4
b0000110:	00666773 	rsbeq	r6, r6, r3, ror r7
	...

b0000120 <do_irq>:
b0000120:	e3a0d45d 	mov	sp, #1560281088	; 0x5d000000
b0000124:	e24ee004 	sub	lr, lr, #4	; 0x4
b0000128:	e92d5fff 	stmdb	sp!, {r0, r1, r2, r3, r4, r5, r6, r7, r8, r9, sl, fp, ip, lr}
b000012c:	eb00037c 	bl	b0000f24 <handle_irq_c>
b0000130:	e8fd9fff 	ldmia	sp!, {r0, r1, r2, r3, r4, r5, r6, r7, r8, r9, sl, fp, ip, pc}^
b0000134:	7e004000 	cdpvc	0, 0, cr4, cr0, cr0, {0}
b0000138:	b0000fd0 	ldrltd	r0, [r0], -r0
b000013c:	b00000cc 	andlt	r0, r0, ip, asr #1
b0000140:	b0000104 	andlt	r0, r0, r4, lsl #2
b0000144:	e1a00000 	nop			(mov r0,r0)
b0000148:	e1a00000 	nop			(mov r0,r0)
b000014c:	e1a00000 	nop			(mov r0,r0)

b0000150 <clock_init>:
b0000150:	e59f0064 	ldr	r0, [pc, #100]	; b00001bc <.text+0x1bc>
b0000154:	e59f1064 	ldr	r1, [pc, #100]	; b00001c0 <.text+0x1c0>
b0000158:	e5801000 	str	r1, [r0]
b000015c:	e5801004 	str	r1, [r0, #4]
b0000160:	e5801008 	str	r1, [r0, #8]
b0000164:	e59f0058 	ldr	r0, [pc, #88]	; b00001c4 <.text+0x1c4>
b0000168:	e5901000 	ldr	r1, [r0]
b000016c:	e3c110c0 	bic	r1, r1, #192	; 0xc0
b0000170:	e5801000 	str	r1, [r0]

b0000174 <loop>:
b0000174:	e59f0048 	ldr	r0, [pc, #72]	; b00001c4 <.text+0x1c4>
b0000178:	e5901000 	ldr	r1, [r0]
b000017c:	e2011c0f 	and	r1, r1, #3840	; 0xf00
b0000180:	e3510000 	cmp	r1, #0	; 0x0
b0000184:	1afffffa 	bne	b0000174 <loop>
b0000188:	e59f0038 	ldr	r0, [pc, #56]	; b00001c8 <.text+0x1c8>
b000018c:	e3a01c33 	mov	r1, #13056	; 0x3300
b0000190:	e5801000 	str	r1, [r0]
b0000194:	e59f0030 	ldr	r0, [pc, #48]	; b00001cc <.text+0x1cc>
b0000198:	e59f1030 	ldr	r1, [pc, #48]	; b00001d0 <.text+0x1d0>
b000019c:	e5801000 	str	r1, [r0]
b00001a0:	e59f002c 	ldr	r0, [pc, #44]	; b00001d4 <.text+0x1d4>
b00001a4:	e59f1024 	ldr	r1, [pc, #36]	; b00001d0 <.text+0x1d0>
b00001a8:	e5801000 	str	r1, [r0]
b00001ac:	e59f0024 	ldr	r0, [pc, #36]	; b00001d8 <.text+0x1d8>
b00001b0:	e3a01003 	mov	r1, #3	; 0x3
b00001b4:	e5801000 	str	r1, [r0]
b00001b8:	e1a0f00e 	mov	pc, lr
b00001bc:	7e00f000 	cdpvc	0, 0, cr15, cr0, cr0, {0}
b00001c0:	0000ffff 	streqd	pc, [r0], -pc
b00001c4:	7e00f900 	cdpvc	9, 0, cr15, cr0, cr0, {0}
b00001c8:	7e00f020 	cdpvc	0, 0, cr15, cr0, cr0, {1}
b00001cc:	7e00f00c 	cdpvc	0, 0, cr15, cr0, cr12, {0}
b00001d0:	810a0301 	tsthi	sl, r1, lsl #6
b00001d4:	7e00f010 	mcrvc	0, 0, pc, cr0, cr0, {0}
b00001d8:	7e00f01c 	mcrvc	0, 0, pc, cr0, cr12, {0}

b00001dc <sdram_init>:
b00001dc:	e92d47f0 	stmdb	sp!, {r4, r5, r6, r7, r8, r9, sl, lr}
b00001e0:	e59f9158 	ldr	r9, [pc, #344]	; b0000340 <.text+0x340>
b00001e4:	e3a03004 	mov	r3, #4	; 0x4
b00001e8:	e59f2154 	ldr	r2, [pc, #340]	; b0000344 <.text+0x344>
b00001ec:	e3a0e001 	mov	lr, #1	; 0x1
b00001f0:	e3a0c002 	mov	ip, #2	; 0x2
b00001f4:	e3a06003 	mov	r6, #3	; 0x3
b00001f8:	e3a07012 	mov	r7, #18	; 0x12
b00001fc:	e59f1144 	ldr	r1, [pc, #324]	; b0000348 <.text+0x348>
b0000200:	e5893000 	str	r3, [r9]
b0000204:	e59f3140 	ldr	r3, [pc, #320]	; b000034c <.text+0x34c>
b0000208:	e59f0140 	ldr	r0, [pc, #320]	; b0000350 <.text+0x350>
b000020c:	e5832000 	str	r2, [r3]
b0000210:	e3a02006 	mov	r2, #6	; 0x6
b0000214:	e2833004 	add	r3, r3, #4	; 0x4
b0000218:	e59fa134 	ldr	sl, [pc, #308]	; b0000354 <.text+0x354>
b000021c:	e4832004 	str	r2, [r3], #4
b0000220:	e082200e 	add	r2, r2, lr
b0000224:	e59f412c 	ldr	r4, [pc, #300]	; b0000358 <.text+0x358>
b0000228:	e483e004 	str	lr, [r3], #4
b000022c:	e3a05000 	mov	r5, #0	; 0x0
b0000230:	e3a08701 	mov	r8, #262144	; 0x40000
b0000234:	e483c004 	str	ip, [r3], #4
b0000238:	e5832000 	str	r2, [r3]
b000023c:	e082200c 	add	r2, r2, ip
b0000240:	e2833004 	add	r3, r3, #4	; 0x4
b0000244:	e4832004 	str	r2, [r3], #4
b0000248:	e59f210c 	ldr	r2, [pc, #268]	; b000035c <.text+0x35c>
b000024c:	e4836004 	str	r6, [r3], #4
b0000250:	e4832004 	str	r2, [r3], #4
b0000254:	e4836004 	str	r6, [r3], #4
b0000258:	e483c004 	str	ip, [r3], #4
b000025c:	e483c004 	str	ip, [r3], #4
b0000260:	e483e004 	str	lr, [r3], #4
b0000264:	e483e004 	str	lr, [r3], #4
b0000268:	e4837004 	str	r7, [r3], #4
b000026c:	e5837000 	str	r7, [r3]
b0000270:	e5913000 	ldr	r3, [r1]
b0000274:	e3c33007 	bic	r3, r3, #7	; 0x7
b0000278:	e183300c 	orr	r3, r3, ip
b000027c:	e5813000 	str	r3, [r1]
b0000280:	e5913000 	ldr	r3, [r1]
b0000284:	e3c33038 	bic	r3, r3, #56	; 0x38
b0000288:	e3833018 	orr	r3, r3, #24	; 0x18
b000028c:	e5813000 	str	r3, [r1]
b0000290:	e5913000 	ldr	r3, [r1]
b0000294:	e3c33040 	bic	r3, r3, #64	; 0x40
b0000298:	e5813000 	str	r3, [r1]
b000029c:	e5913000 	ldr	r3, [r1]
b00002a0:	e3c3390e 	bic	r3, r3, #229376	; 0x38000
b00002a4:	e3833801 	orr	r3, r3, #65536	; 0x10000
b00002a8:	e5813000 	str	r3, [r1]
b00002ac:	e5903000 	ldr	r3, [r0]
b00002b0:	e3c3300f 	bic	r3, r3, #15	; 0xf
b00002b4:	e3833005 	orr	r3, r3, #5	; 0x5
b00002b8:	e5803000 	str	r3, [r0]
b00002bc:	e5903000 	ldr	r3, [r0]
b00002c0:	e3c330c0 	bic	r3, r3, #192	; 0xc0
b00002c4:	e3833040 	orr	r3, r3, #64	; 0x40
b00002c8:	e5803000 	str	r3, [r0]
b00002cc:	e5903000 	ldr	r3, [r0]
b00002d0:	e3c33c07 	bic	r3, r3, #1792	; 0x700
b00002d4:	e3833c03 	orr	r3, r3, #768	; 0x300
b00002d8:	e5803000 	str	r3, [r0]
b00002dc:	e5903000 	ldr	r3, [r0]
b00002e0:	e3c33b06 	bic	r3, r3, #6144	; 0x1800
b00002e4:	e3833b02 	orr	r3, r3, #2048	; 0x800
b00002e8:	e5803000 	str	r3, [r0]
b00002ec:	e59a3000 	ldr	r3, [sl]
b00002f0:	e3833801 	orr	r3, r3, #65536	; 0x10000
b00002f4:	e58a3000 	str	r3, [sl]
b00002f8:	e3a03703 	mov	r3, #786432	; 0xc0000
b00002fc:	e5843000 	str	r3, [r4]
b0000300:	e2433802 	sub	r3, r3, #131072	; 0x20000
b0000304:	e5845000 	str	r5, [r4]
b0000308:	e5848000 	str	r8, [r4]
b000030c:	e5848000 	str	r8, [r4]
b0000310:	e5843000 	str	r3, [r4]
b0000314:	e59f3044 	ldr	r3, [pc, #68]	; b0000360 <.text+0x360>
b0000318:	e5843000 	str	r3, [r4]
b000031c:	e59f3040 	ldr	r3, [pc, #64]	; b0000364 <.text+0x364>
b0000320:	e5835000 	str	r5, [r3]
b0000324:	e5895000 	str	r5, [r9]
b0000328:	e59f3038 	ldr	r3, [pc, #56]	; b0000368 <.text+0x368>
b000032c:	e5933000 	ldr	r3, [r3]
b0000330:	e2033003 	and	r3, r3, #3	; 0x3
b0000334:	e3530001 	cmp	r3, #1	; 0x1
b0000338:	1afffffa 	bne	b0000328 <sdram_init+0x14c>
b000033c:	e8bd87f0 	ldmia	sp!, {r4, r5, r6, r7, r8, r9, sl, pc}
b0000340:	7e001004 	cdpvc	0, 0, cr1, cr0, cr4, {0}
b0000344:	0000045b 	andeq	r0, r0, fp, asr r4
b0000348:	7e00100c 	cdpvc	0, 0, cr1, cr0, cr12, {0}
b000034c:	7e001010 	mcrvc	0, 0, r1, cr0, cr0, {0}
b0000350:	7e00104c 	cdpvc	0, 0, cr1, cr0, cr12, {2}
b0000354:	7e001200 	cdpvc	2, 0, cr1, cr0, cr0, {0}
b0000358:	7e001008 	cdpvc	0, 0, cr1, cr0, cr8, {0}
b000035c:	0000010b 	andeq	r0, r0, fp, lsl #2
b0000360:	00080032 	andeq	r0, r8, r2, lsr r0
b0000364:	7e00f120 	mvfvcsp	f7, f0
b0000368:	7e001000 	cdpvc	0, 0, cr1, cr0, cr0, {0}

b000036c <sdram_test>:
b000036c:	e59f1048 	ldr	r1, [pc, #72]	; b00003bc <.text+0x3bc>
b0000370:	e3a00205 	mov	r0, #1342177280	; 0x50000000
b0000374:	e3a02000 	mov	r2, #0	; 0x0
b0000378:	e3a03055 	mov	r3, #85	; 0x55
b000037c:	e7c03002 	strb	r3, [r0, r2]
b0000380:	e2822001 	add	r2, r2, #1	; 0x1
b0000384:	e1520001 	cmp	r2, r1
b0000388:	dafffffa 	ble	b0000378 <sdram_test+0xc>
b000038c:	e3a02000 	mov	r2, #0	; 0x0
b0000390:	e7d03002 	ldrb	r3, [r0, r2]
b0000394:	e3530055 	cmp	r3, #85	; 0x55
b0000398:	e2822001 	add	r2, r2, #1	; 0x1
b000039c:	0a000001 	beq	b00003a8 <sdram_test+0x3c>
b00003a0:	e3e00000 	mvn	r0, #0	; 0x0
b00003a4:	e1a0f00e 	mov	pc, lr
b00003a8:	e59f300c 	ldr	r3, [pc, #12]	; b00003bc <.text+0x3bc>
b00003ac:	e1520003 	cmp	r2, r3
b00003b0:	dafffff6 	ble	b0000390 <sdram_test+0x24>
b00003b4:	e3a00000 	mov	r0, #0	; 0x0
b00003b8:	e1a0f00e 	mov	pc, lr
b00003bc:	0000270f 	andeq	r2, r0, pc, lsl #14

b00003c0 <isBootFromNorFlash>:
b00003c0:	e59f2020 	ldr	r2, [pc, #32]	; b00003e8 <.text+0x3e8>
b00003c4:	e3a01000 	mov	r1, #0	; 0x0
b00003c8:	e591c000 	ldr	ip, [r1]
b00003cc:	e5812000 	str	r2, [r1]
b00003d0:	e1a00001 	mov	r0, r1
b00003d4:	e5913000 	ldr	r3, [r1]
b00003d8:	e1530002 	cmp	r3, r2
b00003dc:	13a00001 	movne	r0, #1	; 0x1
b00003e0:	0581c000 	streq	ip, [r1]
b00003e4:	e1a0f00e 	mov	pc, lr
b00003e8:	12345678 	eornes	r5, r4, #125829120	; 0x7800000

b00003ec <copy2sdram>:
b00003ec:	e92d4070 	stmdb	sp!, {r4, r5, r6, lr}
b00003f0:	ebfffff2 	bl	b00003c0 <isBootFromNorFlash>
b00003f4:	e59f4044 	ldr	r4, [pc, #68]	; b0000440 <.text+0x440>
b00003f8:	e59f2044 	ldr	r2, [pc, #68]	; b0000444 <.text+0x444>
b00003fc:	e2505000 	subs	r5, r0, #0	; 0x0
b0000400:	e3a01000 	mov	r1, #0	; 0x0
b0000404:	e0646002 	rsb	r6, r4, r2
b0000408:	0a000006 	beq	b0000428 <copy2sdram+0x3c>
b000040c:	e1540002 	cmp	r4, r2
b0000410:	28bd8070 	ldmcsia	sp!, {r4, r5, r6, pc}
b0000414:	e4913004 	ldr	r3, [r1], #4
b0000418:	e4843004 	str	r3, [r4], #4
b000041c:	e1540002 	cmp	r4, r2
b0000420:	3afffffb 	bcc	b0000414 <copy2sdram+0x28>
b0000424:	e8bd8070 	ldmia	sp!, {r4, r5, r6, pc}
b0000428:	eb000016 	bl	b0000488 <nand_init>
b000042c:	e1a00005 	mov	r0, r5
b0000430:	e1a01004 	mov	r1, r4
b0000434:	e1a02006 	mov	r2, r6
b0000438:	e8bd4070 	ldmia	sp!, {r4, r5, r6, lr}
b000043c:	ea0000ab 	b	b00006f0 <nand_read>
b0000440:	b0000000 	andlt	r0, r0, r0
b0000444:	b000922c 	andlt	r9, r0, ip, lsr #4

b0000448 <clean_bss>:
b0000448:	e59f201c 	ldr	r2, [pc, #28]	; b000046c <.text+0x46c>
b000044c:	e59f101c 	ldr	r1, [pc, #28]	; b0000470 <.text+0x470>
b0000450:	e1520001 	cmp	r2, r1
b0000454:	81a0f00e 	movhi	pc, lr
b0000458:	e3a03000 	mov	r3, #0	; 0x0
b000045c:	e4823004 	str	r3, [r2], #4
b0000460:	e1520001 	cmp	r2, r1
b0000464:	9afffffb 	bls	b0000458 <clean_bss+0x10>
b0000468:	e1a0f00e 	mov	pc, lr
b000046c:	b000922c 	andlt	r9, r0, ip, lsr #4
b0000470:	b000bc40 	andlt	fp, r0, r0, asr #24
b0000474:	43434700 	cmpmi	r3, #0	; 0x0
b0000478:	4728203a 	undefined
b000047c:	2029554e 	eorcs	r5, r9, lr, asr #10
b0000480:	2e342e33 	mrccs	14, 1, r2, cr4, cr3, {1}
b0000484:	00000035 	andeq	r0, r0, r5, lsr r0

b0000488 <nand_init>:
b0000488:	e59f3024 	ldr	r3, [pc, #36]	; b00004b4 <.text+0x4b4>
b000048c:	e3a02c03 	mov	r2, #768	; 0x300
b0000490:	e5832000 	str	r2, [r3]
b0000494:	e59f201c 	ldr	r2, [pc, #28]	; b00004b8 <.text+0x4b8>
b0000498:	e5923000 	ldr	r3, [r2]
b000049c:	e3833003 	orr	r3, r3, #3	; 0x3
b00004a0:	e5823000 	str	r3, [r2]
b00004a4:	e5923000 	ldr	r3, [r2]
b00004a8:	e3c33801 	bic	r3, r3, #65536	; 0x10000
b00004ac:	e5823000 	str	r3, [r2]
b00004b0:	e1a0f00e 	mov	pc, lr
b00004b4:	70200000 	eorvc	r0, r0, r0
b00004b8:	70200004 	eorvc	r0, r0, r4

b00004bc <nand_select>:
b00004bc:	e59f200c 	ldr	r2, [pc, #12]	; b00004d0 <.text+0x4d0>
b00004c0:	e5923000 	ldr	r3, [r2]
b00004c4:	e3c33002 	bic	r3, r3, #2	; 0x2
b00004c8:	e5823000 	str	r3, [r2]
b00004cc:	e1a0f00e 	mov	pc, lr
b00004d0:	70200004 	eorvc	r0, r0, r4

b00004d4 <nand_deselect>:
b00004d4:	e59f200c 	ldr	r2, [pc, #12]	; b00004e8 <.text+0x4e8>
b00004d8:	e5923000 	ldr	r3, [r2]
b00004dc:	e3833002 	orr	r3, r3, #2	; 0x2
b00004e0:	e5823000 	str	r3, [r2]
b00004e4:	e1a0f00e 	mov	pc, lr
b00004e8:	70200004 	eorvc	r0, r0, r4

b00004ec <nand_cmd>:
b00004ec:	e59f302c 	ldr	r3, [pc, #44]	; b0000520 <.text+0x520>
b00004f0:	e20000ff 	and	r0, r0, #255	; 0xff
b00004f4:	e5c30000 	strb	r0, [r3]
b00004f8:	e24dd004 	sub	sp, sp, #4	; 0x4
b00004fc:	e3a03000 	mov	r3, #0	; 0x0
b0000500:	e58d3000 	str	r3, [sp]
b0000504:	e59d3000 	ldr	r3, [sp]
b0000508:	e3530004 	cmp	r3, #4	; 0x4
b000050c:	d59d3000 	ldrle	r3, [sp]
b0000510:	d2833001 	addle	r3, r3, #1	; 0x1
b0000514:	dafffff9 	ble	b0000500 <nand_cmd+0x14>
b0000518:	e28dd004 	add	sp, sp, #4	; 0x4
b000051c:	e1a0f00e 	mov	pc, lr
b0000520:	70200008 	eorvc	r0, r0, r8

b0000524 <nand_addr_byte>:
b0000524:	e59f302c 	ldr	r3, [pc, #44]	; b0000558 <.text+0x558>
b0000528:	e20000ff 	and	r0, r0, #255	; 0xff
b000052c:	e5c30000 	strb	r0, [r3]
b0000530:	e24dd004 	sub	sp, sp, #4	; 0x4
b0000534:	e3a03000 	mov	r3, #0	; 0x0
b0000538:	e58d3000 	str	r3, [sp]
b000053c:	e59d3000 	ldr	r3, [sp]
b0000540:	e3530004 	cmp	r3, #4	; 0x4
b0000544:	d59d3000 	ldrle	r3, [sp]
b0000548:	d2833001 	addle	r3, r3, #1	; 0x1
b000054c:	dafffff9 	ble	b0000538 <nand_addr_byte+0x14>
b0000550:	e28dd004 	add	sp, sp, #4	; 0x4
b0000554:	e1a0f00e 	mov	pc, lr
b0000558:	7020000c 	eorvc	r0, r0, ip

b000055c <nand_data>:
b000055c:	e59f3004 	ldr	r3, [pc, #4]	; b0000568 <.text+0x568>
b0000560:	e5d30000 	ldrb	r0, [r3]
b0000564:	e1a0f00e 	mov	pc, lr
b0000568:	70200010 	eorvc	r0, r0, r0, lsl r0

b000056c <nand_w_data>:
b000056c:	e59f3008 	ldr	r3, [pc, #8]	; b000057c <.text+0x57c>
b0000570:	e20000ff 	and	r0, r0, #255	; 0xff
b0000574:	e5c30000 	strb	r0, [r3]
b0000578:	e1a0f00e 	mov	pc, lr
b000057c:	70200010 	eorvc	r0, r0, r0, lsl r0

b0000580 <nand_chip_id>:
b0000580:	e92d4010 	stmdb	sp!, {r4, lr}
b0000584:	e3a04000 	mov	r4, #0	; 0x0
b0000588:	e24dd008 	sub	sp, sp, #8	; 0x8
b000058c:	e58d4000 	str	r4, [sp]
b0000590:	e5cd4004 	strb	r4, [sp, #4]
b0000594:	ebffffc8 	bl	b00004bc <nand_select>
b0000598:	e3a00090 	mov	r0, #144	; 0x90
b000059c:	ebffffd2 	bl	b00004ec <nand_cmd>
b00005a0:	e1a00004 	mov	r0, r4
b00005a4:	ebffffde 	bl	b0000524 <nand_addr_byte>
b00005a8:	ebffffeb 	bl	b000055c <nand_data>
b00005ac:	e5cd0000 	strb	r0, [sp]
b00005b0:	ebffffe9 	bl	b000055c <nand_data>
b00005b4:	e5cd0001 	strb	r0, [sp, #1]
b00005b8:	ebffffe7 	bl	b000055c <nand_data>
b00005bc:	e5cd0002 	strb	r0, [sp, #2]
b00005c0:	ebffffe5 	bl	b000055c <nand_data>
b00005c4:	e5cd0003 	strb	r0, [sp, #3]
b00005c8:	ebffffe3 	bl	b000055c <nand_data>
b00005cc:	e5cd0004 	strb	r0, [sp, #4]
b00005d0:	ebffffbf 	bl	b00004d4 <nand_deselect>
b00005d4:	e5dd1000 	ldrb	r1, [sp]
b00005d8:	e59f006c 	ldr	r0, [pc, #108]	; b000064c <.text+0x64c>
b00005dc:	eb001269 	bl	b0004f88 <printf>
b00005e0:	e5dd1001 	ldrb	r1, [sp, #1]
b00005e4:	e59f0064 	ldr	r0, [pc, #100]	; b0000650 <.text+0x650>
b00005e8:	eb001266 	bl	b0004f88 <printf>
b00005ec:	e5dd1002 	ldrb	r1, [sp, #2]
b00005f0:	e59f005c 	ldr	r0, [pc, #92]	; b0000654 <.text+0x654>
b00005f4:	eb001263 	bl	b0004f88 <printf>
b00005f8:	e5dd1003 	ldrb	r1, [sp, #3]
b00005fc:	e59f0054 	ldr	r0, [pc, #84]	; b0000658 <.text+0x658>
b0000600:	eb001260 	bl	b0004f88 <printf>
b0000604:	e5dd1004 	ldrb	r1, [sp, #4]
b0000608:	e59f004c 	ldr	r0, [pc, #76]	; b000065c <.text+0x65c>
b000060c:	eb00125d 	bl	b0004f88 <printf>
b0000610:	e5dd1003 	ldrb	r1, [sp, #3]
b0000614:	e3a03001 	mov	r3, #1	; 0x1
b0000618:	e2011003 	and	r1, r1, #3	; 0x3
b000061c:	e1a01113 	mov	r1, r3, lsl r1
b0000620:	e59f0038 	ldr	r0, [pc, #56]	; b0000660 <.text+0x660>
b0000624:	eb001257 	bl	b0004f88 <printf>
b0000628:	e5dd1003 	ldrb	r1, [sp, #3]
b000062c:	e1a01221 	mov	r1, r1, lsr #4
b0000630:	e3a03040 	mov	r3, #64	; 0x40
b0000634:	e2011003 	and	r1, r1, #3	; 0x3
b0000638:	e1a01113 	mov	r1, r3, lsl r1
b000063c:	e59f0020 	ldr	r0, [pc, #32]	; b0000664 <.text+0x664>
b0000640:	eb001250 	bl	b0004f88 <printf>
b0000644:	e28dd008 	add	sp, sp, #8	; 0x8
b0000648:	e8bd8010 	ldmia	sp!, {r4, pc}
b000064c:	b0000b7c 	andlt	r0, r0, ip, ror fp
b0000650:	b0000b94 	mullt	r0, r4, fp
b0000654:	b0000bac 	andlt	r0, r0, ip, lsr #23
b0000658:	b0000bc4 	andlt	r0, r0, r4, asr #23
b000065c:	b0000bdc 	ldrltd	r0, [r0], -ip
b0000660:	b0000bf4 	strltd	r0, [r0], -r4
b0000664:	b0000c10 	andlt	r0, r0, r0, lsl ip

b0000668 <wait_ready>:
b0000668:	e59f300c 	ldr	r3, [pc, #12]	; b000067c <.text+0x67c>
b000066c:	e5d33000 	ldrb	r3, [r3]
b0000670:	e3130001 	tst	r3, #1	; 0x1
b0000674:	0afffffb 	beq	b0000668 <wait_ready>
b0000678:	e1a0f00e 	mov	pc, lr
b000067c:	70200028 	eorvc	r0, r0, r8, lsr #32

b0000680 <nand_bad>:
b0000680:	e92d4030 	stmdb	sp!, {r4, r5, lr}
b0000684:	e1a05000 	mov	r5, r0
b0000688:	ebffff8b 	bl	b00004bc <nand_select>
b000068c:	e3a00000 	mov	r0, #0	; 0x0
b0000690:	ebffff95 	bl	b00004ec <nand_cmd>
b0000694:	e1a045a5 	mov	r4, r5, lsr #11
b0000698:	e3a00000 	mov	r0, #0	; 0x0
b000069c:	ebffffa0 	bl	b0000524 <nand_addr_byte>
b00006a0:	e20440ff 	and	r4, r4, #255	; 0xff
b00006a4:	e3a00008 	mov	r0, #8	; 0x8
b00006a8:	ebffff9d 	bl	b0000524 <nand_addr_byte>
b00006ac:	e1a00004 	mov	r0, r4
b00006b0:	ebffff9b 	bl	b0000524 <nand_addr_byte>
b00006b4:	e1a009a5 	mov	r0, r5, lsr #19
b00006b8:	e20000ff 	and	r0, r0, #255	; 0xff
b00006bc:	ebffff98 	bl	b0000524 <nand_addr_byte>
b00006c0:	e1a00da5 	mov	r0, r5, lsr #27
b00006c4:	ebffff96 	bl	b0000524 <nand_addr_byte>
b00006c8:	e3a00030 	mov	r0, #48	; 0x30
b00006cc:	ebffff86 	bl	b00004ec <nand_cmd>
b00006d0:	ebffffe4 	bl	b0000668 <wait_ready>
b00006d4:	ebffffa0 	bl	b000055c <nand_data>
b00006d8:	e1a04000 	mov	r4, r0
b00006dc:	ebffff7c 	bl	b00004d4 <nand_deselect>
b00006e0:	e20440ff 	and	r4, r4, #255	; 0xff
b00006e4:	e25400ff 	subs	r0, r4, #255	; 0xff
b00006e8:	13a00001 	movne	r0, #1	; 0x1
b00006ec:	e8bd8030 	ldmia	sp!, {r4, r5, pc}

b00006f0 <nand_read>:
b00006f0:	e92d45f0 	stmdb	sp!, {r4, r5, r6, r7, r8, sl, lr}
b00006f4:	e3a06000 	mov	r6, #0	; 0x0
b00006f8:	e1a04a80 	mov	r4, r0, lsl #21
b00006fc:	e1a08000 	mov	r8, r0
b0000700:	e1a07002 	mov	r7, r2
b0000704:	e1560002 	cmp	r6, r2
b0000708:	e1a0a001 	mov	sl, r1
b000070c:	e1a04aa4 	mov	r4, r4, lsr #21
b0000710:	e1a055a0 	mov	r5, r0, lsr #11
b0000714:	2a00002d 	bcs	b00007d0 <nand_read+0xe0>
b0000718:	e3c834ff 	bic	r3, r8, #-16777216	; 0xff000000
b000071c:	e3c338fe 	bic	r3, r3, #16646144	; 0xfe0000
b0000720:	e3530000 	cmp	r3, #0	; 0x0
b0000724:	1a000004 	bne	b000073c <nand_read+0x4c>
b0000728:	e1a00008 	mov	r0, r8
b000072c:	ebffffd3 	bl	b0000680 <nand_bad>
b0000730:	e3500000 	cmp	r0, #0	; 0x0
b0000734:	12855040 	addne	r5, r5, #64	; 0x40
b0000738:	1a000022 	bne	b00007c8 <nand_read+0xd8>
b000073c:	ebffff5e 	bl	b00004bc <nand_select>
b0000740:	e3a00000 	mov	r0, #0	; 0x0
b0000744:	ebffff68 	bl	b00004ec <nand_cmd>
b0000748:	e20400ff 	and	r0, r4, #255	; 0xff
b000074c:	ebffff74 	bl	b0000524 <nand_addr_byte>
b0000750:	e1a00424 	mov	r0, r4, lsr #8
b0000754:	e20000ff 	and	r0, r0, #255	; 0xff
b0000758:	ebffff71 	bl	b0000524 <nand_addr_byte>
b000075c:	e20500ff 	and	r0, r5, #255	; 0xff
b0000760:	ebffff6f 	bl	b0000524 <nand_addr_byte>
b0000764:	e1a00425 	mov	r0, r5, lsr #8
b0000768:	e20000ff 	and	r0, r0, #255	; 0xff
b000076c:	ebffff6c 	bl	b0000524 <nand_addr_byte>
b0000770:	e1a00825 	mov	r0, r5, lsr #16
b0000774:	e20000ff 	and	r0, r0, #255	; 0xff
b0000778:	ebffff69 	bl	b0000524 <nand_addr_byte>
b000077c:	e3a00030 	mov	r0, #48	; 0x30
b0000780:	ebffff59 	bl	b00004ec <nand_cmd>
b0000784:	ebffffb7 	bl	b0000668 <wait_ready>
b0000788:	e3540b02 	cmp	r4, #2048	; 0x800
b000078c:	a3a03000 	movge	r3, #0	; 0x0
b0000790:	b3a03001 	movlt	r3, #1	; 0x1
b0000794:	e1560007 	cmp	r6, r7
b0000798:	23a03000 	movcs	r3, #0	; 0x0
b000079c:	e3530000 	cmp	r3, #0	; 0x0
b00007a0:	0a000004 	beq	b00007b8 <nand_read+0xc8>
b00007a4:	ebffff6c 	bl	b000055c <nand_data>
b00007a8:	e2844001 	add	r4, r4, #1	; 0x1
b00007ac:	e7c6000a 	strb	r0, [r6, sl]
b00007b0:	e2866001 	add	r6, r6, #1	; 0x1
b00007b4:	eafffff3 	b	b0000788 <nand_read+0x98>
b00007b8:	e1560007 	cmp	r6, r7
b00007bc:	0a000003 	beq	b00007d0 <nand_read+0xe0>
b00007c0:	e2855001 	add	r5, r5, #1	; 0x1
b00007c4:	e3a04000 	mov	r4, #0	; 0x0
b00007c8:	e1560007 	cmp	r6, r7
b00007cc:	eaffffd0 	b	b0000714 <nand_read+0x24>
b00007d0:	e8bd45f0 	ldmia	sp!, {r4, r5, r6, r7, r8, sl, lr}
b00007d4:	eaffff3e 	b	b00004d4 <nand_deselect>

b00007d8 <do_read_nand_flash>:
b00007d8:	e92d4070 	stmdb	sp!, {r4, r5, r6, lr}
b00007dc:	e59f00a4 	ldr	r0, [pc, #164]	; b0000888 <.text+0x888>
b00007e0:	e3a05000 	mov	r5, #0	; 0x0
b00007e4:	e24dd040 	sub	sp, sp, #64	; 0x40
b00007e8:	eb0011e6 	bl	b0004f88 <printf>
b00007ec:	eb001234 	bl	b00050c4 <get_uint>
b00007f0:	e1a0100d 	mov	r1, sp
b00007f4:	e3a02040 	mov	r2, #64	; 0x40
b00007f8:	ebffffbc 	bl	b00006f0 <nand_read>
b00007fc:	e59f0088 	ldr	r0, [pc, #136]	; b000088c <.text+0x88c>
b0000800:	eb0011e0 	bl	b0004f88 <printf>
b0000804:	e3a04000 	mov	r4, #0	; 0x0
b0000808:	e28d2040 	add	r2, sp, #64	; 0x40
b000080c:	e1a06205 	mov	r6, r5, lsl #4
b0000810:	e0863002 	add	r3, r6, r2
b0000814:	e0833004 	add	r3, r3, r4
b0000818:	e5531040 	ldrb	r1, [r3, #-64]
b000081c:	e2844001 	add	r4, r4, #1	; 0x1
b0000820:	e59f0068 	ldr	r0, [pc, #104]	; b0000890 <.text+0x890>
b0000824:	eb0011d7 	bl	b0004f88 <printf>
b0000828:	e354000f 	cmp	r4, #15	; 0xf
b000082c:	dafffff5 	ble	b0000808 <do_read_nand_flash+0x30>
b0000830:	e59f005c 	ldr	r0, [pc, #92]	; b0000894 <.text+0x894>
b0000834:	eb0011d3 	bl	b0004f88 <printf>
b0000838:	e3a04000 	mov	r4, #0	; 0x0
b000083c:	e28d2040 	add	r2, sp, #64	; 0x40
b0000840:	e0863002 	add	r3, r6, r2
b0000844:	e0833004 	add	r3, r3, r4
b0000848:	e5532040 	ldrb	r2, [r3, #-64]
b000084c:	e2423020 	sub	r3, r2, #32	; 0x20
b0000850:	e353005e 	cmp	r3, #94	; 0x5e
b0000854:	e3a0002e 	mov	r0, #46	; 0x2e
b0000858:	e2844001 	add	r4, r4, #1	; 0x1
b000085c:	91a00002 	movls	r0, r2
b0000860:	eb000200 	bl	b0001068 <putc>
b0000864:	e354000f 	cmp	r4, #15	; 0xf
b0000868:	dafffff3 	ble	b000083c <do_read_nand_flash+0x64>
b000086c:	e2855001 	add	r5, r5, #1	; 0x1
b0000870:	e59f0020 	ldr	r0, [pc, #32]	; b0000898 <.text+0x898>
b0000874:	eb0011c3 	bl	b0004f88 <printf>
b0000878:	e3550003 	cmp	r5, #3	; 0x3
b000087c:	daffffe0 	ble	b0000804 <do_read_nand_flash+0x2c>
b0000880:	e28dd040 	add	sp, sp, #64	; 0x40
b0000884:	e8bd8070 	ldmia	sp!, {r4, r5, r6, pc}
b0000888:	b0000c2c 	andlt	r0, r0, ip, lsr #24
b000088c:	b0000c48 	andlt	r0, r0, r8, asr #24
b0000890:	b0000c54 	andlt	r0, r0, r4, asr ip
b0000894:	b0000c5c 	andlt	r0, r0, ip, asr ip
b0000898:	b0008ca0 	andlt	r8, r0, r0, lsr #25

b000089c <nand_erase>:
b000089c:	e3c034ff 	bic	r3, r0, #-16777216	; 0xff000000
b00008a0:	e3c338fe 	bic	r3, r3, #16646144	; 0xfe0000
b00008a4:	e3530000 	cmp	r3, #0	; 0x0
b00008a8:	e92d4030 	stmdb	sp!, {r4, r5, lr}
b00008ac:	e1a055a0 	mov	r5, r0, lsr #11
b00008b0:	e1a04001 	mov	r4, r1
b00008b4:	159f0064 	ldrne	r0, [pc, #100]	; b0000920 <.text+0x920>
b00008b8:	1a000004 	bne	b00008d0 <nand_erase+0x34>
b00008bc:	e3c134ff 	bic	r3, r1, #-16777216	; 0xff000000
b00008c0:	e3c338fe 	bic	r3, r3, #16646144	; 0xfe0000
b00008c4:	e3530000 	cmp	r3, #0	; 0x0
b00008c8:	0a000003 	beq	b00008dc <nand_erase+0x40>
b00008cc:	e59f0050 	ldr	r0, [pc, #80]	; b0000924 <.text+0x924>
b00008d0:	eb0011ac 	bl	b0004f88 <printf>
b00008d4:	e3e00000 	mvn	r0, #0	; 0x0
b00008d8:	e8bd8030 	ldmia	sp!, {r4, r5, pc}
b00008dc:	ebfffef6 	bl	b00004bc <nand_select>
b00008e0:	e3a00060 	mov	r0, #96	; 0x60
b00008e4:	ebffff00 	bl	b00004ec <nand_cmd>
b00008e8:	e20500ff 	and	r0, r5, #255	; 0xff
b00008ec:	ebffff0c 	bl	b0000524 <nand_addr_byte>
b00008f0:	e1a00445 	mov	r0, r5, asr #8
b00008f4:	e20000ff 	and	r0, r0, #255	; 0xff
b00008f8:	ebffff09 	bl	b0000524 <nand_addr_byte>
b00008fc:	e1a00825 	mov	r0, r5, lsr #16
b0000900:	ebffff07 	bl	b0000524 <nand_addr_byte>
b0000904:	e3a000d0 	mov	r0, #208	; 0xd0
b0000908:	ebfffef7 	bl	b00004ec <nand_cmd>
b000090c:	ebffff55 	bl	b0000668 <wait_ready>
b0000910:	e2544802 	subs	r4, r4, #131072	; 0x20000
b0000914:	1afffff1 	bne	b00008e0 <nand_erase+0x44>
b0000918:	e1a00004 	mov	r0, r4
b000091c:	e8bd8030 	ldmia	sp!, {r4, r5, pc}
b0000920:	b0000c64 	andlt	r0, r0, r4, ror #24
b0000924:	b0000c90 	mullt	r0, r0, ip

b0000928 <nand_write>:
b0000928:	e92d45f0 	stmdb	sp!, {r4, r5, r6, r7, r8, sl, lr}
b000092c:	e1a04a80 	mov	r4, r0, lsl #21
b0000930:	e1a06000 	mov	r6, r0
b0000934:	e1a0a001 	mov	sl, r1
b0000938:	e1a07002 	mov	r7, r2
b000093c:	e1a04aa4 	mov	r4, r4, lsr #21
b0000940:	e3a08000 	mov	r8, #0	; 0x0
b0000944:	e1a055a0 	mov	r5, r0, lsr #11
b0000948:	e3c634ff 	bic	r3, r6, #-16777216	; 0xff000000
b000094c:	e3c338fe 	bic	r3, r3, #16646144	; 0xfe0000
b0000950:	e3530000 	cmp	r3, #0	; 0x0
b0000954:	1a000004 	bne	b000096c <nand_write+0x44>
b0000958:	e1a00006 	mov	r0, r6
b000095c:	ebffff47 	bl	b0000680 <nand_bad>
b0000960:	e3500000 	cmp	r0, #0	; 0x0
b0000964:	12855040 	addne	r5, r5, #64	; 0x40
b0000968:	1afffff6 	bne	b0000948 <nand_write+0x20>
b000096c:	ebfffed2 	bl	b00004bc <nand_select>
b0000970:	e3a00080 	mov	r0, #128	; 0x80
b0000974:	ebfffedc 	bl	b00004ec <nand_cmd>
b0000978:	e20400ff 	and	r0, r4, #255	; 0xff
b000097c:	ebfffee8 	bl	b0000524 <nand_addr_byte>
b0000980:	e1a00424 	mov	r0, r4, lsr #8
b0000984:	ebfffee6 	bl	b0000524 <nand_addr_byte>
b0000988:	e20500ff 	and	r0, r5, #255	; 0xff
b000098c:	ebfffee4 	bl	b0000524 <nand_addr_byte>
b0000990:	e1a00425 	mov	r0, r5, lsr #8
b0000994:	e20000ff 	and	r0, r0, #255	; 0xff
b0000998:	ebfffee1 	bl	b0000524 <nand_addr_byte>
b000099c:	e1a00825 	mov	r0, r5, lsr #16
b00009a0:	e20000ff 	and	r0, r0, #255	; 0xff
b00009a4:	ebfffede 	bl	b0000524 <nand_addr_byte>
b00009a8:	e3540b02 	cmp	r4, #2048	; 0x800
b00009ac:	a3a03000 	movge	r3, #0	; 0x0
b00009b0:	b3a03001 	movlt	r3, #1	; 0x1
b00009b4:	e1580007 	cmp	r8, r7
b00009b8:	23a03000 	movcs	r3, #0	; 0x0
b00009bc:	e3530000 	cmp	r3, #0	; 0x0
b00009c0:	0a000003 	beq	b00009d4 <nand_write+0xac>
b00009c4:	e7d8000a 	ldrb	r0, [r8, sl]
b00009c8:	e2888001 	add	r8, r8, #1	; 0x1
b00009cc:	ebfffee6 	bl	b000056c <nand_w_data>
b00009d0:	eafffff4 	b	b00009a8 <nand_write+0x80>
b00009d4:	e3a00010 	mov	r0, #16	; 0x10
b00009d8:	ebfffec3 	bl	b00004ec <nand_cmd>
b00009dc:	ebffff21 	bl	b0000668 <wait_ready>
b00009e0:	e1580007 	cmp	r8, r7
b00009e4:	12855001 	addne	r5, r5, #1	; 0x1
b00009e8:	13a04000 	movne	r4, #0	; 0x0
b00009ec:	1affffd5 	bne	b0000948 <nand_write+0x20>
b00009f0:	e8bd45f0 	ldmia	sp!, {r4, r5, r6, r7, r8, sl, lr}
b00009f4:	eafffeb6 	b	b00004d4 <nand_deselect>

b00009f8 <do_erase_nand_flash>:
b00009f8:	e92d4010 	stmdb	sp!, {r4, lr}
b00009fc:	e59f0020 	ldr	r0, [pc, #32]	; b0000a24 <.text+0xa24>
b0000a00:	eb001160 	bl	b0004f88 <printf>
b0000a04:	eb0011ae 	bl	b00050c4 <get_uint>
b0000a08:	e1a04000 	mov	r4, r0
b0000a0c:	e59f0014 	ldr	r0, [pc, #20]	; b0000a28 <.text+0xa28>
b0000a10:	eb00115c 	bl	b0004f88 <printf>
b0000a14:	e1a00004 	mov	r0, r4
b0000a18:	e3a01802 	mov	r1, #131072	; 0x20000
b0000a1c:	e8bd4010 	ldmia	sp!, {r4, lr}
b0000a20:	eaffff9d 	b	b000089c <nand_erase>
b0000a24:	b0000cbc 	strlth	r0, [r0], -ip
b0000a28:	b0000ce4 	andlt	r0, r0, r4, ror #25

b0000a2c <do_write_nand_flash>:
b0000a2c:	e92d4030 	stmdb	sp!, {r4, r5, lr}
b0000a30:	e59f0048 	ldr	r0, [pc, #72]	; b0000a80 <.text+0xa80>
b0000a34:	e24dd064 	sub	sp, sp, #100	; 0x64
b0000a38:	eb001152 	bl	b0004f88 <printf>
b0000a3c:	eb0011a0 	bl	b00050c4 <get_uint>
b0000a40:	e1a04000 	mov	r4, r0
b0000a44:	e59f0038 	ldr	r0, [pc, #56]	; b0000a84 <.text+0xa84>
b0000a48:	eb00114e 	bl	b0004f88 <printf>
b0000a4c:	e1a0000d 	mov	r0, sp
b0000a50:	eb001179 	bl	b000503c <gets>
b0000a54:	e59f002c 	ldr	r0, [pc, #44]	; b0000a88 <.text+0xa88>
b0000a58:	eb00114a 	bl	b0004f88 <printf>
b0000a5c:	e1a0000d 	mov	r0, sp
b0000a60:	eb00121a 	bl	b00052d0 <strlen>
b0000a64:	e1a0100d 	mov	r1, sp
b0000a68:	e2802001 	add	r2, r0, #1	; 0x1
b0000a6c:	e1a00004 	mov	r0, r4
b0000a70:	e1a0500d 	mov	r5, sp
b0000a74:	ebffffab 	bl	b0000928 <nand_write>
b0000a78:	e28dd064 	add	sp, sp, #100	; 0x64
b0000a7c:	e8bd8030 	ldmia	sp!, {r4, r5, pc}
b0000a80:	b0000cf4 	strltd	r0, [r0], -r4
b0000a84:	b0000d1c 	andlt	r0, r0, ip, lsl sp
b0000a88:	b0000d38 	andlt	r0, r0, r8, lsr sp

b0000a8c <nand_flash_test>:
b0000a8c:	e92d4010 	stmdb	sp!, {r4, lr}
b0000a90:	e59f00c8 	ldr	r0, [pc, #200]	; b0000b60 <.text+0xb60>
b0000a94:	eb00113b 	bl	b0004f88 <printf>
b0000a98:	e59f00c4 	ldr	r0, [pc, #196]	; b0000b64 <.text+0xb64>
b0000a9c:	eb001139 	bl	b0004f88 <printf>
b0000aa0:	e59f00c0 	ldr	r0, [pc, #192]	; b0000b68 <.text+0xb68>
b0000aa4:	eb001137 	bl	b0004f88 <printf>
b0000aa8:	e59f00bc 	ldr	r0, [pc, #188]	; b0000b6c <.text+0xb6c>
b0000aac:	eb001135 	bl	b0004f88 <printf>
b0000ab0:	e59f00b8 	ldr	r0, [pc, #184]	; b0000b70 <.text+0xb70>
b0000ab4:	eb001133 	bl	b0004f88 <printf>
b0000ab8:	e59f00b4 	ldr	r0, [pc, #180]	; b0000b74 <.text+0xb74>
b0000abc:	eb001131 	bl	b0004f88 <printf>
b0000ac0:	eb000172 	bl	b0001090 <getc>
b0000ac4:	e20040ff 	and	r4, r0, #255	; 0xff
b0000ac8:	e1a01004 	mov	r1, r4
b0000acc:	e59f00a4 	ldr	r0, [pc, #164]	; b0000b78 <.text+0xb78>
b0000ad0:	eb00112c 	bl	b0004f88 <printf>
b0000ad4:	e3540057 	cmp	r4, #87	; 0x57
b0000ad8:	0a00001c 	beq	b0000b50 <nand_flash_test+0xc4>
b0000adc:	ca00000a 	bgt	b0000b0c <nand_flash_test+0x80>
b0000ae0:	e3540051 	cmp	r4, #81	; 0x51
b0000ae4:	08bd8010 	ldmeqia	sp!, {r4, pc}
b0000ae8:	ca000002 	bgt	b0000af8 <nand_flash_test+0x6c>
b0000aec:	e3540045 	cmp	r4, #69	; 0x45
b0000af0:	0a000014 	beq	b0000b48 <nand_flash_test+0xbc>
b0000af4:	eaffffe5 	b	b0000a90 <nand_flash_test+0x4>
b0000af8:	e3540052 	cmp	r4, #82	; 0x52
b0000afc:	0a000015 	beq	b0000b58 <nand_flash_test+0xcc>
b0000b00:	e3540053 	cmp	r4, #83	; 0x53
b0000b04:	0a00000d 	beq	b0000b40 <nand_flash_test+0xb4>
b0000b08:	eaffffe0 	b	b0000a90 <nand_flash_test+0x4>
b0000b0c:	e3540072 	cmp	r4, #114	; 0x72
b0000b10:	0a000010 	beq	b0000b58 <nand_flash_test+0xcc>
b0000b14:	ca000004 	bgt	b0000b2c <nand_flash_test+0xa0>
b0000b18:	e3540065 	cmp	r4, #101	; 0x65
b0000b1c:	0a000009 	beq	b0000b48 <nand_flash_test+0xbc>
b0000b20:	e3540071 	cmp	r4, #113	; 0x71
b0000b24:	08bd8010 	ldmeqia	sp!, {r4, pc}
b0000b28:	eaffffd8 	b	b0000a90 <nand_flash_test+0x4>
b0000b2c:	e3540073 	cmp	r4, #115	; 0x73
b0000b30:	0a000002 	beq	b0000b40 <nand_flash_test+0xb4>
b0000b34:	e3540077 	cmp	r4, #119	; 0x77
b0000b38:	0a000004 	beq	b0000b50 <nand_flash_test+0xc4>
b0000b3c:	eaffffd3 	b	b0000a90 <nand_flash_test+0x4>
b0000b40:	ebfffe8e 	bl	b0000580 <nand_chip_id>
b0000b44:	eaffffd1 	b	b0000a90 <nand_flash_test+0x4>
b0000b48:	ebffffaa 	bl	b00009f8 <do_erase_nand_flash>
b0000b4c:	eaffffcf 	b	b0000a90 <nand_flash_test+0x4>
b0000b50:	ebffffb5 	bl	b0000a2c <do_write_nand_flash>
b0000b54:	eaffffcd 	b	b0000a90 <nand_flash_test+0x4>
b0000b58:	ebffff1e 	bl	b00007d8 <do_read_nand_flash>
b0000b5c:	eaffffcb 	b	b0000a90 <nand_flash_test+0x4>
b0000b60:	b0000d48 	andlt	r0, r0, r8, asr #26
b0000b64:	b0000d60 	andlt	r0, r0, r0, ror #26
b0000b68:	b0000d78 	andlt	r0, r0, r8, ror sp
b0000b6c:	b0000d90 	mullt	r0, r0, sp
b0000b70:	b0000da8 	andlt	r0, r0, r8, lsr #27
b0000b74:	b0000db4 	strlth	r0, [r0], -r4
b0000b78:	b0000dc8 	andlt	r0, r0, r8, asr #27
b0000b7c:	756e616d 	strvcb	r6, [lr, #-365]!
b0000b80:	09096166 	stmeqdb	r9, {r1, r2, r5, r6, r8, sp, lr}
b0000b84:	20206469 	eorcs	r6, r0, r9, ror #8
b0000b88:	7830203d 	ldmvcda	r0!, {r0, r2, r3, r4, r5, sp}
b0000b8c:	0d0a7825 	stceq	8, cr7, [sl, #-148]
b0000b90:	00000000 	andeq	r0, r0, r0
b0000b94:	69766564 	ldmvsdb	r6!, {r2, r5, r6, r8, sl, sp, lr}^
b0000b98:	09096563 	stmeqdb	r9, {r0, r1, r5, r6, r8, sl, sp, lr}
b0000b9c:	20206469 	eorcs	r6, r0, r9, ror #8
b0000ba0:	7830203d 	ldmvcda	r0!, {r0, r2, r3, r4, r5, sp}
b0000ba4:	0d0a7825 	stceq	8, cr7, [sl, #-148]
b0000ba8:	00000000 	andeq	r0, r0, r0
b0000bac:	20647233 	rsbcs	r7, r4, r3, lsr r2
b0000bb0:	65747962 	ldrvsb	r7, [r4, #-2402]!
b0000bb4:	20646909 	rsbcs	r6, r4, r9, lsl #18
b0000bb8:	30203d20 	eorcc	r3, r0, r0, lsr #26
b0000bbc:	0a782578 	beq	b1e0a1a4 <__bss_end+0x1dfe564>
b0000bc0:	0000000d 	andeq	r0, r0, sp
b0000bc4:	20687434 	rsbcs	r7, r8, r4, lsr r4
b0000bc8:	65747962 	ldrvsb	r7, [r4, #-2402]!
b0000bcc:	20646909 	rsbcs	r6, r4, r9, lsl #18
b0000bd0:	30203d20 	eorcc	r3, r0, r0, lsr #26
b0000bd4:	0a782578 	beq	b1e0a1bc <__bss_end+0x1dfe57c>
b0000bd8:	0000000d 	andeq	r0, r0, sp
b0000bdc:	20687435 	rsbcs	r7, r8, r5, lsr r4
b0000be0:	65747962 	ldrvsb	r7, [r4, #-2402]!
b0000be4:	20646909 	rsbcs	r6, r4, r9, lsl #18
b0000be8:	30203d20 	eorcc	r3, r0, r0, lsr #26
b0000bec:	0a782578 	beq	b1e0a1d4 <__bss_end+0x1dfe594>
b0000bf0:	0000000d 	andeq	r0, r0, sp
b0000bf4:	65676170 	strvsb	r6, [r7, #-368]!
b0000bf8:	7a697320 	bvc	b1a5d880 <__bss_end+0x1a51c40>
b0000bfc:	20092065 	andcs	r2, r9, r5, rrx
b0000c00:	3d202020 	stccc	0, cr2, [r0, #-128]!
b0000c04:	20642520 	rsbcs	r2, r4, r0, lsr #10
b0000c08:	0d0a424b 	sfmeq	f4, 4, [sl, #-300]
b0000c0c:	00000000 	andeq	r0, r0, r0
b0000c10:	636f6c62 	cmnvs	pc, #25088	; 0x6200
b0000c14:	6973206b 	ldmvsdb	r3!, {r0, r1, r3, r5, r6, sp}^
b0000c18:	0920657a 	stmeqdb	r0!, {r1, r3, r4, r5, r6, r8, sl, sp, lr}
b0000c1c:	20202020 	eorcs	r2, r0, r0, lsr #32
b0000c20:	6425203d 	strvst	r2, [r5], #-61
b0000c24:	0a424b20 	beq	b10938ac <__bss_end+0x1087c6c>
b0000c28:	0000000d 	andeq	r0, r0, sp
b0000c2c:	65746e45 	ldrvsb	r6, [r4, #-3653]!
b0000c30:	68742072 	ldmvsda	r4!, {r1, r4, r5, r6, sp}^
b0000c34:	64612065 	strvsbt	r2, [r1], #-101
b0000c38:	73657264 	cmnvc	r5, #1073741830	; 0x40000006
b0000c3c:	6f742073 	swivs	0x00742073
b0000c40:	61657220 	cmnvs	r5, r0, lsr #4
b0000c44:	00203a64 	eoreq	r3, r0, r4, ror #20
b0000c48:	61746144 	cmnvs	r4, r4, asr #2
b0000c4c:	0a203a20 	beq	b080f4d4 <__bss_end+0x803894>
b0000c50:	0000000d 	andeq	r0, r0, sp
b0000c54:	78323025 	ldmvcda	r2!, {r0, r2, r5, ip, sp}
b0000c58:	00000020 	andeq	r0, r0, r0, lsr #32
b0000c5c:	3b202020 	blcc	b0808ce4 <__bss_end+0x7fd0a4>
b0000c60:	00000020 	andeq	r0, r0, r0, lsr #32
b0000c64:	646e616e 	strvsbt	r6, [lr], #-366
b0000c68:	61726520 	cmnvs	r2, r0, lsr #10
b0000c6c:	65206573 	strvs	r6, [r0, #-1395]!
b0000c70:	726f7272 	rsbvc	r7, pc, #536870919	; 0x20000007
b0000c74:	6464612c 	strvsbt	r6, [r4], #-300
b0000c78:	73692072 	cmnvc	r9, #114	; 0x72
b0000c7c:	746f6e20 	strvcbt	r6, [pc], #3616	; b0000c84 <.text+0xc84>
b0000c80:	6f6c6220 	swivs	0x006c6220
b0000c84:	61206b63 	teqvs	r0, r3, ror #22
b0000c88:	6e67696c 	cdpvs	9, 6, cr6, cr7, cr12, {3}
b0000c8c:	00200d0a 	eoreq	r0, r0, sl, lsl #26
b0000c90:	646e616e 	strvsbt	r6, [lr], #-366
b0000c94:	61726520 	cmnvs	r2, r0, lsr #10
b0000c98:	65206573 	strvs	r6, [r0, #-1395]!
b0000c9c:	726f7272 	rsbvc	r7, pc, #536870919	; 0x20000007
b0000ca0:	6e656c2c 	cdpvs	12, 6, cr6, cr5, cr12, {1}
b0000ca4:	20736920 	rsbcss	r6, r3, r0, lsr #18
b0000ca8:	20746f6e 	rsbcss	r6, r4, lr, ror #30
b0000cac:	636f6c62 	cmnvs	pc, #25088	; 0x6200
b0000cb0:	6c61206b 	stcvsl	0, cr2, [r1], #-428
b0000cb4:	0a6e6769 	beq	b1b9aa60 <__bss_end+0x1b8ee20>
b0000cb8:	0000200d 	andeq	r2, r0, sp
b0000cbc:	65746e45 	ldrvsb	r6, [r4, #-3653]!
b0000cc0:	68742072 	ldmvsda	r4!, {r1, r4, r5, r6, sp}^
b0000cc4:	64612065 	strvsbt	r2, [r1], #-101
b0000cc8:	73657264 	cmnvc	r5, #1073741830	; 0x40000006
b0000ccc:	666f2073 	undefined
b0000cd0:	63657320 	cmnvs	r5, #-2147483648	; 0x80000000
b0000cd4:	20726f74 	rsbcss	r6, r2, r4, ror pc
b0000cd8:	65206f74 	strvs	r6, [r0, #-3956]!
b0000cdc:	65736172 	ldrvsb	r6, [r3, #-370]!
b0000ce0:	0000203a 	andeq	r2, r0, sl, lsr r0
b0000ce4:	73617265 	cmnvc	r1, #1342177286	; 0x50000006
b0000ce8:	20676e69 	rsbcs	r6, r7, r9, ror #28
b0000cec:	0a2e2e2e 	beq	b0b8c5ac <__bss_end+0xb8096c>
b0000cf0:	0000000d 	andeq	r0, r0, sp
b0000cf4:	65746e45 	ldrvsb	r6, [r4, #-3653]!
b0000cf8:	68742072 	ldmvsda	r4!, {r1, r4, r5, r6, sp}^
b0000cfc:	64612065 	strvsbt	r2, [r1], #-101
b0000d00:	73657264 	cmnvc	r5, #1073741830	; 0x40000006
b0000d04:	666f2073 	undefined
b0000d08:	63657320 	cmnvs	r5, #-2147483648	; 0x80000000
b0000d0c:	20726f74 	rsbcss	r6, r2, r4, ror pc
b0000d10:	77206f74 	undefined
b0000d14:	65746972 	ldrvsb	r6, [r4, #-2418]!
b0000d18:	0000203a 	andeq	r2, r0, sl, lsr r0
b0000d1c:	65746e45 	ldrvsb	r6, [r4, #-3653]!
b0000d20:	68742072 	ldmvsda	r4!, {r1, r4, r5, r6, sp}^
b0000d24:	74732065 	ldrvcbt	r2, [r3], #-101
b0000d28:	676e6972 	undefined
b0000d2c:	206f7420 	rsbcs	r7, pc, r0, lsr #8
b0000d30:	74697277 	strvcbt	r7, [r9], #-631
b0000d34:	00203a65 	eoreq	r3, r0, r5, ror #20
b0000d38:	74697277 	strvcbt	r7, [r9], #-631
b0000d3c:	20676e69 	rsbcs	r6, r7, r9, ror #28
b0000d40:	0a2e2e2e 	beq	b0b8c600 <__bss_end+0xb809c0>
b0000d44:	0000000d 	andeq	r0, r0, sp
b0000d48:	205d735b 	subcss	r7, sp, fp, asr r3
b0000d4c:	6e616353 	mcrvs	3, 3, r6, cr1, cr3, {2}
b0000d50:	6e616e20 	cdpvs	14, 6, cr6, cr1, cr0, {1}
b0000d54:	6c662064 	stcvsl	0, cr2, [r6], #-400
b0000d58:	0a687361 	beq	b1a1dae4 <__bss_end+0x1a11ea4>
b0000d5c:	0000000d 	andeq	r0, r0, sp
b0000d60:	205d655b 	subcss	r6, sp, fp, asr r5
b0000d64:	73617245 	cmnvc	r1, #1342177284	; 0x50000004
b0000d68:	616e2065 	cmnvs	lr, r5, rrx
b0000d6c:	6620646e 	strvst	r6, [r0], -lr, ror #8
b0000d70:	6873616c 	ldmvsda	r3!, {r2, r3, r5, r6, r8, sp, lr}^
b0000d74:	00000d0a 	andeq	r0, r0, sl, lsl #26
b0000d78:	205d775b 	subcss	r7, sp, fp, asr r7
b0000d7c:	74697257 	strvcbt	r7, [r9], #-599
b0000d80:	616e2065 	cmnvs	lr, r5, rrx
b0000d84:	6620646e 	strvst	r6, [r0], -lr, ror #8
b0000d88:	6873616c 	ldmvsda	r3!, {r2, r3, r5, r6, r8, sp, lr}^
b0000d8c:	00000d0a 	andeq	r0, r0, sl, lsl #26
b0000d90:	205d725b 	subcss	r7, sp, fp, asr r2
b0000d94:	64616552 	strvsbt	r6, [r1], #-1362
b0000d98:	6e616e20 	cdpvs	14, 6, cr6, cr1, cr0, {1}
b0000d9c:	6c662064 	stcvsl	0, cr2, [r6], #-400
b0000da0:	0a687361 	beq	b1a1db2c <__bss_end+0x1a11eec>
b0000da4:	0000000d 	andeq	r0, r0, sp
b0000da8:	205d715b 	subcss	r7, sp, fp, asr r1
b0000dac:	74697571 	strvcbt	r7, [r9], #-1393
b0000db0:	00000d0a 	andeq	r0, r0, sl, lsl #26
b0000db4:	65746e45 	ldrvsb	r6, [r4, #-3653]!
b0000db8:	65732072 	ldrvsb	r2, [r3, #-114]!
b0000dbc:	7463656c 	strvcbt	r6, [r3], #-1388
b0000dc0:	3a6e6f69 	bcc	b1b9cb6c <__bss_end+0x1b90f2c>
b0000dc4:	00000020 	andeq	r0, r0, r0, lsr #32
b0000dc8:	0d0a6325 	stceq	3, cr6, [sl, #-148]
b0000dcc:	43470000 	cmpmi	r7, #0	; 0x0
b0000dd0:	28203a43 	stmcsda	r0!, {r0, r1, r6, r9, fp, ip, sp}
b0000dd4:	29554e47 	ldmcsdb	r5, {r0, r1, r2, r6, r9, sl, fp, lr}^
b0000dd8:	342e3320 	strcct	r3, [lr], #-800
b0000ddc:	0000352e 	andeq	r3, r0, lr, lsr #10

b0000de0 <create_secdesc>:
b0000de0:	e1a02a22 	mov	r2, r2, lsr #20
b0000de4:	e1a02a02 	mov	r2, r2, lsl #20
b0000de8:	e3530000 	cmp	r3, #0	; 0x0
b0000dec:	e3823ec1 	orr	r3, r2, #3088	; 0xc10
b0000df0:	e3822ec1 	orr	r2, r2, #3088	; 0xc10
b0000df4:	e1a01a21 	mov	r1, r1, lsr #20
b0000df8:	e383300e 	orr	r3, r3, #14	; 0xe
b0000dfc:	e3822002 	orr	r2, r2, #2	; 0x2
b0000e00:	17802101 	strne	r2, [r0, r1, lsl #2]
b0000e04:	07803101 	streq	r3, [r0, r1, lsl #2]
b0000e08:	e1a0f00e 	mov	pc, lr

b0000e0c <create_page_table>:
b0000e0c:	e3a01000 	mov	r1, #0	; 0x0
b0000e10:	e92d4030 	stmdb	sp!, {r4, r5, lr}
b0000e14:	e3a0045b 	mov	r0, #1526726656	; 0x5b000000
b0000e18:	e1a02001 	mov	r2, r1
b0000e1c:	e3a03001 	mov	r3, #1	; 0x1
b0000e20:	ebffffee 	bl	b0000de0 <create_secdesc>
b0000e24:	e3a04205 	mov	r4, #1342177280	; 0x50000000
b0000e28:	e1a05004 	mov	r5, r4
b0000e2c:	e1a01004 	mov	r1, r4
b0000e30:	e1a02005 	mov	r2, r5
b0000e34:	e3a03000 	mov	r3, #0	; 0x0
b0000e38:	e3a0045b 	mov	r0, #1526726656	; 0x5b000000
b0000e3c:	ebffffe7 	bl	b0000de0 <create_secdesc>
b0000e40:	e59f3068 	ldr	r3, [pc, #104]	; b0000eb0 <.text+0xeb0>
b0000e44:	e2844601 	add	r4, r4, #1048576	; 0x100000
b0000e48:	e1540003 	cmp	r4, r3
b0000e4c:	e2855601 	add	r5, r5, #1048576	; 0x100000
b0000e50:	9afffff5 	bls	b0000e2c <create_page_table+0x20>
b0000e54:	e3a04207 	mov	r4, #1879048192	; 0x70000000
b0000e58:	e1a05004 	mov	r5, r4
b0000e5c:	e1a01004 	mov	r1, r4
b0000e60:	e1a02005 	mov	r2, r5
b0000e64:	e3a03001 	mov	r3, #1	; 0x1
b0000e68:	e3a0045b 	mov	r0, #1526726656	; 0x5b000000
b0000e6c:	ebffffdb 	bl	b0000de0 <create_secdesc>
b0000e70:	e59f303c 	ldr	r3, [pc, #60]	; b0000eb4 <.text+0xeb4>
b0000e74:	e2844601 	add	r4, r4, #1048576	; 0x100000
b0000e78:	e1540003 	cmp	r4, r3
b0000e7c:	e2855601 	add	r5, r5, #1048576	; 0x100000
b0000e80:	9afffff5 	bls	b0000e5c <create_page_table+0x50>
b0000e84:	e3a01459 	mov	r1, #1493172224	; 0x59000000
b0000e88:	e1a02001 	mov	r2, r1
b0000e8c:	e3a0045b 	mov	r0, #1526726656	; 0x5b000000
b0000e90:	e3a03001 	mov	r3, #1	; 0x1
b0000e94:	ebffffd1 	bl	b0000de0 <create_secdesc>
b0000e98:	e3a0045b 	mov	r0, #1526726656	; 0x5b000000
b0000e9c:	e3a0120b 	mov	r1, #-1342177280	; 0xb0000000
b0000ea0:	e3a02205 	mov	r2, #1342177280	; 0x50000000
b0000ea4:	e3a03000 	mov	r3, #0	; 0x0
b0000ea8:	e8bd4030 	ldmia	sp!, {r4, r5, lr}
b0000eac:	eaffffcb 	b	b0000de0 <create_secdesc>
b0000eb0:	5ff00000 	swipl	0x00f00000	; IMB
b0000eb4:	7ff00000 	swivc	0x00f00000	; IMB

b0000eb8 <register_irq>:
b0000eb8:	e92d4010 	stmdb	sp!, {r4, lr}
b0000ebc:	e59f403c 	ldr	r4, [pc, #60]	; b0000f00 <.text+0xf00>
b0000ec0:	e59fe03c 	ldr	lr, [pc, #60]	; b0000f04 <.text+0xf04>
b0000ec4:	e350001f 	cmp	r0, #31	; 0x1f
b0000ec8:	d3a02001 	movle	r2, #1	; 0x1
b0000ecc:	c3a02001 	movgt	r2, #1	; 0x1
b0000ed0:	e240c020 	sub	ip, r0, #32	; 0x20
b0000ed4:	d5943000 	ldrle	r3, [r4]
b0000ed8:	c59e3000 	ldrgt	r3, [lr]
b0000edc:	d1833012 	orrle	r3, r3, r2, lsl r0
b0000ee0:	c1833c12 	orrgt	r3, r3, r2, lsl ip
b0000ee4:	d5843000 	strle	r3, [r4]
b0000ee8:	c58e3000 	strgt	r3, [lr]
b0000eec:	e350001f 	cmp	r0, #31	; 0x1f
b0000ef0:	d59f3010 	ldrle	r3, [pc, #16]	; b0000f08 <.text+0xf08>
b0000ef4:	c59f3010 	ldrgt	r3, [pc, #16]	; b0000f0c <.text+0xf0c>
b0000ef8:	e7831100 	str	r1, [r3, r0, lsl #2]
b0000efc:	e8bd8010 	ldmia	sp!, {r4, pc}
b0000f00:	71200010 	teqvc	r0, r0, lsl r0
b0000f04:	71300010 	teqvc	r0, r0, lsl r0
b0000f08:	71200100 	teqvc	r0, r0, lsl #2
b0000f0c:	71300080 	teqvc	r0, r0, lsl #1

b0000f10 <irq_init>:
b0000f10:	e59f3008 	ldr	r3, [pc, #8]	; b0000f20 <.text+0xf20>
b0000f14:	e3a02000 	mov	r2, #0	; 0x0
b0000f18:	e5832000 	str	r2, [r3]
b0000f1c:	e1a0f00e 	mov	pc, lr
b0000f20:	7120000c 	teqvc	r0, ip

b0000f24 <handle_irq_c>:
b0000f24:	e92d4030 	stmdb	sp!, {r4, r5, lr}
b0000f28:	e59f304c 	ldr	r3, [pc, #76]	; b0000f7c <.text+0xf7c>
b0000f2c:	e59f504c 	ldr	r5, [pc, #76]	; b0000f80 <.text+0xf80>
b0000f30:	e5934000 	ldr	r4, [r3]
b0000f34:	e3540000 	cmp	r4, #0	; 0x0
b0000f38:	0a000005 	beq	b0000f54 <handle_irq_c+0x30>
b0000f3c:	e5953000 	ldr	r3, [r5]
b0000f40:	e1a0e00f 	mov	lr, pc
b0000f44:	e1a0f003 	mov	pc, r3
b0000f48:	e3a03000 	mov	r3, #0	; 0x0
b0000f4c:	e5853000 	str	r3, [r5]
b0000f50:	e8bd8030 	ldmia	sp!, {r4, r5, pc}
b0000f54:	e59f3028 	ldr	r3, [pc, #40]	; b0000f84 <.text+0xf84>
b0000f58:	e5933000 	ldr	r3, [r3]
b0000f5c:	e3530000 	cmp	r3, #0	; 0x0
b0000f60:	e59f5020 	ldr	r5, [pc, #32]	; b0000f88 <.text+0xf88>
b0000f64:	08bd8030 	ldmeqia	sp!, {r4, r5, pc}
b0000f68:	e5953000 	ldr	r3, [r5]
b0000f6c:	e1a0e00f 	mov	lr, pc
b0000f70:	e1a0f003 	mov	pc, r3
b0000f74:	e5854000 	str	r4, [r5]
b0000f78:	e8bd8030 	ldmia	sp!, {r4, r5, pc}
b0000f7c:	71200000 	teqvc	r0, r0
b0000f80:	71200f00 	teqvc	r0, r0, lsl #30
b0000f84:	71300000 	teqvc	r0, r0
b0000f88:	71300f00 	teqvc	r0, r0, lsl #30

b0000f8c <printException>:
b0000f8c:	e92d4030 	stmdb	sp!, {r4, r5, lr}
b0000f90:	e1a04000 	mov	r4, r0
b0000f94:	e59f0028 	ldr	r0, [pc, #40]	; b0000fc4 <.text+0xfc4>
b0000f98:	e1a05001 	mov	r5, r1
b0000f9c:	eb000045 	bl	b00010b8 <puts>
b0000fa0:	e1a00004 	mov	r0, r4
b0000fa4:	eb00004d 	bl	b00010e0 <printHex>
b0000fa8:	e59f0018 	ldr	r0, [pc, #24]	; b0000fc8 <.text+0xfc8>
b0000fac:	eb000041 	bl	b00010b8 <puts>
b0000fb0:	e1a00005 	mov	r0, r5
b0000fb4:	eb00003f 	bl	b00010b8 <puts>
b0000fb8:	e59f000c 	ldr	r0, [pc, #12]	; b0000fcc <.text+0xfcc>
b0000fbc:	e8bd4030 	ldmia	sp!, {r4, r5, lr}
b0000fc0:	ea00003c 	b	b00010b8 <puts>
b0000fc4:	b000892c 	andlt	r8, r0, ip, lsr #18
b0000fc8:	b0000dc4 	andlt	r0, r0, r4, asr #27
b0000fcc:	b0008ca0 	andlt	r8, r0, r0, lsr #25

b0000fd0 <main>:
b0000fd0:	e52de004 	str	lr, [sp, #-4]!
b0000fd4:	eb0000ac 	bl	b000128c <timer0_init>
b0000fd8:	eb0003ae 	bl	b0001e98 <lcd_test>
b0000fdc:	eb000edc 	bl	b0004b54 <irda_nec_test>
b0000fe0:	eafffffe 	b	b0000fe0 <main+0x10>

b0000fe4 <uart0_init>:
b0000fe4:	e59f206c 	ldr	r2, [pc, #108]	; b0001058 <.text+0x1058>
b0000fe8:	e5923000 	ldr	r3, [r2]
b0000fec:	e3c330ff 	bic	r3, r3, #255	; 0xff
b0000ff0:	e5823000 	str	r3, [r2]
b0000ff4:	e59f1060 	ldr	r1, [pc, #96]	; b000105c <.text+0x105c>
b0000ff8:	e59f0060 	ldr	r0, [pc, #96]	; b0001060 <.text+0x1060>
b0000ffc:	e5923000 	ldr	r3, [r2]
b0001000:	e3833022 	orr	r3, r3, #34	; 0x22
b0001004:	e5823000 	str	r3, [r2]
b0001008:	e3a02023 	mov	r2, #35	; 0x23
b000100c:	e5913000 	ldr	r3, [r1]
b0001010:	e3c3300f 	bic	r3, r3, #15	; 0xf
b0001014:	e5813000 	str	r3, [r1]
b0001018:	e5913000 	ldr	r3, [r1]
b000101c:	e383300a 	orr	r3, r3, #10	; 0xa
b0001020:	e5813000 	str	r3, [r1]
b0001024:	e3a01001 	mov	r1, #1	; 0x1
b0001028:	e5903000 	ldr	r3, [r0]
b000102c:	e3833005 	orr	r3, r3, #5	; 0x5
b0001030:	e5803000 	str	r3, [r0]
b0001034:	e59f3028 	ldr	r3, [pc, #40]	; b0001064 <.text+0x1064>
b0001038:	e4832004 	str	r2, [r3], #4
b000103c:	e2422020 	sub	r2, r2, #32	; 0x20
b0001040:	e403102c 	str	r1, [r3], #-44
b0001044:	e4832008 	str	r2, [r3], #8
b0001048:	e2422003 	sub	r2, r2, #3	; 0x3
b000104c:	e4831004 	str	r1, [r3], #4
b0001050:	e5832000 	str	r2, [r3]
b0001054:	e1a0f00e 	mov	pc, lr
b0001058:	7f008000 	swivc	0x00008000
b000105c:	7f008008 	swivc	0x00008008
b0001060:	7f005004 	swivc	0x00005004
b0001064:	7f005028 	swivc	0x00005028

b0001068 <putc>:
b0001068:	e20000ff 	and	r0, r0, #255	; 0xff
b000106c:	e59f3014 	ldr	r3, [pc, #20]	; b0001088 <.text+0x1088>
b0001070:	e5933000 	ldr	r3, [r3]
b0001074:	e3130901 	tst	r3, #16384	; 0x4000
b0001078:	1afffffb 	bne	b000106c <putc+0x4>
b000107c:	e59f3008 	ldr	r3, [pc, #8]	; b000108c <.text+0x108c>
b0001080:	e5830000 	str	r0, [r3]
b0001084:	e1a0f00e 	mov	pc, lr
b0001088:	7f005018 	swivc	0x00005018
b000108c:	7f005020 	swivc	0x00005020

b0001090 <getc>:
b0001090:	e59f3018 	ldr	r3, [pc, #24]	; b00010b0 <.text+0x10b0>
b0001094:	e5933000 	ldr	r3, [r3]
b0001098:	e313007f 	tst	r3, #127	; 0x7f
b000109c:	0afffffb 	beq	b0001090 <getc>
b00010a0:	e59f300c 	ldr	r3, [pc, #12]	; b00010b4 <.text+0x10b4>
b00010a4:	e5930000 	ldr	r0, [r3]
b00010a8:	e20000ff 	and	r0, r0, #255	; 0xff
b00010ac:	e1a0f00e 	mov	pc, lr
b00010b0:	7f005018 	swivc	0x00005018
b00010b4:	7f005024 	swivc	0x00005024

b00010b8 <puts>:
b00010b8:	e92d4010 	stmdb	sp!, {r4, lr}
b00010bc:	e1a04000 	mov	r4, r0
b00010c0:	e5d00000 	ldrb	r0, [r0]
b00010c4:	e3500000 	cmp	r0, #0	; 0x0
b00010c8:	08bd8010 	ldmeqia	sp!, {r4, pc}
b00010cc:	ebffffe5 	bl	b0001068 <putc>
b00010d0:	e5f40001 	ldrb	r0, [r4, #1]!
b00010d4:	e3500000 	cmp	r0, #0	; 0x0
b00010d8:	1afffffb 	bne	b00010cc <puts+0x14>
b00010dc:	e8bd8010 	ldmia	sp!, {r4, pc}

b00010e0 <printHex>:
b00010e0:	e92d4010 	stmdb	sp!, {r4, lr}
b00010e4:	e3a04007 	mov	r4, #7	; 0x7
b00010e8:	e24dd020 	sub	sp, sp, #32	; 0x20
b00010ec:	e28d2020 	add	r2, sp, #32	; 0x20
b00010f0:	e200300f 	and	r3, r0, #15	; 0xf
b00010f4:	e2544001 	subs	r4, r4, #1	; 0x1
b00010f8:	e5023020 	str	r3, [r2, #-32]
b00010fc:	e1a00220 	mov	r0, r0, lsr #4
b0001100:	e2822004 	add	r2, r2, #4	; 0x4
b0001104:	5afffff9 	bpl	b00010f0 <printHex+0x10>
b0001108:	e59f0048 	ldr	r0, [pc, #72]	; b0001158 <.text+0x1158>
b000110c:	ebffffe9 	bl	b00010b8 <puts>
b0001110:	e3a04007 	mov	r4, #7	; 0x7
b0001114:	e28d2020 	add	r2, sp, #32	; 0x20
b0001118:	e0823104 	add	r3, r2, r4, lsl #2
b000111c:	e5133020 	ldr	r3, [r3, #-32]
b0001120:	e2830030 	add	r0, r3, #48	; 0x30
b0001124:	e3530009 	cmp	r3, #9	; 0x9
b0001128:	e20000ff 	and	r0, r0, #255	; 0xff
b000112c:	e243200a 	sub	r2, r3, #10	; 0xa
b0001130:	9a000003 	bls	b0001144 <printHex+0x64>
b0001134:	e2830037 	add	r0, r3, #55	; 0x37
b0001138:	e3520005 	cmp	r2, #5	; 0x5
b000113c:	e20000ff 	and	r0, r0, #255	; 0xff
b0001140:	8a000000 	bhi	b0001148 <printHex+0x68>
b0001144:	ebffffc7 	bl	b0001068 <putc>
b0001148:	e2544001 	subs	r4, r4, #1	; 0x1
b000114c:	5afffff0 	bpl	b0001114 <printHex+0x34>
b0001150:	e28dd020 	add	sp, sp, #32	; 0x20
b0001154:	e8bd8010 	ldmia	sp!, {r4, pc}
b0001158:	b0008940 	andlt	r8, r0, r0, asr #18

b000115c <printSwi_Val>:
b000115c:	e92d4010 	stmdb	sp!, {r4, lr}
b0001160:	e1a04000 	mov	r4, r0
b0001164:	e59f0018 	ldr	r0, [pc, #24]	; b0001184 <.text+0x1184>
b0001168:	ebffffd2 	bl	b00010b8 <puts>
b000116c:	e5940000 	ldr	r0, [r4]
b0001170:	e3c004ff 	bic	r0, r0, #-16777216	; 0xff000000
b0001174:	ebffffd9 	bl	b00010e0 <printHex>
b0001178:	e59f0008 	ldr	r0, [pc, #8]	; b0001188 <.text+0x1188>
b000117c:	e8bd4010 	ldmia	sp!, {r4, lr}
b0001180:	eaffffcc 	b	b00010b8 <puts>
b0001184:	b0008944 	andlt	r8, r0, r4, asr #18
b0001188:	b0008ca0 	andlt	r8, r0, r0, lsr #25

b000118c <register_timer>:
b000118c:	e59fc03c 	ldr	ip, [pc, #60]	; b00011d0 <.text+0x11d0>
b0001190:	e52de004 	str	lr, [sp, #-4]!
b0001194:	e3a02000 	mov	r2, #0	; 0x0
b0001198:	e1a0e000 	mov	lr, r0
b000119c:	e59c0004 	ldr	r0, [ip, #4]
b00011a0:	e3500000 	cmp	r0, #0	; 0x0
b00011a4:	1a000003 	bne	b00011b8 <register_timer+0x2c>
b00011a8:	e59f3020 	ldr	r3, [pc, #32]	; b00011d0 <.text+0x11d0>
b00011ac:	e58c1004 	str	r1, [ip, #4]
b00011b0:	e783e182 	str	lr, [r3, r2, lsl #3]
b00011b4:	e49df004 	ldr	pc, [sp], #4
b00011b8:	e2822001 	add	r2, r2, #1	; 0x1
b00011bc:	e352001f 	cmp	r2, #31	; 0x1f
b00011c0:	e28cc008 	add	ip, ip, #8	; 0x8
b00011c4:	dafffff4 	ble	b000119c <register_timer+0x10>
b00011c8:	e3e00000 	mvn	r0, #0	; 0x0
b00011cc:	e49df004 	ldr	pc, [sp], #4
b00011d0:	b000bb3c 	andlt	fp, r0, ip, lsr fp

b00011d4 <unregister_timer>:
b00011d4:	e92d40f0 	stmdb	sp!, {r4, r5, r6, r7, lr}
b00011d8:	e59f5044 	ldr	r5, [pc, #68]	; b0001224 <.text+0x1224>
b00011dc:	e1a07000 	mov	r7, r0
b00011e0:	e3a04000 	mov	r4, #0	; 0x0
b00011e4:	e59f603c 	ldr	r6, [pc, #60]	; b0001228 <.text+0x1228>
b00011e8:	e1a01007 	mov	r1, r7
b00011ec:	e7960184 	ldr	r0, [r6, r4, lsl #3]
b00011f0:	eb00100c 	bl	b0005228 <strcmp>
b00011f4:	e3500000 	cmp	r0, #0	; 0x0
b00011f8:	01a03000 	moveq	r3, r0
b00011fc:	07860184 	streq	r0, [r6, r4, lsl #3]
b0001200:	05850000 	streq	r0, [r5]
b0001204:	0a000004 	beq	b000121c <unregister_timer+0x48>
b0001208:	e2844001 	add	r4, r4, #1	; 0x1
b000120c:	e354001f 	cmp	r4, #31	; 0x1f
b0001210:	e2855008 	add	r5, r5, #8	; 0x8
b0001214:	dafffff2 	ble	b00011e4 <unregister_timer+0x10>
b0001218:	e3e03000 	mvn	r3, #0	; 0x0
b000121c:	e1a00003 	mov	r0, r3
b0001220:	e8bd80f0 	ldmia	sp!, {r4, r5, r6, r7, pc}
b0001224:	b000bb40 	andlt	fp, r0, r0, asr #22
b0001228:	b000bb3c 	andlt	fp, r0, ip, lsr fp

b000122c <timer_irq>:
b000122c:	e92d4030 	stmdb	sp!, {r4, r5, lr}
b0001230:	e59f3048 	ldr	r3, [pc, #72]	; b0001280 <.text+0x1280>
b0001234:	e3a05000 	mov	r5, #0	; 0x0
b0001238:	e3a04001 	mov	r4, #1	; 0x1
b000123c:	e8930006 	ldmia	r3, {r1, r2}
b0001240:	e0911004 	adds	r1, r1, r4
b0001244:	e0a22005 	adc	r2, r2, r5
b0001248:	e8830006 	stmia	r3, {r1, r2}
b000124c:	e59f5030 	ldr	r5, [pc, #48]	; b0001284 <.text+0x1284>
b0001250:	e3a0401f 	mov	r4, #31	; 0x1f
b0001254:	e4953008 	ldr	r3, [r5], #8
b0001258:	e3530000 	cmp	r3, #0	; 0x0
b000125c:	11a0e00f 	movne	lr, pc
b0001260:	11a0f003 	movne	pc, r3
b0001264:	e2544001 	subs	r4, r4, #1	; 0x1
b0001268:	5afffff9 	bpl	b0001254 <timer_irq+0x28>
b000126c:	e59f2014 	ldr	r2, [pc, #20]	; b0001288 <.text+0x1288>
b0001270:	e5923000 	ldr	r3, [r2]
b0001274:	e3833020 	orr	r3, r3, #32	; 0x20
b0001278:	e5823000 	str	r3, [r2]
b000127c:	e8bd8030 	ldmia	sp!, {r4, r5, pc}
b0001280:	b000922c 	andlt	r9, r0, ip, lsr #4
b0001284:	b000bb40 	andlt	fp, r0, r0, asr #22
b0001288:	7f006044 	swivc	0x00006044

b000128c <timer0_init>:
b000128c:	e52de004 	str	lr, [sp, #-4]!
b0001290:	e59f2094 	ldr	r2, [pc, #148]	; b000132c <.text+0x132c>
b0001294:	e59f1094 	ldr	r1, [pc, #148]	; b0001330 <.text+0x1330>
b0001298:	e59fc094 	ldr	ip, [pc, #148]	; b0001334 <.text+0x1334>
b000129c:	e3a00017 	mov	r0, #23	; 0x17
b00012a0:	e5923000 	ldr	r3, [r2]
b00012a4:	e3c330ff 	bic	r3, r3, #255	; 0xff
b00012a8:	e5823000 	str	r3, [r2]
b00012ac:	e5923000 	ldr	r3, [r2]
b00012b0:	e3833084 	orr	r3, r3, #132	; 0x84
b00012b4:	e4823008 	str	r3, [r2], #8
b00012b8:	e5913000 	ldr	r3, [r1]
b00012bc:	e3c3300f 	bic	r3, r3, #15	; 0xf
b00012c0:	e5813000 	str	r3, [r1]
b00012c4:	e5913000 	ldr	r3, [r1]
b00012c8:	e5813000 	str	r3, [r1]
b00012cc:	e59f3064 	ldr	r3, [pc, #100]	; b0001338 <.text+0x1338>
b00012d0:	e59f1064 	ldr	r1, [pc, #100]	; b000133c <.text+0x133c>
b00012d4:	e583c000 	str	ip, [r3]
b00012d8:	e3a0c000 	mov	ip, #0	; 0x0
b00012dc:	e2833004 	add	r3, r3, #4	; 0x4
b00012e0:	e583c000 	str	ip, [r3]
b00012e4:	e5923000 	ldr	r3, [r2]
b00012e8:	e3833002 	orr	r3, r3, #2	; 0x2
b00012ec:	e5823000 	str	r3, [r2]
b00012f0:	e5923000 	ldr	r3, [r2]
b00012f4:	e3c33002 	bic	r3, r3, #2	; 0x2
b00012f8:	e5823000 	str	r3, [r2]
b00012fc:	e5923000 	ldr	r3, [r2]
b0001300:	e3833008 	orr	r3, r3, #8	; 0x8
b0001304:	e5823000 	str	r3, [r2]
b0001308:	e5923000 	ldr	r3, [r2]
b000130c:	e3833001 	orr	r3, r3, #1	; 0x1
b0001310:	e5823000 	str	r3, [r2]
b0001314:	ebfffee7 	bl	b0000eb8 <register_irq>
b0001318:	e59f2020 	ldr	r2, [pc, #32]	; b0001340 <.text+0x1340>
b000131c:	e5923000 	ldr	r3, [r2]
b0001320:	e3833001 	orr	r3, r3, #1	; 0x1
b0001324:	e5823000 	str	r3, [r2]
b0001328:	e49df004 	ldr	pc, [sp], #4
b000132c:	7f006000 	swivc	0x00006000
b0001330:	7f006004 	swivc	0x00006004
b0001334:	00001388 	andeq	r1, r0, r8, lsl #7
b0001338:	7f00600c 	swivc	0x0000600c
b000133c:	b000122c 	andlt	r1, r0, ip, lsr #4
b0001340:	7f006044 	swivc	0x00006044

b0001344 <timer0_pwm>:
b0001344:	e92d4070 	stmdb	sp!, {r4, r5, r6, lr}
b0001348:	e59f207c 	ldr	r2, [pc, #124]	; b00013cc <.text+0x13cc>
b000134c:	e59f507c 	ldr	r5, [pc, #124]	; b00013d0 <.text+0x13d0>
b0001350:	e1a06001 	mov	r6, r1
b0001354:	e1a01000 	mov	r1, r0
b0001358:	e59f0074 	ldr	r0, [pc, #116]	; b00013d4 <.text+0x13d4>
b000135c:	e5923000 	ldr	r3, [r2]
b0001360:	e3833202 	orr	r3, r3, #536870912	; 0x20000000
b0001364:	e5823000 	str	r3, [r2]
b0001368:	e5953000 	ldr	r3, [r5]
b000136c:	e3c3300f 	bic	r3, r3, #15	; 0xf
b0001370:	e5853000 	str	r3, [r5]
b0001374:	eb000e0d 	bl	b0004bb0 <__udivsi3>
b0001378:	e3a01064 	mov	r1, #100	; 0x64
b000137c:	e1a04000 	mov	r4, r0
b0001380:	eb000e0a 	bl	b0004bb0 <__udivsi3>
b0001384:	e0020096 	mul	r2, r6, r0
b0001388:	e59f3048 	ldr	r3, [pc, #72]	; b00013d8 <.text+0x13d8>
b000138c:	e0622004 	rsb	r2, r2, r4
b0001390:	e4834004 	str	r4, [r3], #4
b0001394:	e5832000 	str	r2, [r3]
b0001398:	e5953000 	ldr	r3, [r5]
b000139c:	e3833002 	orr	r3, r3, #2	; 0x2
b00013a0:	e5853000 	str	r3, [r5]
b00013a4:	e5953000 	ldr	r3, [r5]
b00013a8:	e3c33002 	bic	r3, r3, #2	; 0x2
b00013ac:	e5853000 	str	r3, [r5]
b00013b0:	e5953000 	ldr	r3, [r5]
b00013b4:	e3833008 	orr	r3, r3, #8	; 0x8
b00013b8:	e5853000 	str	r3, [r5]
b00013bc:	e5953000 	ldr	r3, [r5]
b00013c0:	e3833001 	orr	r3, r3, #1	; 0x1
b00013c4:	e5853000 	str	r3, [r5]
b00013c8:	e8bd8070 	ldmia	sp!, {r4, r5, r6, pc}
b00013cc:	7f0080a0 	swivc	0x000080a0
b00013d0:	7f006008 	swivc	0x00006008
b00013d4:	00001388 	andeq	r1, r0, r8, lsl #7
b00013d8:	7f00600c 	swivc	0x0000600c

b00013dc <udelay>:
b00013dc:	e0800fa0 	add	r0, r0, r0, lsr #31
b00013e0:	e1a000c0 	mov	r0, r0, asr #1
b00013e4:	e59f3038 	ldr	r3, [pc, #56]	; b0001424 <.text+0x1424>
b00013e8:	e3500000 	cmp	r0, #0	; 0x0
b00013ec:	e5932000 	ldr	r2, [r3]
b00013f0:	d1a0f00e 	movle	pc, lr
b00013f4:	e59f3028 	ldr	r3, [pc, #40]	; b0001424 <.text+0x1424>
b00013f8:	e5933000 	ldr	r3, [r3]
b00013fc:	e1530002 	cmp	r3, r2
b0001400:	e0631002 	rsb	r1, r3, r2
b0001404:	e1a02001 	mov	r2, r1
b0001408:	c2812d4e 	addgt	r2, r1, #4992	; 0x1380
b000140c:	c2822008 	addgt	r2, r2, #8	; 0x8
b0001410:	e0620000 	rsb	r0, r2, r0
b0001414:	e3500000 	cmp	r0, #0	; 0x0
b0001418:	e1a02003 	mov	r2, r3
b000141c:	cafffff4 	bgt	b00013f4 <udelay+0x18>
b0001420:	e1a0f00e 	mov	pc, lr
b0001424:	7f006014 	swivc	0x00006014

b0001428 <mdelay>:
b0001428:	e0603280 	rsb	r3, r0, r0, lsl #5
b000142c:	e0800103 	add	r0, r0, r3, lsl #2
b0001430:	e1a00180 	mov	r0, r0, lsl #3
b0001434:	eaffffe8 	b	b00013dc <udelay>

b0001438 <get_system_time_us>:
b0001438:	e92d4070 	stmdb	sp!, {r4, r5, r6, lr}
b000143c:	e59f3068 	ldr	r3, [pc, #104]	; b00014ac <.text+0x14ac>
b0001440:	e8930060 	ldmia	r3, {r5, r6}
b0001444:	e1a02286 	mov	r2, r6, lsl #5
b0001448:	e1824da5 	orr	r4, r2, r5, lsr #27
b000144c:	e1a03285 	mov	r3, r5, lsl #5
b0001450:	e0533005 	subs	r3, r3, r5
b0001454:	e0c44006 	sbc	r4, r4, r6
b0001458:	e1a00104 	mov	r0, r4, lsl #2
b000145c:	e1a01103 	mov	r1, r3, lsl #2
b0001460:	e0911005 	adds	r1, r1, r5
b0001464:	e1802f23 	orr	r2, r0, r3, lsr #30
b0001468:	e0a22006 	adc	r2, r2, r6
b000146c:	e1a03102 	mov	r3, r2, lsl #2
b0001470:	e1836f21 	orr	r6, r3, r1, lsr #30
b0001474:	e1a05101 	mov	r5, r1, lsl #2
b0001478:	e59f3030 	ldr	r3, [pc, #48]	; b00014b0 <.text+0x14b0>
b000147c:	e0955001 	adds	r5, r5, r1
b0001480:	e0a66002 	adc	r6, r6, r2
b0001484:	e5932000 	ldr	r2, [r3]
b0001488:	e2622d4e 	rsb	r2, r2, #4992	; 0x1380
b000148c:	e2822008 	add	r2, r2, #8	; 0x8
b0001490:	e1a01206 	mov	r1, r6, lsl #4
b0001494:	e1a03205 	mov	r3, r5, lsl #4
b0001498:	e1a02082 	mov	r2, r2, lsl #1
b000149c:	e1814e25 	orr	r4, r1, r5, lsr #28
b00014a0:	e0930002 	adds	r0, r3, r2
b00014a4:	e2a41000 	adc	r1, r4, #0	; 0x0
b00014a8:	e8bd8070 	ldmia	sp!, {r4, r5, r6, pc}
b00014ac:	b000922c 	andlt	r9, r0, ip, lsr #4
b00014b0:	7f006014 	swivc	0x00006014

b00014b4 <delta_time_us>:
b00014b4:	e0600002 	rsb	r0, r0, r2
b00014b8:	e1a0f00e 	mov	pc, lr

b00014bc <delay_test>:
b00014bc:	e92d4010 	stmdb	sp!, {r4, lr}
b00014c0:	e3a04000 	mov	r4, #0	; 0x0
b00014c4:	e59f001c 	ldr	r0, [pc, #28]	; b00014e8 <.text+0x14e8>
b00014c8:	eb000eae 	bl	b0004f88 <printf>
b00014cc:	e2844001 	add	r4, r4, #1	; 0x1
b00014d0:	e3a00ffa 	mov	r0, #1000	; 0x3e8
b00014d4:	ebffffd3 	bl	b0001428 <mdelay>
b00014d8:	e1a01004 	mov	r1, r4
b00014dc:	e59f0008 	ldr	r0, [pc, #8]	; b00014ec <.text+0x14ec>
b00014e0:	eb000ea8 	bl	b0004f88 <printf>
b00014e4:	eafffff6 	b	b00014c4 <delay_test+0x8>
b00014e8:	b0008950 	andlt	r8, r0, r0, asr r9
b00014ec:	b0008958 	andlt	r8, r0, r8, asr r9

b00014f0 <led_init>:
b00014f0:	e59f2030 	ldr	r2, [pc, #48]	; b0001528 <.text+0x1528>
b00014f4:	e5923000 	ldr	r3, [r2]
b00014f8:	e1a03803 	mov	r3, r3, lsl #16
b00014fc:	e1a03823 	mov	r3, r3, lsr #16
b0001500:	e5823000 	str	r3, [r2]
b0001504:	e59f1020 	ldr	r1, [pc, #32]	; b000152c <.text+0x152c>
b0001508:	e5923000 	ldr	r3, [r2]
b000150c:	e3833411 	orr	r3, r3, #285212672	; 0x11000000
b0001510:	e3833811 	orr	r3, r3, #1114112	; 0x110000
b0001514:	e5823000 	str	r3, [r2]
b0001518:	e5913000 	ldr	r3, [r1]
b000151c:	e38330f0 	orr	r3, r3, #240	; 0xf0
b0001520:	e5813000 	str	r3, [r1]
b0001524:	e1a0f00e 	mov	pc, lr
b0001528:	7f008800 	swivc	0x00008800
b000152c:	7f008808 	swivc	0x00008808

b0001530 <led_on>:
b0001530:	e92d4010 	stmdb	sp!, {r4, lr}
b0001534:	e59fe078 	ldr	lr, [pc, #120]	; b00015b4 <.text+0x15b4>
b0001538:	e5de3000 	ldrb	r3, [lr]
b000153c:	e2833001 	add	r3, r3, #1	; 0x1
b0001540:	e59f4070 	ldr	r4, [pc, #112]	; b00015b8 <.text+0x15b8>
b0001544:	e59f0070 	ldr	r0, [pc, #112]	; b00015bc <.text+0x15bc>
b0001548:	e59fc070 	ldr	ip, [pc, #112]	; b00015c0 <.text+0x15c0>
b000154c:	e5ce3000 	strb	r3, [lr]
b0001550:	e5de3000 	ldrb	r3, [lr]
b0001554:	e3530014 	cmp	r3, #20	; 0x14
b0001558:	18bd8010 	ldmneia	sp!, {r4, pc}
b000155c:	e5d41000 	ldrb	r1, [r4]
b0001560:	e1e03001 	mvn	r3, r1
b0001564:	e5c03000 	strb	r3, [r0]
b0001568:	e2811001 	add	r1, r1, #1	; 0x1
b000156c:	e59c3000 	ldr	r3, [ip]
b0001570:	e3c330f0 	bic	r3, r3, #240	; 0xf0
b0001574:	e5d02000 	ldrb	r2, [r0]
b0001578:	e58c3000 	str	r3, [ip]
b000157c:	e202200f 	and	r2, r2, #15	; 0xf
b0001580:	e5c41000 	strb	r1, [r4]
b0001584:	e59c1000 	ldr	r1, [ip]
b0001588:	e5c02000 	strb	r2, [r0]
b000158c:	e5d43000 	ldrb	r3, [r4]
b0001590:	e353000f 	cmp	r3, #15	; 0xf
b0001594:	e5d03000 	ldrb	r3, [r0]
b0001598:	e1811203 	orr	r1, r1, r3, lsl #4
b000159c:	83a03000 	movhi	r3, #0	; 0x0
b00015a0:	e58c1000 	str	r1, [ip]
b00015a4:	85c43000 	strhib	r3, [r4]
b00015a8:	e3a03000 	mov	r3, #0	; 0x0
b00015ac:	e5ce3000 	strb	r3, [lr]
b00015b0:	e8bd8010 	ldmia	sp!, {r4, pc}
b00015b4:	b0009236 	andlt	r9, r0, r6, lsr r2
b00015b8:	b0009234 	andlt	r9, r0, r4, lsr r2
b00015bc:	b0009235 	andlt	r9, r0, r5, lsr r2
b00015c0:	7f008808 	swivc	0x00008808

b00015c4 <led_timer>:
b00015c4:	e52de004 	str	lr, [sp, #-4]!
b00015c8:	ebffffc8 	bl	b00014f0 <led_init>
b00015cc:	e59f0008 	ldr	r0, [pc, #8]	; b00015dc <.text+0x15dc>
b00015d0:	e59f1008 	ldr	r1, [pc, #8]	; b00015e0 <.text+0x15e0>
b00015d4:	e49de004 	ldr	lr, [sp], #4
b00015d8:	eafffeeb 	b	b000118c <register_timer>
b00015dc:	b0008960 	andlt	r8, r0, r0, ror #18
b00015e0:	b0001530 	andlt	r1, r0, r0, lsr r5

b00015e4 <led1_on>:
b00015e4:	e59f200c 	ldr	r2, [pc, #12]	; b00015f8 <.text+0x15f8>
b00015e8:	e5923000 	ldr	r3, [r2]
b00015ec:	e38330e0 	orr	r3, r3, #224	; 0xe0
b00015f0:	e5823000 	str	r3, [r2]
b00015f4:	e1a0f00e 	mov	pc, lr
b00015f8:	7f008808 	swivc	0x00008808

b00015fc <led2_on>:
b00015fc:	e59f200c 	ldr	r2, [pc, #12]	; b0001610 <.text+0x1610>
b0001600:	e5923000 	ldr	r3, [r2]
b0001604:	e38330d0 	orr	r3, r3, #208	; 0xd0
b0001608:	e5823000 	str	r3, [r2]
b000160c:	e1a0f00e 	mov	pc, lr
b0001610:	7f008808 	swivc	0x00008808

b0001614 <led3_on>:
b0001614:	e59f200c 	ldr	r2, [pc, #12]	; b0001628 <.text+0x1628>
b0001618:	e5923000 	ldr	r3, [r2]
b000161c:	e38330b0 	orr	r3, r3, #176	; 0xb0
b0001620:	e5823000 	str	r3, [r2]
b0001624:	e1a0f00e 	mov	pc, lr
b0001628:	7f008808 	swivc	0x00008808

b000162c <led4_on>:
b000162c:	e59f200c 	ldr	r2, [pc, #12]	; b0001640 <.text+0x1640>
b0001630:	e5923000 	ldr	r3, [r2]
b0001634:	e3833070 	orr	r3, r3, #112	; 0x70
b0001638:	e5823000 	str	r3, [r2]
b000163c:	e1a0f00e 	mov	pc, lr
b0001640:	7f008808 	swivc	0x00008808

b0001644 <fb_printf_char>:
b0001644:	e92d4ff0 	stmdb	sp!, {r4, r5, r6, r7, r8, r9, sl, fp, lr}
b0001648:	e1a02202 	mov	r2, r2, lsl #4
b000164c:	e1a08001 	mov	r8, r1
b0001650:	e1a05001 	mov	r5, r1
b0001654:	e59f1098 	ldr	r1, [pc, #152]	; b00016f4 <.text+0x16f4>
b0001658:	e2022eff 	and	r2, r2, #4080	; 0xff0
b000165c:	e082b001 	add	fp, r2, r1
b0001660:	e1a09000 	mov	r9, r0
b0001664:	e2887010 	add	r7, r8, #16	; 0x10
b0001668:	e24dd004 	sub	sp, sp, #4	; 0x4
b000166c:	e58d3000 	str	r3, [sp]
b0001670:	e1a04009 	mov	r4, r9
b0001674:	e2896008 	add	r6, r9, #8	; 0x8
b0001678:	e1a00004 	mov	r0, r4
b000167c:	e1a01005 	mov	r1, r5
b0001680:	e2844001 	add	r4, r4, #1	; 0x1
b0001684:	e3a02000 	mov	r2, #0	; 0x0
b0001688:	eb000049 	bl	b00017b4 <put_pixel>
b000168c:	e1540006 	cmp	r4, r6
b0001690:	bafffff8 	blt	b0001678 <fb_printf_char+0x34>
b0001694:	e2855001 	add	r5, r5, #1	; 0x1
b0001698:	e1550007 	cmp	r5, r7
b000169c:	bafffff3 	blt	b0001670 <fb_printf_char+0x2c>
b00016a0:	e1a05008 	mov	r5, r8
b00016a4:	e288a010 	add	sl, r8, #16	; 0x10
b00016a8:	e4db8001 	ldrb	r8, [fp], #1
b00016ac:	e1a04009 	mov	r4, r9
b00016b0:	e3a06007 	mov	r6, #7	; 0x7
b00016b4:	e2897008 	add	r7, r9, #8	; 0x8
b00016b8:	e1a03658 	mov	r3, r8, asr r6
b00016bc:	e3130001 	tst	r3, #1	; 0x1
b00016c0:	e1a00004 	mov	r0, r4
b00016c4:	e2466001 	sub	r6, r6, #1	; 0x1
b00016c8:	e2844001 	add	r4, r4, #1	; 0x1
b00016cc:	e1a01005 	mov	r1, r5
b00016d0:	e59d2000 	ldr	r2, [sp]
b00016d4:	1b000036 	blne	b00017b4 <put_pixel>
b00016d8:	e1540007 	cmp	r4, r7
b00016dc:	bafffff5 	blt	b00016b8 <fb_printf_char+0x74>
b00016e0:	e2855001 	add	r5, r5, #1	; 0x1
b00016e4:	e155000a 	cmp	r5, sl
b00016e8:	baffffee 	blt	b00016a8 <fb_printf_char+0x64>
b00016ec:	e28dd004 	add	sp, sp, #4	; 0x4
b00016f0:	e8bd8ff0 	ldmia	sp!, {r4, r5, r6, r7, r8, r9, sl, fp, pc}
b00016f4:	b0007874 	andlt	r7, r0, r4, ror r8

b00016f8 <fb_printf_string>:
b00016f8:	e92d41f0 	stmdb	sp!, {r4, r5, r6, r7, r8, lr}
b00016fc:	e1a07002 	mov	r7, r2
b0001700:	e1a04000 	mov	r4, r0
b0001704:	e1a05001 	mov	r5, r1
b0001708:	e1a08003 	mov	r8, r3
b000170c:	e3a06000 	mov	r6, #0	; 0x0
b0001710:	e24dd010 	sub	sp, sp, #16	; 0x10
b0001714:	e28d2004 	add	r2, sp, #4	; 0x4
b0001718:	e28d000c 	add	r0, sp, #12	; 0xc
b000171c:	e28d1008 	add	r1, sp, #8	; 0x8
b0001720:	e1a0300d 	mov	r3, sp
b0001724:	eb000173 	bl	b0001cf8 <get_lcd_params>
b0001728:	e5d72000 	ldrb	r2, [r7]
b000172c:	e3520000 	cmp	r2, #0	; 0x0
b0001730:	0a000014 	beq	b0001788 <fb_printf_string+0x90>
b0001734:	e202c0ff 	and	ip, r2, #255	; 0xff
b0001738:	e35c000a 	cmp	ip, #10	; 0xa
b000173c:	02855010 	addeq	r5, r5, #16	; 0x10
b0001740:	0a00000c 	beq	b0001778 <fb_printf_string+0x80>
b0001744:	e35c000d 	cmp	ip, #13	; 0xd
b0001748:	e1a00004 	mov	r0, r4
b000174c:	e1a0200c 	mov	r2, ip
b0001750:	e1a01005 	mov	r1, r5
b0001754:	e1a03008 	mov	r3, r8
b0001758:	e2844008 	add	r4, r4, #8	; 0x8
b000175c:	0a000004 	beq	b0001774 <fb_printf_string+0x7c>
b0001760:	ebffffb7 	bl	b0001644 <fb_printf_char>
b0001764:	e59d3008 	ldr	r3, [sp, #8]
b0001768:	e1540003 	cmp	r4, r3
b000176c:	ba000001 	blt	b0001778 <fb_printf_string+0x80>
b0001770:	e2855010 	add	r5, r5, #16	; 0x10
b0001774:	e3a04000 	mov	r4, #0	; 0x0
b0001778:	e2866001 	add	r6, r6, #1	; 0x1
b000177c:	e7d72006 	ldrb	r2, [r7, r6]
b0001780:	e3520000 	cmp	r2, #0	; 0x0
b0001784:	eaffffe9 	b	b0001730 <fb_printf_string+0x38>
b0001788:	e28dd010 	add	sp, sp, #16	; 0x10
b000178c:	e8bd81f0 	ldmia	sp!, {r4, r5, r6, r7, r8, pc}

b0001790 <fb_get_lcd_params>:
b0001790:	e59f000c 	ldr	r0, [pc, #12]	; b00017a4 <.text+0x17a4>
b0001794:	e59f100c 	ldr	r1, [pc, #12]	; b00017a8 <.text+0x17a8>
b0001798:	e59f200c 	ldr	r2, [pc, #12]	; b00017ac <.text+0x17ac>
b000179c:	e59f300c 	ldr	r3, [pc, #12]	; b00017b0 <.text+0x17b0>
b00017a0:	ea000154 	b	b0001cf8 <get_lcd_params>
b00017a4:	b0009238 	andlt	r9, r0, r8, lsr r2
b00017a8:	b000923c 	andlt	r9, r0, ip, lsr r2
b00017ac:	b0009240 	andlt	r9, r0, r0, asr #4
b00017b0:	b0009244 	andlt	r9, r0, r4, asr #4

b00017b4 <put_pixel>:
b00017b4:	e59f3014 	ldr	r3, [pc, #20]	; b00017d0 <.text+0x17d0>
b00017b8:	e5933000 	ldr	r3, [r3]
b00017bc:	e0210193 	mla	r1, r3, r1, r0
b00017c0:	e59f300c 	ldr	r3, [pc, #12]	; b00017d4 <.text+0x17d4>
b00017c4:	e5933000 	ldr	r3, [r3]
b00017c8:	e7832101 	str	r2, [r3, r1, lsl #2]
b00017cc:	e1a0f00e 	mov	pc, lr
b00017d0:	b000923c 	andlt	r9, r0, ip, lsr r2
b00017d4:	b0009238 	andlt	r9, r0, r8, lsr r2

b00017d8 <draw_circle>:
b00017d8:	e92d4ff0 	stmdb	sp!, {r4, r5, r6, r7, r8, r9, sl, fp, lr}
b00017dc:	e1a07002 	mov	r7, r2
b00017e0:	e0020797 	mul	r2, r7, r7
b00017e4:	e24dd004 	sub	sp, sp, #4	; 0x4
b00017e8:	e58d2000 	str	r2, [sp]
b00017ec:	e1520082 	cmp	r2, r2, lsl #1
b00017f0:	e1a0b000 	mov	fp, r0
b00017f4:	e1a09001 	mov	r9, r1
b00017f8:	e1a08003 	mov	r8, r3
b00017fc:	e3a0a000 	mov	sl, #0	; 0x0
b0001800:	ca000033 	bgt	b00018d4 <draw_circle+0xfc>
b0001804:	e08b600a 	add	r6, fp, sl
b0001808:	e0674009 	rsb	r4, r7, r9
b000180c:	e06a500b 	rsb	r5, sl, fp
b0001810:	e1a00006 	mov	r0, r6
b0001814:	e1a01004 	mov	r1, r4
b0001818:	e1a02008 	mov	r2, r8
b000181c:	ebffffe4 	bl	b00017b4 <put_pixel>
b0001820:	e1a01004 	mov	r1, r4
b0001824:	e1a00005 	mov	r0, r5
b0001828:	e0894007 	add	r4, r9, r7
b000182c:	e1a02008 	mov	r2, r8
b0001830:	ebffffdf 	bl	b00017b4 <put_pixel>
b0001834:	e1a00005 	mov	r0, r5
b0001838:	e1a01004 	mov	r1, r4
b000183c:	e1a02008 	mov	r2, r8
b0001840:	ebffffdb 	bl	b00017b4 <put_pixel>
b0001844:	e1a00006 	mov	r0, r6
b0001848:	e1a01004 	mov	r1, r4
b000184c:	e089600a 	add	r6, r9, sl
b0001850:	e08b4007 	add	r4, fp, r7
b0001854:	e1a02008 	mov	r2, r8
b0001858:	ebffffd5 	bl	b00017b4 <put_pixel>
b000185c:	e06a5009 	rsb	r5, sl, r9
b0001860:	e1a00004 	mov	r0, r4
b0001864:	e1a01006 	mov	r1, r6
b0001868:	e1a02008 	mov	r2, r8
b000186c:	ebffffd0 	bl	b00017b4 <put_pixel>
b0001870:	e1a00004 	mov	r0, r4
b0001874:	e1a01005 	mov	r1, r5
b0001878:	e067400b 	rsb	r4, r7, fp
b000187c:	e1a02008 	mov	r2, r8
b0001880:	ebffffcb 	bl	b00017b4 <put_pixel>
b0001884:	e1a01005 	mov	r1, r5
b0001888:	e1a00004 	mov	r0, r4
b000188c:	e1a02008 	mov	r2, r8
b0001890:	ebffffc7 	bl	b00017b4 <put_pixel>
b0001894:	e1a02008 	mov	r2, r8
b0001898:	e1a00004 	mov	r0, r4
b000189c:	e1a01006 	mov	r1, r6
b00018a0:	ebffffc3 	bl	b00017b4 <put_pixel>
b00018a4:	e0030797 	mul	r3, r7, r7
b00018a8:	e28aa001 	add	sl, sl, #1	; 0x1
b00018ac:	e0233a9a 	mla	r3, sl, sl, r3
b00018b0:	e59dc000 	ldr	ip, [sp]
b00018b4:	e06c3003 	rsb	r3, ip, r3
b00018b8:	e3530000 	cmp	r3, #0	; 0x0
b00018bc:	c2477001 	subgt	r7, r7, #1	; 0x1
b00018c0:	e0030797 	mul	r3, r7, r7
b00018c4:	e59d2000 	ldr	r2, [sp]
b00018c8:	c24aa001 	subgt	sl, sl, #1	; 0x1
b00018cc:	e1520083 	cmp	r2, r3, lsl #1
b00018d0:	eaffffca 	b	b0001800 <draw_circle+0x28>
b00018d4:	e28dd004 	add	sp, sp, #4	; 0x4
b00018d8:	e8bd8ff0 	ldmia	sp!, {r4, r5, r6, r7, r8, r9, sl, fp, pc}

b00018dc <draw_line>:
b00018dc:	e92d4ff0 	stmdb	sp!, {r4, r5, r6, r7, r8, r9, sl, fp, lr}
b00018e0:	e0528000 	subs	r8, r2, r0
b00018e4:	e1a05000 	mov	r5, r0
b00018e8:	e1a0a002 	mov	sl, r2
b00018ec:	e1a06001 	mov	r6, r1
b00018f0:	e1a09003 	mov	r9, r3
b00018f4:	e59db024 	ldr	fp, [sp, #36]
b00018f8:	e0617003 	rsb	r7, r1, r3
b00018fc:	4a000046 	bmi	b0001a1c <draw_line+0x140>
b0001900:	e3570000 	cmp	r7, #0	; 0x0
b0001904:	ba000021 	blt	b0001990 <draw_line+0xb4>
b0001908:	e1580007 	cmp	r8, r7
b000190c:	ba00000f 	blt	b0001950 <draw_line+0x74>
b0001910:	e0883fa8 	add	r3, r8, r8, lsr #31
b0001914:	e1500002 	cmp	r0, r2
b0001918:	e04740c3 	sub	r4, r7, r3, asr #1
b000191c:	c8bd8ff0 	ldmgtia	sp!, {r4, r5, r6, r7, r8, r9, sl, fp, pc}
b0001920:	e1a00005 	mov	r0, r5
b0001924:	e1a01006 	mov	r1, r6
b0001928:	e1a0200b 	mov	r2, fp
b000192c:	e2855001 	add	r5, r5, #1	; 0x1
b0001930:	ebffff9f 	bl	b00017b4 <put_pixel>
b0001934:	e3540000 	cmp	r4, #0	; 0x0
b0001938:	c0684004 	rsbgt	r4, r8, r4
b000193c:	c2866001 	addgt	r6, r6, #1	; 0x1
b0001940:	e155000a 	cmp	r5, sl
b0001944:	e0844007 	add	r4, r4, r7
b0001948:	dafffff4 	ble	b0001920 <draw_line+0x44>
b000194c:	e8bd8ff0 	ldmia	sp!, {r4, r5, r6, r7, r8, r9, sl, fp, pc}
b0001950:	e1510003 	cmp	r1, r3
b0001954:	e0873fa7 	add	r3, r7, r7, lsr #31
b0001958:	e04840c3 	sub	r4, r8, r3, asr #1
b000195c:	c8bd8ff0 	ldmgtia	sp!, {r4, r5, r6, r7, r8, r9, sl, fp, pc}
b0001960:	e1a00005 	mov	r0, r5
b0001964:	e1a01006 	mov	r1, r6
b0001968:	e1a0200b 	mov	r2, fp
b000196c:	e2866001 	add	r6, r6, #1	; 0x1
b0001970:	ebffff8f 	bl	b00017b4 <put_pixel>
b0001974:	e3540000 	cmp	r4, #0	; 0x0
b0001978:	c0674004 	rsbgt	r4, r7, r4
b000197c:	c2855001 	addgt	r5, r5, #1	; 0x1
b0001980:	e1560009 	cmp	r6, r9
b0001984:	e0844008 	add	r4, r4, r8
b0001988:	dafffff4 	ble	b0001960 <draw_line+0x84>
b000198c:	e8bd8ff0 	ldmia	sp!, {r4, r5, r6, r7, r8, r9, sl, fp, pc}
b0001990:	e2677000 	rsb	r7, r7, #0	; 0x0
b0001994:	e1580007 	cmp	r8, r7
b0001998:	ba00000f 	blt	b00019dc <draw_line+0x100>
b000199c:	e0883fa8 	add	r3, r8, r8, lsr #31
b00019a0:	e1500002 	cmp	r0, r2
b00019a4:	e04740c3 	sub	r4, r7, r3, asr #1
b00019a8:	c8bd8ff0 	ldmgtia	sp!, {r4, r5, r6, r7, r8, r9, sl, fp, pc}
b00019ac:	e1a00005 	mov	r0, r5
b00019b0:	e1a01006 	mov	r1, r6
b00019b4:	e1a0200b 	mov	r2, fp
b00019b8:	e2855001 	add	r5, r5, #1	; 0x1
b00019bc:	ebffff7c 	bl	b00017b4 <put_pixel>
b00019c0:	e3540000 	cmp	r4, #0	; 0x0
b00019c4:	c0684004 	rsbgt	r4, r8, r4
b00019c8:	c2466001 	subgt	r6, r6, #1	; 0x1
b00019cc:	e155000a 	cmp	r5, sl
b00019d0:	e0844007 	add	r4, r4, r7
b00019d4:	dafffff4 	ble	b00019ac <draw_line+0xd0>
b00019d8:	e8bd8ff0 	ldmia	sp!, {r4, r5, r6, r7, r8, r9, sl, fp, pc}
b00019dc:	e1510003 	cmp	r1, r3
b00019e0:	e0873fa7 	add	r3, r7, r7, lsr #31
b00019e4:	e04840c3 	sub	r4, r8, r3, asr #1
b00019e8:	b8bd8ff0 	ldmltia	sp!, {r4, r5, r6, r7, r8, r9, sl, fp, pc}
b00019ec:	e1a00005 	mov	r0, r5
b00019f0:	e1a01006 	mov	r1, r6
b00019f4:	e1a0200b 	mov	r2, fp
b00019f8:	e2466001 	sub	r6, r6, #1	; 0x1
b00019fc:	ebffff6c 	bl	b00017b4 <put_pixel>
b0001a00:	e3540000 	cmp	r4, #0	; 0x0
b0001a04:	c0674004 	rsbgt	r4, r7, r4
b0001a08:	c2855001 	addgt	r5, r5, #1	; 0x1
b0001a0c:	e1560009 	cmp	r6, r9
b0001a10:	e0844008 	add	r4, r4, r8
b0001a14:	aafffff4 	bge	b00019ec <draw_line+0x110>
b0001a18:	e8bd8ff0 	ldmia	sp!, {r4, r5, r6, r7, r8, r9, sl, fp, pc}
b0001a1c:	e3570000 	cmp	r7, #0	; 0x0
b0001a20:	e2688000 	rsb	r8, r8, #0	; 0x0
b0001a24:	ba000021 	blt	b0001ab0 <draw_line+0x1d4>
b0001a28:	e1580007 	cmp	r8, r7
b0001a2c:	ba00000f 	blt	b0001a70 <draw_line+0x194>
b0001a30:	e0883fa8 	add	r3, r8, r8, lsr #31
b0001a34:	e1500002 	cmp	r0, r2
b0001a38:	e04740c3 	sub	r4, r7, r3, asr #1
b0001a3c:	b8bd8ff0 	ldmltia	sp!, {r4, r5, r6, r7, r8, r9, sl, fp, pc}
b0001a40:	e1a00005 	mov	r0, r5
b0001a44:	e1a01006 	mov	r1, r6
b0001a48:	e1a0200b 	mov	r2, fp
b0001a4c:	e2455001 	sub	r5, r5, #1	; 0x1
b0001a50:	ebffff57 	bl	b00017b4 <put_pixel>
b0001a54:	e3540000 	cmp	r4, #0	; 0x0
b0001a58:	c0684004 	rsbgt	r4, r8, r4
b0001a5c:	c2866001 	addgt	r6, r6, #1	; 0x1
b0001a60:	e155000a 	cmp	r5, sl
b0001a64:	e0844007 	add	r4, r4, r7
b0001a68:	aafffff4 	bge	b0001a40 <draw_line+0x164>
b0001a6c:	e8bd8ff0 	ldmia	sp!, {r4, r5, r6, r7, r8, r9, sl, fp, pc}
b0001a70:	e1510003 	cmp	r1, r3
b0001a74:	e0873fa7 	add	r3, r7, r7, lsr #31
b0001a78:	e04840c3 	sub	r4, r8, r3, asr #1
b0001a7c:	c8bd8ff0 	ldmgtia	sp!, {r4, r5, r6, r7, r8, r9, sl, fp, pc}
b0001a80:	e1a00005 	mov	r0, r5
b0001a84:	e1a01006 	mov	r1, r6
b0001a88:	e1a0200b 	mov	r2, fp
b0001a8c:	e2866001 	add	r6, r6, #1	; 0x1
b0001a90:	ebffff47 	bl	b00017b4 <put_pixel>
b0001a94:	e3540000 	cmp	r4, #0	; 0x0
b0001a98:	c0674004 	rsbgt	r4, r7, r4
b0001a9c:	c2455001 	subgt	r5, r5, #1	; 0x1
b0001aa0:	e1560009 	cmp	r6, r9
b0001aa4:	e0844008 	add	r4, r4, r8
b0001aa8:	dafffff4 	ble	b0001a80 <draw_line+0x1a4>
b0001aac:	e8bd8ff0 	ldmia	sp!, {r4, r5, r6, r7, r8, r9, sl, fp, pc}
b0001ab0:	e2677000 	rsb	r7, r7, #0	; 0x0
b0001ab4:	e1580007 	cmp	r8, r7
b0001ab8:	ba00000f 	blt	b0001afc <draw_line+0x220>
b0001abc:	e0883fa8 	add	r3, r8, r8, lsr #31
b0001ac0:	e1500002 	cmp	r0, r2
b0001ac4:	e04740c3 	sub	r4, r7, r3, asr #1
b0001ac8:	b8bd8ff0 	ldmltia	sp!, {r4, r5, r6, r7, r8, r9, sl, fp, pc}
b0001acc:	e1a00005 	mov	r0, r5
b0001ad0:	e1a01006 	mov	r1, r6
b0001ad4:	e1a0200b 	mov	r2, fp
b0001ad8:	e2455001 	sub	r5, r5, #1	; 0x1
b0001adc:	ebffff34 	bl	b00017b4 <put_pixel>
b0001ae0:	e3540000 	cmp	r4, #0	; 0x0
b0001ae4:	c0684004 	rsbgt	r4, r8, r4
b0001ae8:	c2466001 	subgt	r6, r6, #1	; 0x1
b0001aec:	e155000a 	cmp	r5, sl
b0001af0:	e0844007 	add	r4, r4, r7
b0001af4:	aafffff4 	bge	b0001acc <draw_line+0x1f0>
b0001af8:	e8bd8ff0 	ldmia	sp!, {r4, r5, r6, r7, r8, r9, sl, fp, pc}
b0001afc:	e1510003 	cmp	r1, r3
b0001b00:	e0873fa7 	add	r3, r7, r7, lsr #31
b0001b04:	e04840c3 	sub	r4, r8, r3, asr #1
b0001b08:	b8bd8ff0 	ldmltia	sp!, {r4, r5, r6, r7, r8, r9, sl, fp, pc}
b0001b0c:	e1a00005 	mov	r0, r5
b0001b10:	e1a01006 	mov	r1, r6
b0001b14:	e1a0200b 	mov	r2, fp
b0001b18:	e2466001 	sub	r6, r6, #1	; 0x1
b0001b1c:	ebffff24 	bl	b00017b4 <put_pixel>
b0001b20:	e3540000 	cmp	r4, #0	; 0x0
b0001b24:	c0674004 	rsbgt	r4, r7, r4
b0001b28:	c2455001 	subgt	r5, r5, #1	; 0x1
b0001b2c:	e1560009 	cmp	r6, r9
b0001b30:	e0844008 	add	r4, r4, r8
b0001b34:	aafffff4 	bge	b0001b0c <draw_line+0x230>
b0001b38:	e8bd8ff0 	ldmia	sp!, {r4, r5, r6, r7, r8, r9, sl, fp, pc}

b0001b3c <fill_fb>:
b0001b3c:	e92d45f0 	stmdb	sp!, {r4, r5, r6, r7, r8, sl, lr}
b0001b40:	e1520003 	cmp	r2, r3
b0001b44:	e1a07003 	mov	r7, r3
b0001b48:	e1a05002 	mov	r5, r2
b0001b4c:	e1a08000 	mov	r8, r0
b0001b50:	e1a06001 	mov	r6, r1
b0001b54:	e59da01c 	ldr	sl, [sp, #28]
b0001b58:	a8bd85f0 	ldmgeia	sp!, {r4, r5, r6, r7, r8, sl, pc}
b0001b5c:	e1a04008 	mov	r4, r8
b0001b60:	e1540006 	cmp	r4, r6
b0001b64:	aa000005 	bge	b0001b80 <fill_fb+0x44>
b0001b68:	e1a01004 	mov	r1, r4
b0001b6c:	e1a00005 	mov	r0, r5
b0001b70:	e1a0200a 	mov	r2, sl
b0001b74:	e2844001 	add	r4, r4, #1	; 0x1
b0001b78:	ebffff0d 	bl	b00017b4 <put_pixel>
b0001b7c:	eafffff7 	b	b0001b60 <fill_fb+0x24>
b0001b80:	e2855001 	add	r5, r5, #1	; 0x1
b0001b84:	e1550007 	cmp	r5, r7
b0001b88:	bafffff3 	blt	b0001b5c <fill_fb+0x20>
b0001b8c:	e8bd85f0 	ldmia	sp!, {r4, r5, r6, r7, r8, sl, pc}

b0001b90 <clear_display>:
b0001b90:	e92d4010 	stmdb	sp!, {r4, lr}
b0001b94:	e1a04000 	mov	r4, r0
b0001b98:	e24dd010 	sub	sp, sp, #16	; 0x10
b0001b9c:	e28d1008 	add	r1, sp, #8	; 0x8
b0001ba0:	e28d000c 	add	r0, sp, #12	; 0xc
b0001ba4:	e1a0300d 	mov	r3, sp
b0001ba8:	e28d2004 	add	r2, sp, #4	; 0x4
b0001bac:	eb000051 	bl	b0001cf8 <get_lcd_params>
b0001bb0:	e59d3004 	ldr	r3, [sp, #4]
b0001bb4:	e3a01000 	mov	r1, #0	; 0x0
b0001bb8:	e59d000c 	ldr	r0, [sp, #12]
b0001bbc:	e1510003 	cmp	r1, r3
b0001bc0:	aa000009 	bge	b0001bec <clear_display+0x5c>
b0001bc4:	e3a02000 	mov	r2, #0	; 0x0
b0001bc8:	e59d3008 	ldr	r3, [sp, #8]
b0001bcc:	e1520003 	cmp	r2, r3
b0001bd0:	b4804004 	strlt	r4, [r0], #4
b0001bd4:	b2822001 	addlt	r2, r2, #1	; 0x1
b0001bd8:	bafffffa 	blt	b0001bc8 <clear_display+0x38>
b0001bdc:	e59d3004 	ldr	r3, [sp, #4]
b0001be0:	e2811001 	add	r1, r1, #1	; 0x1
b0001be4:	e1510003 	cmp	r1, r3
b0001be8:	eafffff4 	b	b0001bc0 <clear_display+0x30>
b0001bec:	e28dd010 	add	sp, sp, #16	; 0x10
b0001bf0:	e8bd8010 	ldmia	sp!, {r4, pc}

b0001bf4 <fb_disp_cross>:
b0001bf4:	e92d4070 	stmdb	sp!, {r4, r5, r6, lr}
b0001bf8:	e1a04000 	mov	r4, r0
b0001bfc:	e1a05001 	mov	r5, r1
b0001c00:	e1a06002 	mov	r6, r2
b0001c04:	e1a03001 	mov	r3, r1
b0001c08:	e284200a 	add	r2, r4, #10	; 0xa
b0001c0c:	e240000a 	sub	r0, r0, #10	; 0xa
b0001c10:	e24dd004 	sub	sp, sp, #4	; 0x4
b0001c14:	e58d6000 	str	r6, [sp]
b0001c18:	ebffff2f 	bl	b00018dc <draw_line>
b0001c1c:	e1a00004 	mov	r0, r4
b0001c20:	e285300a 	add	r3, r5, #10	; 0xa
b0001c24:	e245100a 	sub	r1, r5, #10	; 0xa
b0001c28:	e1a02004 	mov	r2, r4
b0001c2c:	e58d6000 	str	r6, [sp]
b0001c30:	ebffff29 	bl	b00018dc <draw_line>
b0001c34:	e28dd004 	add	sp, sp, #4	; 0x4
b0001c38:	e8bd8070 	ldmia	sp!, {r4, r5, r6, pc}

b0001c3c <register_lcd>:
b0001c3c:	e1a0c000 	mov	ip, r0
b0001c40:	e3a02000 	mov	r2, #0	; 0x0
b0001c44:	e59f1028 	ldr	r1, [pc, #40]	; b0001c74 <.text+0x1c74>
b0001c48:	e7913102 	ldr	r3, [r1, r2, lsl #2]
b0001c4c:	e3530000 	cmp	r3, #0	; 0x0
b0001c50:	1a000002 	bne	b0001c60 <register_lcd+0x24>
b0001c54:	e1a00002 	mov	r0, r2
b0001c58:	e781c102 	str	ip, [r1, r2, lsl #2]
b0001c5c:	e1a0f00e 	mov	pc, lr
b0001c60:	e2822001 	add	r2, r2, #1	; 0x1
b0001c64:	e3520009 	cmp	r2, #9	; 0x9
b0001c68:	dafffff5 	ble	b0001c44 <register_lcd+0x8>
b0001c6c:	e3e00000 	mvn	r0, #0	; 0x0
b0001c70:	e1a0f00e 	mov	pc, lr
b0001c74:	b0009248 	andlt	r9, r0, r8, asr #4

b0001c78 <select_lcd>:
b0001c78:	e92d4070 	stmdb	sp!, {r4, r5, r6, lr}
b0001c7c:	e1a06000 	mov	r6, r0
b0001c80:	e3a04000 	mov	r4, #0	; 0x0
b0001c84:	e59f5044 	ldr	r5, [pc, #68]	; b0001cd0 <.text+0x1cd0>
b0001c88:	e7950104 	ldr	r0, [r5, r4, lsl #2]
b0001c8c:	e3500000 	cmp	r0, #0	; 0x0
b0001c90:	e1a01006 	mov	r1, r6
b0001c94:	0a000008 	beq	b0001cbc <select_lcd+0x44>
b0001c98:	e5900000 	ldr	r0, [r0]
b0001c9c:	eb000d61 	bl	b0005228 <strcmp>
b0001ca0:	e3500000 	cmp	r0, #0	; 0x0
b0001ca4:	1a000004 	bne	b0001cbc <select_lcd+0x44>
b0001ca8:	e7952104 	ldr	r2, [r5, r4, lsl #2]
b0001cac:	e59f3020 	ldr	r3, [pc, #32]	; b0001cd4 <.text+0x1cd4>
b0001cb0:	e1a00004 	mov	r0, r4
b0001cb4:	e5832000 	str	r2, [r3]
b0001cb8:	e8bd8070 	ldmia	sp!, {r4, r5, r6, pc}
b0001cbc:	e2844001 	add	r4, r4, #1	; 0x1
b0001cc0:	e3540009 	cmp	r4, #9	; 0x9
b0001cc4:	daffffee 	ble	b0001c84 <select_lcd+0xc>
b0001cc8:	e3e00000 	mvn	r0, #0	; 0x0
b0001ccc:	e8bd8070 	ldmia	sp!, {r4, r5, r6, pc}
b0001cd0:	b0009248 	andlt	r9, r0, r8, asr #4
b0001cd4:	b0009270 	andlt	r9, r0, r0, ror r2

b0001cd8 <lcd_enable>:
b0001cd8:	e59f3004 	ldr	r3, [pc, #4]	; b0001ce4 <.text+0x1ce4>
b0001cdc:	e5930000 	ldr	r0, [r3]
b0001ce0:	ea000055 	b	b0001e3c <lcd_controller_enable>
b0001ce4:	b0009270 	andlt	r9, r0, r0, ror r2

b0001ce8 <lcd_disable>:
b0001ce8:	e59f3004 	ldr	r3, [pc, #4]	; b0001cf4 <.text+0x1cf4>
b0001cec:	e5930000 	ldr	r0, [r3]
b0001cf0:	ea00005c 	b	b0001e68 <lcd_controller_disable>
b0001cf4:	b0009270 	andlt	r9, r0, r0, ror r2

b0001cf8 <get_lcd_params>:
b0001cf8:	e52de004 	str	lr, [sp, #-4]!
b0001cfc:	e59fc024 	ldr	ip, [pc, #36]	; b0001d28 <.text+0x1d28>
b0001d00:	e59ce000 	ldr	lr, [ip]
b0001d04:	e59ec040 	ldr	ip, [lr, #64]
b0001d08:	e580c000 	str	ip, [r0]
b0001d0c:	e59e0034 	ldr	r0, [lr, #52]
b0001d10:	e5810000 	str	r0, [r1]
b0001d14:	e59e1038 	ldr	r1, [lr, #56]
b0001d18:	e5821000 	str	r1, [r2]
b0001d1c:	e59e203c 	ldr	r2, [lr, #60]
b0001d20:	e5832000 	str	r2, [r3]
b0001d24:	e49df004 	ldr	pc, [sp], #4
b0001d28:	b0009270 	andlt	r9, r0, r0, ror r2

b0001d2c <lcd_init>:
b0001d2c:	e52de004 	str	lr, [sp, #-4]!
b0001d30:	eb00000c 	bl	b0001d68 <lcd_4_3_add>
b0001d34:	eb000056 	bl	b0001e94 <lcd_contoller_add>
b0001d38:	e59f001c 	ldr	r0, [pc, #28]	; b0001d5c <.text+0x1d5c>
b0001d3c:	ebffffcd 	bl	b0001c78 <select_lcd>
b0001d40:	e59f0018 	ldr	r0, [pc, #24]	; b0001d60 <.text+0x1d60>
b0001d44:	eb000019 	bl	b0001db0 <select_lcd_controller>
b0001d48:	e59f3014 	ldr	r3, [pc, #20]	; b0001d64 <.text+0x1d64>
b0001d4c:	e5930000 	ldr	r0, [r3]
b0001d50:	eb00002e 	bl	b0001e10 <lcd_controller_init>
b0001d54:	e49de004 	ldr	lr, [sp], #4
b0001d58:	eaffffde 	b	b0001cd8 <lcd_enable>
b0001d5c:	b0008964 	andlt	r8, r0, r4, ror #18
b0001d60:	b000896c 	andlt	r8, r0, ip, ror #18
b0001d64:	b0009270 	andlt	r9, r0, r0, ror r2

b0001d68 <lcd_4_3_add>:
b0001d68:	e59f0000 	ldr	r0, [pc, #0]	; b0001d70 <.text+0x1d70>
b0001d6c:	eaffffb2 	b	b0001c3c <register_lcd>
b0001d70:	b0008fc8 	andlt	r8, r0, r8, asr #31

b0001d74 <register_lcd_controller>:
b0001d74:	e1a0c000 	mov	ip, r0
b0001d78:	e3a02000 	mov	r2, #0	; 0x0
b0001d7c:	e59f1028 	ldr	r1, [pc, #40]	; b0001dac <.text+0x1dac>
b0001d80:	e7913102 	ldr	r3, [r1, r2, lsl #2]
b0001d84:	e3530000 	cmp	r3, #0	; 0x0
b0001d88:	1a000002 	bne	b0001d98 <register_lcd_controller+0x24>
b0001d8c:	e1a00002 	mov	r0, r2
b0001d90:	e781c102 	str	ip, [r1, r2, lsl #2]
b0001d94:	e1a0f00e 	mov	pc, lr
b0001d98:	e2822001 	add	r2, r2, #1	; 0x1
b0001d9c:	e3520009 	cmp	r2, #9	; 0x9
b0001da0:	dafffff5 	ble	b0001d7c <register_lcd_controller+0x8>
b0001da4:	e3e00000 	mvn	r0, #0	; 0x0
b0001da8:	e1a0f00e 	mov	pc, lr
b0001dac:	b0009274 	andlt	r9, r0, r4, ror r2

b0001db0 <select_lcd_controller>:
b0001db0:	e92d4070 	stmdb	sp!, {r4, r5, r6, lr}
b0001db4:	e1a06000 	mov	r6, r0
b0001db8:	e3a04000 	mov	r4, #0	; 0x0
b0001dbc:	e59f5044 	ldr	r5, [pc, #68]	; b0001e08 <.text+0x1e08>
b0001dc0:	e7950104 	ldr	r0, [r5, r4, lsl #2]
b0001dc4:	e3500000 	cmp	r0, #0	; 0x0
b0001dc8:	e1a01006 	mov	r1, r6
b0001dcc:	0a000008 	beq	b0001df4 <select_lcd_controller+0x44>
b0001dd0:	e5900000 	ldr	r0, [r0]
b0001dd4:	eb000d13 	bl	b0005228 <strcmp>
b0001dd8:	e3500000 	cmp	r0, #0	; 0x0
b0001ddc:	1a000004 	bne	b0001df4 <select_lcd_controller+0x44>
b0001de0:	e7952104 	ldr	r2, [r5, r4, lsl #2]
b0001de4:	e59f3020 	ldr	r3, [pc, #32]	; b0001e0c <.text+0x1e0c>
b0001de8:	e1a00004 	mov	r0, r4
b0001dec:	e5832000 	str	r2, [r3]
b0001df0:	e8bd8070 	ldmia	sp!, {r4, r5, r6, pc}
b0001df4:	e2844001 	add	r4, r4, #1	; 0x1
b0001df8:	e3540009 	cmp	r4, #9	; 0x9
b0001dfc:	daffffee 	ble	b0001dbc <select_lcd_controller+0xc>
b0001e00:	e3e00000 	mvn	r0, #0	; 0x0
b0001e04:	e8bd8070 	ldmia	sp!, {r4, r5, r6, pc}
b0001e08:	b0009274 	andlt	r9, r0, r4, ror r2
b0001e0c:	b000929c 	mullt	r0, ip, r2

b0001e10 <lcd_controller_init>:
b0001e10:	e52de004 	str	lr, [sp, #-4]!
b0001e14:	e59f301c 	ldr	r3, [pc, #28]	; b0001e38 <.text+0x1e38>
b0001e18:	e5933000 	ldr	r3, [r3]
b0001e1c:	e3530000 	cmp	r3, #0	; 0x0
b0001e20:	03e00000 	mvneq	r0, #0	; 0x0
b0001e24:	049df004 	ldreq	pc, [sp], #4
b0001e28:	e1a0e00f 	mov	lr, pc
b0001e2c:	e593f004 	ldr	pc, [r3, #4]
b0001e30:	e3a00000 	mov	r0, #0	; 0x0
b0001e34:	e49df004 	ldr	pc, [sp], #4
b0001e38:	b000929c 	mullt	r0, ip, r2

b0001e3c <lcd_controller_enable>:
b0001e3c:	e52de004 	str	lr, [sp, #-4]!
b0001e40:	e59f301c 	ldr	r3, [pc, #28]	; b0001e64 <.text+0x1e64>
b0001e44:	e5933000 	ldr	r3, [r3]
b0001e48:	e3530000 	cmp	r3, #0	; 0x0
b0001e4c:	03e00000 	mvneq	r0, #0	; 0x0
b0001e50:	049df004 	ldreq	pc, [sp], #4
b0001e54:	e1a0e00f 	mov	lr, pc
b0001e58:	e593f008 	ldr	pc, [r3, #8]
b0001e5c:	e3a00000 	mov	r0, #0	; 0x0
b0001e60:	e49df004 	ldr	pc, [sp], #4
b0001e64:	b000929c 	mullt	r0, ip, r2

b0001e68 <lcd_controller_disable>:
b0001e68:	e52de004 	str	lr, [sp, #-4]!
b0001e6c:	e59f301c 	ldr	r3, [pc, #28]	; b0001e90 <.text+0x1e90>
b0001e70:	e5933000 	ldr	r3, [r3]
b0001e74:	e3530000 	cmp	r3, #0	; 0x0
b0001e78:	03e00000 	mvneq	r0, #0	; 0x0
b0001e7c:	049df004 	ldreq	pc, [sp], #4
b0001e80:	e1a0e00f 	mov	lr, pc
b0001e84:	e593f00c 	ldr	pc, [r3, #12]
b0001e88:	e3a00000 	mov	r0, #0	; 0x0
b0001e8c:	e49df004 	ldr	pc, [sp], #4
b0001e90:	b000929c 	mullt	r0, ip, r2

b0001e94 <lcd_contoller_add>:
b0001e94:	ea000178 	b	b000247c <s3c6410_lcd_contoller_add>

b0001e98 <lcd_test>:
b0001e98:	e92d4010 	stmdb	sp!, {r4, lr}
b0001e9c:	e24dd014 	sub	sp, sp, #20	; 0x14
b0001ea0:	ebffffa1 	bl	b0001d2c <lcd_init>
b0001ea4:	e28d0010 	add	r0, sp, #16	; 0x10
b0001ea8:	e28d100c 	add	r1, sp, #12	; 0xc
b0001eac:	e28d2008 	add	r2, sp, #8	; 0x8
b0001eb0:	e28d3004 	add	r3, sp, #4	; 0x4
b0001eb4:	ebffff8f 	bl	b0001cf8 <get_lcd_params>
b0001eb8:	e59dc004 	ldr	ip, [sp, #4]
b0001ebc:	e59d3008 	ldr	r3, [sp, #8]
b0001ec0:	e59d1010 	ldr	r1, [sp, #16]
b0001ec4:	e59d200c 	ldr	r2, [sp, #12]
b0001ec8:	e59f022c 	ldr	r0, [pc, #556]	; b00020fc <.text+0x20fc>
b0001ecc:	e58dc000 	str	ip, [sp]
b0001ed0:	eb000c2c 	bl	b0004f88 <printf>
b0001ed4:	ebfffe2d 	bl	b0001790 <fb_get_lcd_params>
b0001ed8:	e59d3004 	ldr	r3, [sp, #4]
b0001edc:	e3530018 	cmp	r3, #24	; 0x18
b0001ee0:	1a000083 	bne	b00020f4 <lcd_test+0x25c>
b0001ee4:	e59d3008 	ldr	r3, [sp, #8]
b0001ee8:	e3a00000 	mov	r0, #0	; 0x0
b0001eec:	e59d1010 	ldr	r1, [sp, #16]
b0001ef0:	e1500003 	cmp	r0, r3
b0001ef4:	aa00000a 	bge	b0001f24 <lcd_test+0x8c>
b0001ef8:	e3a02000 	mov	r2, #0	; 0x0
b0001efc:	e59d300c 	ldr	r3, [sp, #12]
b0001f00:	e1520003 	cmp	r2, r3
b0001f04:	b3a038ff 	movlt	r3, #16711680	; 0xff0000
b0001f08:	b4813004 	strlt	r3, [r1], #4
b0001f0c:	b2822001 	addlt	r2, r2, #1	; 0x1
b0001f10:	bafffff9 	blt	b0001efc <lcd_test+0x64>
b0001f14:	e59d3008 	ldr	r3, [sp, #8]
b0001f18:	e2800001 	add	r0, r0, #1	; 0x1
b0001f1c:	e1500003 	cmp	r0, r3
b0001f20:	eafffff3 	b	b0001ef4 <lcd_test+0x5c>
b0001f24:	e59f01d4 	ldr	r0, [pc, #468]	; b0002100 <.text+0x2100>
b0001f28:	eb000c0c 	bl	b0004f60 <delay>
b0001f2c:	e59d3008 	ldr	r3, [sp, #8]
b0001f30:	e3a00000 	mov	r0, #0	; 0x0
b0001f34:	e59d1010 	ldr	r1, [sp, #16]
b0001f38:	e1500003 	cmp	r0, r3
b0001f3c:	aa00000a 	bge	b0001f6c <lcd_test+0xd4>
b0001f40:	e3a02000 	mov	r2, #0	; 0x0
b0001f44:	e59d300c 	ldr	r3, [sp, #12]
b0001f48:	e1520003 	cmp	r2, r3
b0001f4c:	b3a03cff 	movlt	r3, #65280	; 0xff00
b0001f50:	b4813004 	strlt	r3, [r1], #4
b0001f54:	b2822001 	addlt	r2, r2, #1	; 0x1
b0001f58:	bafffff9 	blt	b0001f44 <lcd_test+0xac>
b0001f5c:	e59d3008 	ldr	r3, [sp, #8]
b0001f60:	e2800001 	add	r0, r0, #1	; 0x1
b0001f64:	e1500003 	cmp	r0, r3
b0001f68:	eafffff3 	b	b0001f3c <lcd_test+0xa4>
b0001f6c:	e59f018c 	ldr	r0, [pc, #396]	; b0002100 <.text+0x2100>
b0001f70:	eb000bfa 	bl	b0004f60 <delay>
b0001f74:	e59d3008 	ldr	r3, [sp, #8]
b0001f78:	e3a00000 	mov	r0, #0	; 0x0
b0001f7c:	e59d1010 	ldr	r1, [sp, #16]
b0001f80:	e1500003 	cmp	r0, r3
b0001f84:	aa00000a 	bge	b0001fb4 <lcd_test+0x11c>
b0001f88:	e3a02000 	mov	r2, #0	; 0x0
b0001f8c:	e59d300c 	ldr	r3, [sp, #12]
b0001f90:	e1520003 	cmp	r2, r3
b0001f94:	b3a030ff 	movlt	r3, #255	; 0xff
b0001f98:	b4813004 	strlt	r3, [r1], #4
b0001f9c:	b2822001 	addlt	r2, r2, #1	; 0x1
b0001fa0:	bafffff9 	blt	b0001f8c <lcd_test+0xf4>
b0001fa4:	e59d3008 	ldr	r3, [sp, #8]
b0001fa8:	e2800001 	add	r0, r0, #1	; 0x1
b0001fac:	e1500003 	cmp	r0, r3
b0001fb0:	eafffff3 	b	b0001f84 <lcd_test+0xec>
b0001fb4:	e59f0144 	ldr	r0, [pc, #324]	; b0002100 <.text+0x2100>
b0001fb8:	eb000be8 	bl	b0004f60 <delay>
b0001fbc:	e3a00000 	mov	r0, #0	; 0x0
b0001fc0:	ebfffef2 	bl	b0001b90 <clear_display>
b0001fc4:	e59d200c 	ldr	r2, [sp, #12]
b0001fc8:	e3a00000 	mov	r0, #0	; 0x0
b0001fcc:	e3a048ff 	mov	r4, #16711680	; 0xff0000
b0001fd0:	e1a01000 	mov	r1, r0
b0001fd4:	e1a03000 	mov	r3, r0
b0001fd8:	e2422001 	sub	r2, r2, #1	; 0x1
b0001fdc:	e58d4000 	str	r4, [sp]
b0001fe0:	ebfffe3d 	bl	b00018dc <draw_line>
b0001fe4:	e59d3008 	ldr	r3, [sp, #8]
b0001fe8:	e3a00000 	mov	r0, #0	; 0x0
b0001fec:	e1a01000 	mov	r1, r0
b0001ff0:	e1a02000 	mov	r2, r0
b0001ff4:	e2433001 	sub	r3, r3, #1	; 0x1
b0001ff8:	e58d4000 	str	r4, [sp]
b0001ffc:	ebfffe36 	bl	b00018dc <draw_line>
b0002000:	e28d1008 	add	r1, sp, #8	; 0x8
b0002004:	e8910006 	ldmia	r1, {r1, r2}
b0002008:	e2411001 	sub	r1, r1, #1	; 0x1
b000200c:	e1a03001 	mov	r3, r1
b0002010:	e2422001 	sub	r2, r2, #1	; 0x1
b0002014:	e3a00000 	mov	r0, #0	; 0x0
b0002018:	e58d4000 	str	r4, [sp]
b000201c:	ebfffe2e 	bl	b00018dc <draw_line>
b0002020:	e59d000c 	ldr	r0, [sp, #12]
b0002024:	e59d3008 	ldr	r3, [sp, #8]
b0002028:	e2400001 	sub	r0, r0, #1	; 0x1
b000202c:	e1a02000 	mov	r2, r0
b0002030:	e2433001 	sub	r3, r3, #1	; 0x1
b0002034:	e3a01000 	mov	r1, #0	; 0x0
b0002038:	e58d4000 	str	r4, [sp]
b000203c:	ebfffe26 	bl	b00018dc <draw_line>
b0002040:	e59d200c 	ldr	r2, [sp, #12]
b0002044:	e59d3008 	ldr	r3, [sp, #8]
b0002048:	e3a00000 	mov	r0, #0	; 0x0
b000204c:	e1a01000 	mov	r1, r0
b0002050:	e2422001 	sub	r2, r2, #1	; 0x1
b0002054:	e2433001 	sub	r3, r3, #1	; 0x1
b0002058:	e58d4000 	str	r4, [sp]
b000205c:	ebfffe1e 	bl	b00018dc <draw_line>
b0002060:	e59d3008 	ldr	r3, [sp, #8]
b0002064:	e59d000c 	ldr	r0, [sp, #12]
b0002068:	e3a01000 	mov	r1, #0	; 0x0
b000206c:	e1a02001 	mov	r2, r1
b0002070:	e2433001 	sub	r3, r3, #1	; 0x1
b0002074:	e2400001 	sub	r0, r0, #1	; 0x1
b0002078:	e58d4000 	str	r4, [sp]
b000207c:	ebfffe16 	bl	b00018dc <draw_line>
b0002080:	e59f0078 	ldr	r0, [pc, #120]	; b0002100 <.text+0x2100>
b0002084:	eb000bb5 	bl	b0004f60 <delay>
b0002088:	e59d1008 	ldr	r1, [sp, #8]
b000208c:	e59d000c 	ldr	r0, [sp, #12]
b0002090:	e1a03fc1 	mov	r3, r1, asr #31
b0002094:	e0812f23 	add	r2, r1, r3, lsr #30
b0002098:	e0800fa0 	add	r0, r0, r0, lsr #31
b000209c:	e0811fa3 	add	r1, r1, r3, lsr #31
b00020a0:	e1a010c1 	mov	r1, r1, asr #1
b00020a4:	e1a02142 	mov	r2, r2, asr #2
b00020a8:	e59f3054 	ldr	r3, [pc, #84]	; b0002104 <.text+0x2104>
b00020ac:	e1a000c0 	mov	r0, r0, asr #1
b00020b0:	ebfffdc8 	bl	b00017d8 <draw_circle>
b00020b4:	e59f0044 	ldr	r0, [pc, #68]	; b0002100 <.text+0x2100>
b00020b8:	eb000ba8 	bl	b0004f60 <delay>
b00020bc:	e3a00000 	mov	r0, #0	; 0x0
b00020c0:	ebfffeb2 	bl	b0001b90 <clear_display>
b00020c4:	e3a00016 	mov	r0, #22	; 0x16
b00020c8:	e1a01000 	mov	r1, r0
b00020cc:	e1a03004 	mov	r3, r4
b00020d0:	e59f2030 	ldr	r2, [pc, #48]	; b0002108 <.text+0x2108>
b00020d4:	ebfffd87 	bl	b00016f8 <fb_printf_string>
b00020d8:	e3a00e19 	mov	r0, #400	; 0x190
b00020dc:	e3a010c8 	mov	r1, #200	; 0xc8
b00020e0:	e3a02041 	mov	r2, #65	; 0x41
b00020e4:	e59f3020 	ldr	r3, [pc, #32]	; b000210c <.text+0x210c>
b00020e8:	ebfffd55 	bl	b0001644 <fb_printf_char>
b00020ec:	e59f000c 	ldr	r0, [pc, #12]	; b0002100 <.text+0x2100>
b00020f0:	eb000b9a 	bl	b0004f60 <delay>
b00020f4:	e28dd014 	add	sp, sp, #20	; 0x14
b00020f8:	e8bd8010 	ldmia	sp!, {r4, pc}
b00020fc:	b0008974 	andlt	r8, r0, r4, ror r9
b0002100:	000186a0 	andeq	r8, r1, r0, lsr #13
b0002104:	0000f0f0 	streqd	pc, [r0], -r0
b0002108:	b000899c 	mullt	r0, ip, r9
b000210c:	00fff456 	rsceqs	pc, pc, r6, asr r4

b0002110 <s3c6410_lcd_pin_init>:
b0002110:	e59f2030 	ldr	r2, [pc, #48]	; b0002148 <.text+0x2148>
b0002114:	e59f3030 	ldr	r3, [pc, #48]	; b000214c <.text+0x214c>
b0002118:	e4832020 	str	r2, [r3], #32
b000211c:	e2822456 	add	r2, r2, #1442840576	; 0x56000000
b0002120:	e59f1028 	ldr	r1, [pc, #40]	; b0002150 <.text+0x2150>
b0002124:	e5832000 	str	r2, [r3]
b0002128:	e59f0024 	ldr	r0, [pc, #36]	; b0002154 <.text+0x2154>
b000212c:	e5913000 	ldr	r3, [r1]
b0002130:	e3833001 	orr	r3, r3, #1	; 0x1
b0002134:	e5813000 	str	r3, [r1]
b0002138:	e5903000 	ldr	r3, [r0]
b000213c:	e3833101 	orr	r3, r3, #1073741824	; 0x40000000
b0002140:	e5803000 	str	r3, [r0]
b0002144:	e1a0f00e 	mov	pc, lr
b0002148:	aaaaaaaa 	bge	aeaacbf8 <__code_start-0x1553408>
b000214c:	7f008100 	swivc	0x00008100
b0002150:	7f008080 	swivc	0x00008080
b0002154:	7f0080a0 	swivc	0x000080a0

b0002158 <s3c6410_lcd_controller_init>:
b0002158:	e92d4010 	stmdb	sp!, {r4, lr}
b000215c:	e1a04000 	mov	r4, r0
b0002160:	ebffffea 	bl	b0002110 <s3c6410_lcd_pin_init>
b0002164:	e59f2224 	ldr	r2, [pc, #548]	; b0002390 <.text+0x2390>
b0002168:	e5923000 	ldr	r3, [r2]
b000216c:	e3c33008 	bic	r3, r3, #8	; 0x8
b0002170:	e5823000 	str	r3, [r2]
b0002174:	e59f0218 	ldr	r0, [pc, #536]	; b0002394 <.text+0x2394>
b0002178:	e5921000 	ldr	r1, [r2]
b000217c:	eb000b81 	bl	b0004f88 <printf>
b0002180:	e59f2210 	ldr	r2, [pc, #528]	; b0002398 <.text+0x2398>
b0002184:	e5923000 	ldr	r3, [r2]
b0002188:	e3833001 	orr	r3, r3, #1	; 0x1
b000218c:	e5823000 	str	r3, [r2]
b0002190:	e59f0204 	ldr	r0, [pc, #516]	; b000239c <.text+0x239c>
b0002194:	e5921000 	ldr	r1, [r2]
b0002198:	eb000b7a 	bl	b0004f88 <printf>
b000219c:	e5940030 	ldr	r0, [r4, #48]
b00021a0:	eb0014af 	bl	b0007464 <__floatsisf>
b00021a4:	e1a01000 	mov	r1, r0
b00021a8:	e59f01f0 	ldr	r0, [pc, #496]	; b00023a0 <.text+0x23a0>
b00021ac:	eb00152e 	bl	b000766c <__divsf3>
b00021b0:	e3a015fe 	mov	r1, #1065353216	; 0x3f800000
b00021b4:	eb001437 	bl	b0007298 <__subsf3>
b00021b8:	eb001593 	bl	b000780c <__fixsfsi>
b00021bc:	e59f31e0 	ldr	r3, [pc, #480]	; b00023a4 <.text+0x23a4>
b00021c0:	e1a00300 	mov	r0, r0, lsl #6
b00021c4:	e3800010 	orr	r0, r0, #16	; 0x10
b00021c8:	e5830000 	str	r0, [r3]
b00021cc:	e59f01d4 	ldr	r0, [pc, #468]	; b00023a8 <.text+0x23a8>
b00021d0:	e5931000 	ldr	r1, [r3]
b00021d4:	eb000b6b 	bl	b0004f88 <printf>
b00021d8:	e5943010 	ldr	r3, [r4, #16]
b00021dc:	e5942008 	ldr	r2, [r4, #8]
b00021e0:	e5941014 	ldr	r1, [r4, #20]
b00021e4:	e1a03303 	mov	r3, r3, lsl #6
b00021e8:	e5940004 	ldr	r0, [r4, #4]
b00021ec:	e1833382 	orr	r3, r3, r2, lsl #7
b00021f0:	e1833281 	orr	r3, r3, r1, lsl #5
b00021f4:	e59f21b0 	ldr	r2, [pc, #432]	; b00023ac <.text+0x23ac>
b00021f8:	e1833200 	orr	r3, r3, r0, lsl #4
b00021fc:	e5823000 	str	r3, [r2]
b0002200:	e59f01a8 	ldr	r0, [pc, #424]	; b00023b0 <.text+0x23b0>
b0002204:	e5921000 	ldr	r1, [r2]
b0002208:	eb000b5e 	bl	b0004f88 <printf>
b000220c:	e2841018 	add	r1, r4, #24	; 0x18
b0002210:	e891000e 	ldmia	r1, {r1, r2, r3}
b0002214:	e2433001 	sub	r3, r3, #1	; 0x1
b0002218:	e2422001 	sub	r2, r2, #1	; 0x1
b000221c:	e1a03403 	mov	r3, r3, lsl #8
b0002220:	e1833802 	orr	r3, r3, r2, lsl #16
b0002224:	e2411001 	sub	r1, r1, #1	; 0x1
b0002228:	e59f2184 	ldr	r2, [pc, #388]	; b00023b4 <.text+0x23b4>
b000222c:	e1833001 	orr	r3, r3, r1
b0002230:	e5823000 	str	r3, [r2]
b0002234:	e59f017c 	ldr	r0, [pc, #380]	; b00023b8 <.text+0x23b8>
b0002238:	e5921000 	ldr	r1, [r2]
b000223c:	eb000b51 	bl	b0004f88 <printf>
b0002240:	e2841024 	add	r1, r4, #36	; 0x24
b0002244:	e891000e 	ldmia	r1, {r1, r2, r3}
b0002248:	e2433001 	sub	r3, r3, #1	; 0x1
b000224c:	e2422001 	sub	r2, r2, #1	; 0x1
b0002250:	e1a03403 	mov	r3, r3, lsl #8
b0002254:	e1833802 	orr	r3, r3, r2, lsl #16
b0002258:	e2411001 	sub	r1, r1, #1	; 0x1
b000225c:	e59f2158 	ldr	r2, [pc, #344]	; b00023bc <.text+0x23bc>
b0002260:	e1833001 	orr	r3, r3, r1
b0002264:	e5823000 	str	r3, [r2]
b0002268:	e59f0150 	ldr	r0, [pc, #336]	; b00023c0 <.text+0x23c0>
b000226c:	e5921000 	ldr	r1, [r2]
b0002270:	eb000b44 	bl	b0004f88 <printf>
b0002274:	e5943034 	ldr	r3, [r4, #52]
b0002278:	e5942038 	ldr	r2, [r4, #56]
b000227c:	e59f1140 	ldr	r1, [pc, #320]	; b00023c4 <.text+0x23c4>
b0002280:	e2422001 	sub	r2, r2, #1	; 0x1
b0002284:	e2433001 	sub	r3, r3, #1	; 0x1
b0002288:	e1833582 	orr	r3, r3, r2, lsl #11
b000228c:	e5813000 	str	r3, [r1]
b0002290:	e59f0130 	ldr	r0, [pc, #304]	; b00023c8 <.text+0x23c8>
b0002294:	e5911000 	ldr	r1, [r1]
b0002298:	eb000b3a 	bl	b0004f88 <printf>
b000229c:	e594303c 	ldr	r3, [r4, #60]
b00022a0:	e3530008 	cmp	r3, #8	; 0x8
b00022a4:	03a03003 	moveq	r3, #3	; 0x3
b00022a8:	0a000005 	beq	b00022c4 <s3c6410_lcd_controller_init+0x16c>
b00022ac:	e3530010 	cmp	r3, #16	; 0x10
b00022b0:	03a03005 	moveq	r3, #5	; 0x5
b00022b4:	0a000002 	beq	b00022c4 <s3c6410_lcd_controller_init+0x16c>
b00022b8:	e3530012 	cmp	r3, #18	; 0x12
b00022bc:	13a0300b 	movne	r3, #11	; 0xb
b00022c0:	03a03008 	moveq	r3, #8	; 0x8
b00022c4:	e59f2100 	ldr	r2, [pc, #256]	; b00023cc <.text+0x23cc>
b00022c8:	e1a03103 	mov	r3, r3, lsl #2
b00022cc:	e3833001 	orr	r3, r3, #1	; 0x1
b00022d0:	e5823000 	str	r3, [r2]
b00022d4:	e59f00f4 	ldr	r0, [pc, #244]	; b00023d0 <.text+0x23d0>
b00022d8:	e5921000 	ldr	r1, [r2]
b00022dc:	eb000b29 	bl	b0004f88 <printf>
b00022e0:	e59f20ec 	ldr	r2, [pc, #236]	; b00023d4 <.text+0x23d4>
b00022e4:	e3a03000 	mov	r3, #0	; 0x0
b00022e8:	e5823000 	str	r3, [r2]
b00022ec:	e59f00e4 	ldr	r0, [pc, #228]	; b00023d8 <.text+0x23d8>
b00022f0:	e5921000 	ldr	r1, [r2]
b00022f4:	eb000b23 	bl	b0004f88 <printf>
b00022f8:	e2841034 	add	r1, r4, #52	; 0x34
b00022fc:	e891000a 	ldmia	r1, {r1, r3}
b0002300:	e59f20d4 	ldr	r2, [pc, #212]	; b00023dc <.text+0x23dc>
b0002304:	e1833581 	orr	r3, r3, r1, lsl #11
b0002308:	e5823000 	str	r3, [r2]
b000230c:	e59f00cc 	ldr	r0, [pc, #204]	; b00023e0 <.text+0x23e0>
b0002310:	e5921000 	ldr	r1, [r2]
b0002314:	eb000b1b 	bl	b0004f88 <printf>
b0002318:	e2842034 	add	r2, r4, #52	; 0x34
b000231c:	e892000c 	ldmia	r2, {r2, r3}
b0002320:	e0030392 	mul	r3, r2, r3
b0002324:	e59f20b8 	ldr	r2, [pc, #184]	; b00023e4 <.text+0x23e4>
b0002328:	e5823000 	str	r3, [r2]
b000232c:	e59f00b4 	ldr	r0, [pc, #180]	; b00023e8 <.text+0x23e8>
b0002330:	e5921000 	ldr	r1, [r2]
b0002334:	eb000b13 	bl	b0004f88 <printf>
b0002338:	e59f20ac 	ldr	r2, [pc, #172]	; b00023ec <.text+0x23ec>
b000233c:	e5943040 	ldr	r3, [r4, #64]
b0002340:	e5823000 	str	r3, [r2]
b0002344:	e59f00a4 	ldr	r0, [pc, #164]	; b00023f0 <.text+0x23f0>
b0002348:	e5921000 	ldr	r1, [r2]
b000234c:	eb000b0d 	bl	b0004f88 <printf>
b0002350:	e2842034 	add	r2, r4, #52	; 0x34
b0002354:	e892000c 	ldmia	r2, {r2, r3}
b0002358:	e0030392 	mul	r3, r2, r3
b000235c:	e5942040 	ldr	r2, [r4, #64]
b0002360:	e1a03103 	mov	r3, r3, lsl #2
b0002364:	e3c334ff 	bic	r3, r3, #-16777216	; 0xff000000
b0002368:	e59f1084 	ldr	r1, [pc, #132]	; b00023f4 <.text+0x23f4>
b000236c:	e0822003 	add	r2, r2, r3
b0002370:	e5812000 	str	r2, [r1]
b0002374:	e59f007c 	ldr	r0, [pc, #124]	; b00023f8 <.text+0x23f8>
b0002378:	e5911000 	ldr	r1, [r1]
b000237c:	eb000b01 	bl	b0004f88 <printf>
b0002380:	e5942034 	ldr	r2, [r4, #52]
b0002384:	e59f3070 	ldr	r3, [pc, #112]	; b00023fc <.text+0x23fc>
b0002388:	e5832000 	str	r2, [r3]
b000238c:	e8bd8010 	ldmia	sp!, {r4, pc}
b0002390:	7410800c 	ldrvc	r8, [r0], #-12
b0002394:	b00089c4 	andlt	r8, r0, r4, asr #19
b0002398:	7f0081a0 	swivc	0x000081a0
b000239c:	b00089d4 	ldrltd	r8, [r0], -r4
b00023a0:	43050000 	tstmi	r5, #0	; 0x0
b00023a4:	77100000 	ldrvc	r0, [r0, -r0]
b00023a8:	b00089e4 	andlt	r8, r0, r4, ror #19
b00023ac:	77100004 	ldrvc	r0, [r0, -r4]
b00023b0:	b00089f8 	strltd	r8, [r0], -r8
b00023b4:	77100010 	undefined
b00023b8:	b0008a0c 	andlt	r8, r0, ip, lsl #20
b00023bc:	77100014 	undefined
b00023c0:	b0008a20 	andlt	r8, r0, r0, lsr #20
b00023c4:	77100018 	undefined
b00023c8:	b0008a34 	andlt	r8, r0, r4, lsr sl
b00023cc:	77100020 	ldrvc	r0, [r0, -r0, lsr #32]
b00023d0:	b0008a48 	andlt	r8, r0, r8, asr #20
b00023d4:	77100040 	ldrvc	r0, [r0, -r0, asr #32]
b00023d8:	b0008a5c 	andlt	r8, r0, ip, asr sl
b00023dc:	77100044 	ldrvc	r0, [r0, -r4, asr #32]
b00023e0:	b0008a70 	andlt	r8, r0, r0, ror sl
b00023e4:	77100048 	ldrvc	r0, [r0, -r8, asr #32]
b00023e8:	b0008a84 	andlt	r8, r0, r4, lsl #21
b00023ec:	771000a0 	ldrvc	r0, [r0, -r0, lsr #1]
b00023f0:	b0008a98 	mullt	r0, r8, sl
b00023f4:	771000d0 	undefined
b00023f8:	b0008ab0 	strlth	r8, [r0], -r0
b00023fc:	77100100 	ldrvc	r0, [r0, -r0, lsl #2]

b0002400 <s3c6410_lcd_controller_enable>:
b0002400:	e59f201c 	ldr	r2, [pc, #28]	; b0002424 <.text+0x2424>
b0002404:	e5923000 	ldr	r3, [r2]
b0002408:	e3833003 	orr	r3, r3, #3	; 0x3
b000240c:	e5823000 	str	r3, [r2]
b0002410:	e59f2010 	ldr	r2, [pc, #16]	; b0002428 <.text+0x2428>
b0002414:	e5923000 	ldr	r3, [r2]
b0002418:	e3833001 	orr	r3, r3, #1	; 0x1
b000241c:	e5823000 	str	r3, [r2]
b0002420:	e1a0f00e 	mov	pc, lr
b0002424:	77100000 	ldrvc	r0, [r0, -r0]
b0002428:	7f008084 	swivc	0x00008084

b000242c <s3c6410_lcd_controller_disable>:
b000242c:	e59f203c 	ldr	r2, [pc, #60]	; b0002470 <.text+0x2470>
b0002430:	e5923000 	ldr	r3, [r2]
b0002434:	e3c33003 	bic	r3, r3, #3	; 0x3
b0002438:	e5823000 	str	r3, [r2]
b000243c:	e59f3030 	ldr	r3, [pc, #48]	; b0002474 <.text+0x2474>
b0002440:	e3a01000 	mov	r1, #0	; 0x0
b0002444:	e59f202c 	ldr	r2, [pc, #44]	; b0002478 <.text+0x2478>
b0002448:	e5831000 	str	r1, [r3]
b000244c:	e5923000 	ldr	r3, [r2]
b0002450:	e1a03803 	mov	r3, r3, lsl #16
b0002454:	e1a03823 	mov	r3, r3, lsr #16
b0002458:	e5823000 	str	r3, [r2]
b000245c:	e5923000 	ldr	r3, [r2]
b0002460:	e3833411 	orr	r3, r3, #285212672	; 0x11000000
b0002464:	e3833811 	orr	r3, r3, #1114112	; 0x110000
b0002468:	e5823000 	str	r3, [r2]
b000246c:	e1a0f00e 	mov	pc, lr
b0002470:	77100000 	ldrvc	r0, [r0, -r0]
b0002474:	7f008084 	swivc	0x00008084
b0002478:	7f008800 	swivc	0x00008800

b000247c <s3c6410_lcd_contoller_add>:
b000247c:	e59f0000 	ldr	r0, [pc, #0]	; b0002484 <.text+0x2484>
b0002480:	eafffe3b 	b	b0001d74 <register_lcd_controller>
b0002484:	b000900c 	andlt	r9, r0, ip

b0002488 <adc_init>:
b0002488:	e59f3030 	ldr	r3, [pc, #48]	; b00024c0 <.text+0x24c0>
b000248c:	e1a00180 	mov	r0, r0, lsl #3
b0002490:	e0003003 	and	r3, r0, r3
b0002494:	e59f2028 	ldr	r2, [pc, #40]	; b00024c4 <.text+0x24c4>
b0002498:	e3833b53 	orr	r3, r3, #84992	; 0x14c00
b000249c:	e3833040 	orr	r3, r3, #64	; 0x40
b00024a0:	e5823000 	str	r3, [r2]
b00024a4:	e5923000 	ldr	r3, [r2]
b00024a8:	e3c33006 	bic	r3, r3, #6	; 0x6
b00024ac:	e5823000 	str	r3, [r2]
b00024b0:	e59f3010 	ldr	r3, [pc, #16]	; b00024c8 <.text+0x24c8>
b00024b4:	e3a020ff 	mov	r2, #255	; 0xff
b00024b8:	e5832000 	str	r2, [r3]
b00024bc:	e1a0f00e 	mov	pc, lr
b00024c0:	000007f8 	streqd	r0, [r0], -r8
b00024c4:	7e00b000 	cdpvc	0, 0, cr11, cr0, cr0, {0}
b00024c8:	7e00b008 	cdpvc	0, 0, cr11, cr0, cr8, {0}

b00024cc <adc_read>:
b00024cc:	e52de004 	str	lr, [sp, #-4]!
b00024d0:	e20000ff 	and	r0, r0, #255	; 0xff
b00024d4:	ebffffeb 	bl	b0002488 <adc_init>
b00024d8:	e59f202c 	ldr	r2, [pc, #44]	; b000250c <.text+0x250c>
b00024dc:	e5923000 	ldr	r3, [r2]
b00024e0:	e3833001 	orr	r3, r3, #1	; 0x1
b00024e4:	e5823000 	str	r3, [r2]
b00024e8:	e59f301c 	ldr	r3, [pc, #28]	; b000250c <.text+0x250c>
b00024ec:	e5933000 	ldr	r3, [r3]
b00024f0:	e3130902 	tst	r3, #32768	; 0x8000
b00024f4:	0afffffb 	beq	b00024e8 <adc_read+0x1c>
b00024f8:	e59f3010 	ldr	r3, [pc, #16]	; b0002510 <.text+0x2510>
b00024fc:	e5930000 	ldr	r0, [r3]
b0002500:	e1a00a00 	mov	r0, r0, lsl #20
b0002504:	e1a00a20 	mov	r0, r0, lsr #20
b0002508:	e49df004 	ldr	pc, [sp], #4
b000250c:	7e00b000 	cdpvc	0, 0, cr11, cr0, cr0, {0}
b0002510:	7e00b00c 	cdpvc	0, 0, cr11, cr0, cr12, {0}

b0002514 <adc_test>:
b0002514:	e92d4070 	stmdb	sp!, {r4, r5, r6, lr}
b0002518:	e24dd020 	sub	sp, sp, #32	; 0x20
b000251c:	e3a00001 	mov	r0, #1	; 0x1
b0002520:	ebffffe9 	bl	b00024cc <adc_read>
b0002524:	eb0011bd 	bl	b0006c20 <__floatsidf>
b0002528:	e28f2074 	add	r2, pc, #116	; 0x74
b000252c:	e892000c 	ldmia	r2, {r2, r3}
b0002530:	eb00129d 	bl	b0006fac <__divdf3>
b0002534:	e28f2070 	add	r2, pc, #112	; 0x70
b0002538:	e892000c 	ldmia	r2, {r2, r3}
b000253c:	eb0011d5 	bl	b0006c98 <__muldf3>
b0002540:	e1a05001 	mov	r5, r1
b0002544:	e1a04000 	mov	r4, r0
b0002548:	eb001332 	bl	b0007218 <__fixdfsi>
b000254c:	e1a06000 	mov	r6, r0
b0002550:	eb0011b2 	bl	b0006c20 <__floatsidf>
b0002554:	e1a03001 	mov	r3, r1
b0002558:	e1a02000 	mov	r2, r0
b000255c:	e1a01005 	mov	r1, r5
b0002560:	e1a00004 	mov	r0, r4
b0002564:	eb0010e9 	bl	b0006910 <__subdf3>
b0002568:	e28f2044 	add	r2, pc, #68	; 0x44
b000256c:	e892000c 	ldmia	r2, {r2, r3}
b0002570:	eb0011c8 	bl	b0006c98 <__muldf3>
b0002574:	eb001327 	bl	b0007218 <__fixdfsi>
b0002578:	e1a02006 	mov	r2, r6
b000257c:	e1a03000 	mov	r3, r0
b0002580:	e59f1034 	ldr	r1, [pc, #52]	; b00025bc <.text+0x25bc>
b0002584:	e1a0000d 	mov	r0, sp
b0002588:	eb000f04 	bl	b00061a0 <sprintf>
b000258c:	e1a0200d 	mov	r2, sp
b0002590:	e3a0001e 	mov	r0, #30	; 0x1e
b0002594:	e3a01064 	mov	r1, #100	; 0x64
b0002598:	e59f3020 	ldr	r3, [pc, #32]	; b00025c0 <.text+0x25c0>
b000259c:	ebfffc55 	bl	b00016f8 <fb_printf_string>
b00025a0:	eaffffdd 	b	b000251c <adc_test+0x8>
b00025a4:	40affe00 	adcmi	pc, pc, r0, lsl #28
b00025a8:	00000000 	andeq	r0, r0, r0
b00025ac:	400a6666 	andmi	r6, sl, r6, ror #12
b00025b0:	66666666 	strvsbt	r6, [r6], -r6, ror #12
b00025b4:	408f4000 	addmi	r4, pc, r0
b00025b8:	00000000 	andeq	r0, r0, r0
b00025bc:	b0008ac8 	andlt	r8, r0, r8, asr #21
b00025c0:	00aabbcc 	adceq	fp, sl, ip, asr #23

b00025c4 <wait_for_pen_down>:
b00025c4:	e59f3014 	ldr	r3, [pc, #20]	; b00025e0 <.text+0x25e0>
b00025c8:	e3a020d3 	mov	r2, #211	; 0xd3
b00025cc:	e5832000 	str	r2, [r3]
b00025d0:	e59f300c 	ldr	r3, [pc, #12]	; b00025e4 <.text+0x25e4>
b00025d4:	e24220d3 	sub	r2, r2, #211	; 0xd3
b00025d8:	e5c32000 	strb	r2, [r3]
b00025dc:	e1a0f00e 	mov	pc, lr
b00025e0:	7e00b004 	cdpvc	0, 0, cr11, cr0, cr4, {0}
b00025e4:	b00092a0 	andlt	r9, r0, r0, lsr #5

b00025e8 <wait_for_pen_up>:
b00025e8:	e59f2008 	ldr	r2, [pc, #8]	; b00025f8 <.text+0x25f8>
b00025ec:	e59f3008 	ldr	r3, [pc, #8]	; b00025fc <.text+0x25fc>
b00025f0:	e5832000 	str	r2, [r3]
b00025f4:	e1a0f00e 	mov	pc, lr
b00025f8:	000001d3 	ldreqd	r0, [r0], -r3
b00025fc:	7e00b004 	cdpvc	0, 0, cr11, cr0, cr4, {0}

b0002600 <enter_to_measure_x>:
b0002600:	e59f3008 	ldr	r3, [pc, #8]	; b0002610 <.text+0x2610>
b0002604:	e3a02001 	mov	r2, #1	; 0x1
b0002608:	e5832000 	str	r2, [r3]
b000260c:	e1a0f00e 	mov	pc, lr
b0002610:	7e00b004 	cdpvc	0, 0, cr11, cr0, cr4, {0}

b0002614 <start_adc>:
b0002614:	e59f200c 	ldr	r2, [pc, #12]	; b0002628 <.text+0x2628>
b0002618:	e5923000 	ldr	r3, [r2]
b000261c:	e3833001 	orr	r3, r3, #1	; 0x1
b0002620:	e5823000 	str	r3, [r2]
b0002624:	e1a0f00e 	mov	pc, lr
b0002628:	7e00b000 	cdpvc	0, 0, cr11, cr0, cr0, {0}

b000262c <enter_to_measure_y>:
b000262c:	e59f3008 	ldr	r3, [pc, #8]	; b000263c <.text+0x263c>
b0002630:	e3a02002 	mov	r2, #2	; 0x2
b0002634:	e5832000 	str	r2, [r3]
b0002638:	e1a0f00e 	mov	pc, lr
b000263c:	7e00b004 	cdpvc	0, 0, cr11, cr0, cr4, {0}

b0002640 <report_ts_xy>:
b0002640:	e59fc02c 	ldr	ip, [pc, #44]	; b0002674 <.text+0x2674>
b0002644:	e59c3000 	ldr	r3, [ip]
b0002648:	e3530000 	cmp	r3, #0	; 0x0
b000264c:	11a0f00e 	movne	pc, lr
b0002650:	e59f3020 	ldr	r3, [pc, #32]	; b0002678 <.text+0x2678>
b0002654:	e5830000 	str	r0, [r3]
b0002658:	e59f301c 	ldr	r3, [pc, #28]	; b000267c <.text+0x267c>
b000265c:	e5831000 	str	r1, [r3]
b0002660:	e59f3018 	ldr	r3, [pc, #24]	; b0002680 <.text+0x2680>
b0002664:	e5832000 	str	r2, [r3]
b0002668:	e3a03001 	mov	r3, #1	; 0x1
b000266c:	e58c3000 	str	r3, [ip]
b0002670:	e1a0f00e 	mov	pc, lr
b0002674:	b00092a4 	andlt	r9, r0, r4, lsr #5
b0002678:	b00092bc 	strlth	r9, [r0], -ip
b000267c:	b00092c0 	andlt	r9, r0, r0, asr #5
b0002680:	b00092c4 	andlt	r9, r0, r4, asr #5

b0002684 <ts_read_raw>:
b0002684:	e59fc038 	ldr	ip, [pc, #56]	; b00026c4 <.text+0x26c4>
b0002688:	e59c3000 	ldr	r3, [ip]
b000268c:	e3530000 	cmp	r3, #0	; 0x0
b0002690:	0afffffb 	beq	b0002684 <ts_read_raw>
b0002694:	e59f302c 	ldr	r3, [pc, #44]	; b00026c8 <.text+0x26c8>
b0002698:	e5933000 	ldr	r3, [r3]
b000269c:	e5803000 	str	r3, [r0]
b00026a0:	e59f3024 	ldr	r3, [pc, #36]	; b00026cc <.text+0x26cc>
b00026a4:	e5933000 	ldr	r3, [r3]
b00026a8:	e5813000 	str	r3, [r1]
b00026ac:	e59f301c 	ldr	r3, [pc, #28]	; b00026d0 <.text+0x26d0>
b00026b0:	e5933000 	ldr	r3, [r3]
b00026b4:	e5823000 	str	r3, [r2]
b00026b8:	e3a03000 	mov	r3, #0	; 0x0
b00026bc:	e58c3000 	str	r3, [ip]
b00026c0:	e1a0f00e 	mov	pc, lr
b00026c4:	b00092a4 	andlt	r9, r0, r4, lsr #5
b00026c8:	b00092bc 	strlth	r9, [r0], -ip
b00026cc:	b00092c0 	andlt	r9, r0, r0, asr #5
b00026d0:	b00092c4 	andlt	r9, r0, r4, asr #5

b00026d4 <irq_pen_down_up>:
b00026d4:	e52de004 	str	lr, [sp, #-4]!
b00026d8:	e59f304c 	ldr	r3, [pc, #76]	; b000272c <.text+0x272c>
b00026dc:	e59f004c 	ldr	r0, [pc, #76]	; b0002730 <.text+0x2730>
b00026e0:	e5933000 	ldr	r3, [r3]
b00026e4:	e3130902 	tst	r3, #32768	; 0x8000
b00026e8:	0a000006 	beq	b0002708 <irq_pen_down_up+0x34>
b00026ec:	eb000a25 	bl	b0004f88 <printf>
b00026f0:	ebffffb3 	bl	b00025c4 <wait_for_pen_down>
b00026f4:	e3a00000 	mov	r0, #0	; 0x0
b00026f8:	e1a01000 	mov	r1, r0
b00026fc:	e1a02000 	mov	r2, r0
b0002700:	ebffffce 	bl	b0002640 <report_ts_xy>
b0002704:	ea000003 	b	b0002718 <irq_pen_down_up+0x44>
b0002708:	e59f0024 	ldr	r0, [pc, #36]	; b0002734 <.text+0x2734>
b000270c:	eb000a1d 	bl	b0004f88 <printf>
b0002710:	ebffffba 	bl	b0002600 <enter_to_measure_x>
b0002714:	ebffffbe 	bl	b0002614 <start_adc>
b0002718:	e59f2018 	ldr	r2, [pc, #24]	; b0002738 <.text+0x2738>
b000271c:	e3a03000 	mov	r3, #0	; 0x0
b0002720:	e482300c 	str	r3, [r2], #12
b0002724:	e5823000 	str	r3, [r2]
b0002728:	e49df004 	ldr	pc, [sp], #4
b000272c:	7e00b00c 	cdpvc	0, 0, cr11, cr0, cr12, {0}
b0002730:	b0008ad8 	ldrltd	r8, [r0], -r8
b0002734:	b0008ae4 	andlt	r8, r0, r4, ror #21
b0002738:	7e00b014 	mcrvc	0, 0, fp, cr0, cr4, {0}

b000273c <touchscreen_timer_irq>:
b000273c:	e52de004 	str	lr, [sp, #-4]!
b0002740:	e59f2034 	ldr	r2, [pc, #52]	; b000277c <.text+0x277c>
b0002744:	e5d23000 	ldrb	r3, [r2]
b0002748:	e3530000 	cmp	r3, #0	; 0x0
b000274c:	049df004 	ldreq	pc, [sp], #4
b0002750:	e59f3028 	ldr	r3, [pc, #40]	; b0002780 <.text+0x2780>
b0002754:	e5933000 	ldr	r3, [r3]
b0002758:	e3130902 	tst	r3, #32768	; 0x8000
b000275c:	0a000003 	beq	b0002770 <touchscreen_timer_irq+0x34>
b0002760:	e3a03000 	mov	r3, #0	; 0x0
b0002764:	e5c23000 	strb	r3, [r2]
b0002768:	e49de004 	ldr	lr, [sp], #4
b000276c:	eaffff94 	b	b00025c4 <wait_for_pen_down>
b0002770:	ebffffa2 	bl	b0002600 <enter_to_measure_x>
b0002774:	e49de004 	ldr	lr, [sp], #4
b0002778:	eaffffa5 	b	b0002614 <start_adc>
b000277c:	b00092a0 	andlt	r9, r0, r0, lsr #5
b0002780:	7e00b00c 	cdpvc	0, 0, cr11, cr0, cr12, {0}

b0002784 <irq_adc>:
b0002784:	e92d4ff0 	stmdb	sp!, {r4, r5, r6, r7, r8, r9, sl, fp, lr}
b0002788:	e59f2108 	ldr	r2, [pc, #264]	; b0002898 <.text+0x2898>
b000278c:	e59f1108 	ldr	r1, [pc, #264]	; b000289c <.text+0x289c>
b0002790:	e5923000 	ldr	r3, [r2]
b0002794:	e2137902 	ands	r7, r3, #32768	; 0x8000
b0002798:	1a000039 	bne	b0002884 <irq_adc+0x100>
b000279c:	e5913000 	ldr	r3, [r1]
b00027a0:	e2033003 	and	r3, r3, #3	; 0x3
b00027a4:	e3530001 	cmp	r3, #1	; 0x1
b00027a8:	1a000008 	bne	b00027d0 <irq_adc+0x4c>
b00027ac:	e5923000 	ldr	r3, [r2]
b00027b0:	e59f20e8 	ldr	r2, [pc, #232]	; b00028a0 <.text+0x28a0>
b00027b4:	e1a03a03 	mov	r3, r3, lsl #20
b00027b8:	e1a03a23 	mov	r3, r3, lsr #20
b00027bc:	e5823000 	str	r3, [r2]
b00027c0:	e59f30dc 	ldr	r3, [pc, #220]	; b00028a4 <.text+0x28a4>
b00027c4:	e5837000 	str	r7, [r3]
b00027c8:	ebffff97 	bl	b000262c <enter_to_measure_y>
b00027cc:	ea00002a 	b	b000287c <irq_adc+0xf8>
b00027d0:	e5913000 	ldr	r3, [r1]
b00027d4:	e2033003 	and	r3, r3, #3	; 0x3
b00027d8:	e3530002 	cmp	r3, #2	; 0x2
b00027dc:	e59fb0c4 	ldr	fp, [pc, #196]	; b00028a8 <.text+0x28a8>
b00027e0:	e59f90c4 	ldr	r9, [pc, #196]	; b00028ac <.text+0x28ac>
b00027e4:	e59fa0c4 	ldr	sl, [pc, #196]	; b00028b0 <.text+0x28b0>
b00027e8:	18bd8ff0 	ldmneia	sp!, {r4, r5, r6, r7, r8, r9, sl, fp, pc}
b00027ec:	e59f30c0 	ldr	r3, [pc, #192]	; b00028b4 <.text+0x28b4>
b00027f0:	e593c000 	ldr	ip, [r3]
b00027f4:	e59f30a4 	ldr	r3, [pc, #164]	; b00028a0 <.text+0x28a0>
b00027f8:	e599e000 	ldr	lr, [r9]
b00027fc:	e5933000 	ldr	r3, [r3]
b0002800:	e59b5000 	ldr	r5, [fp]
b0002804:	e59a4000 	ldr	r4, [sl]
b0002808:	e08ee003 	add	lr, lr, r3
b000280c:	e1a0ca0c 	mov	ip, ip, lsl #20
b0002810:	e59f30a0 	ldr	r3, [pc, #160]	; b00028b8 <.text+0x28b8>
b0002814:	e1a0ca2c 	mov	ip, ip, lsr #20
b0002818:	e3a02001 	mov	r2, #1	; 0x1
b000281c:	e0855002 	add	r5, r5, r2
b0002820:	e084400c 	add	r4, r4, ip
b0002824:	e583c000 	str	ip, [r3]
b0002828:	e59f3074 	ldr	r3, [pc, #116]	; b00028a4 <.text+0x28a4>
b000282c:	e1a0824e 	mov	r8, lr, asr #4
b0002830:	e1a06244 	mov	r6, r4, asr #4
b0002834:	e3550010 	cmp	r5, #16	; 0x10
b0002838:	e5837000 	str	r7, [r3]
b000283c:	e1a00008 	mov	r0, r8
b0002840:	e1a01006 	mov	r1, r6
b0002844:	e589e000 	str	lr, [r9]
b0002848:	e58a4000 	str	r4, [sl]
b000284c:	e58b5000 	str	r5, [fp]
b0002850:	1a000008 	bne	b0002878 <irq_adc+0xf4>
b0002854:	e5898000 	str	r8, [r9]
b0002858:	e58a6000 	str	r6, [sl]
b000285c:	ebffff77 	bl	b0002640 <report_ts_xy>
b0002860:	e58b7000 	str	r7, [fp]
b0002864:	e58a7000 	str	r7, [sl]
b0002868:	e5897000 	str	r7, [r9]
b000286c:	ebffff5d 	bl	b00025e8 <wait_for_pen_up>
b0002870:	e3a02001 	mov	r2, #1	; 0x1
b0002874:	ea000004 	b	b000288c <irq_adc+0x108>
b0002878:	ebffff60 	bl	b0002600 <enter_to_measure_x>
b000287c:	e8bd4ff0 	ldmia	sp!, {r4, r5, r6, r7, r8, r9, sl, fp, lr}
b0002880:	eaffff63 	b	b0002614 <start_adc>
b0002884:	ebffff4e 	bl	b00025c4 <wait_for_pen_down>
b0002888:	e3a02000 	mov	r2, #0	; 0x0
b000288c:	e59f3028 	ldr	r3, [pc, #40]	; b00028bc <.text+0x28bc>
b0002890:	e5c32000 	strb	r2, [r3]
b0002894:	e8bd8ff0 	ldmia	sp!, {r4, r5, r6, r7, r8, r9, sl, fp, pc}
b0002898:	7e00b00c 	cdpvc	0, 0, cr11, cr0, cr12, {0}
b000289c:	7e00b004 	cdpvc	0, 0, cr11, cr0, cr4, {0}
b00028a0:	b00092b4 	strlth	r9, [r0], -r4
b00028a4:	7e00b018 	mcrvc	0, 0, fp, cr0, cr8, {0}
b00028a8:	b00092a8 	andlt	r9, r0, r8, lsr #5
b00028ac:	b00092ac 	andlt	r9, r0, ip, lsr #5
b00028b0:	b00092b0 	strlth	r9, [r0], -r0
b00028b4:	7e00b010 	mcrvc	0, 0, fp, cr0, cr0, {0}
b00028b8:	b00092b8 	strlth	r9, [r0], -r8
b00028bc:	b00092a0 	andlt	r9, r0, r0, lsr #5

b00028c0 <adc_ts_int_init>:
b00028c0:	e52de004 	str	lr, [sp, #-4]!
b00028c4:	e3a0003e 	mov	r0, #62	; 0x3e
b00028c8:	e59f1010 	ldr	r1, [pc, #16]	; b00028e0 <.text+0x28e0>
b00028cc:	ebfff979 	bl	b0000eb8 <register_irq>
b00028d0:	e59f100c 	ldr	r1, [pc, #12]	; b00028e4 <.text+0x28e4>
b00028d4:	e3a0003f 	mov	r0, #63	; 0x3f
b00028d8:	e49de004 	ldr	lr, [sp], #4
b00028dc:	eafff975 	b	b0000eb8 <register_irq>
b00028e0:	b00026d4 	ldrltd	r2, [r0], -r4
b00028e4:	b0002784 	andlt	r2, r0, r4, lsl #15

b00028e8 <adc_ts_reg_init>:
b00028e8:	e59f2020 	ldr	r2, [pc, #32]	; b0002910 <.text+0x2910>
b00028ec:	e59f3020 	ldr	r3, [pc, #32]	; b0002914 <.text+0x2914>
b00028f0:	e5823000 	str	r3, [r2]
b00028f4:	e5923000 	ldr	r3, [r2]
b00028f8:	e3c33007 	bic	r3, r3, #7	; 0x7
b00028fc:	e5823000 	str	r3, [r2]
b0002900:	e59f2010 	ldr	r2, [pc, #16]	; b0002918 <.text+0x2918>
b0002904:	e59f3010 	ldr	r3, [pc, #16]	; b000291c <.text+0x291c>
b0002908:	e5832000 	str	r2, [r3]
b000290c:	e1a0f00e 	mov	pc, lr
b0002910:	7e00b000 	cdpvc	0, 0, cr11, cr0, cr0, {0}
b0002914:	00014c40 	andeq	r4, r1, r0, asr #24
b0002918:	0000ffff 	streqd	pc, [r0], -pc
b000291c:	7e00b008 	cdpvc	0, 0, cr11, cr0, cr8, {0}

b0002920 <touchscreen_init>:
b0002920:	e52de004 	str	lr, [sp, #-4]!
b0002924:	ebffffef 	bl	b00028e8 <adc_ts_reg_init>
b0002928:	ebffffe4 	bl	b00028c0 <adc_ts_int_init>
b000292c:	e59f100c 	ldr	r1, [pc, #12]	; b0002940 <.text+0x2940>
b0002930:	e59f000c 	ldr	r0, [pc, #12]	; b0002944 <.text+0x2944>
b0002934:	ebfffa14 	bl	b000118c <register_timer>
b0002938:	e49de004 	ldr	lr, [sp], #4
b000293c:	eaffff20 	b	b00025c4 <wait_for_pen_down>
b0002940:	b000273c 	andlt	r2, r0, ip, lsr r7
b0002944:	b0008af0 	strltd	r8, [r0], -r0

b0002948 <touchscreen_test>:
b0002948:	e52de004 	str	lr, [sp, #-4]!
b000294c:	e3a00000 	mov	r0, #0	; 0x0
b0002950:	e24dd00c 	sub	sp, sp, #12	; 0xc
b0002954:	ebfffc8d 	bl	b0001b90 <clear_display>
b0002958:	ebfffff0 	bl	b0002920 <touchscreen_init>
b000295c:	e3a00046 	mov	r0, #70	; 0x46
b0002960:	e1a01000 	mov	r1, r0
b0002964:	e59f2064 	ldr	r2, [pc, #100]	; b00029d0 <.text+0x29d0>
b0002968:	e3e034ff 	mvn	r3, #-16777216	; 0xff000000
b000296c:	ebfffb61 	bl	b00016f8 <fb_printf_string>
b0002970:	eb0000a6 	bl	b0002c10 <ts_calibrate>
b0002974:	e3a00046 	mov	r0, #70	; 0x46
b0002978:	e3a010ca 	mov	r1, #202	; 0xca
b000297c:	e59f2050 	ldr	r2, [pc, #80]	; b00029d4 <.text+0x29d4>
b0002980:	e3e034ff 	mvn	r3, #-16777216	; 0xff000000
b0002984:	ebfffb5b 	bl	b00016f8 <fb_printf_string>
b0002988:	e28d1004 	add	r1, sp, #4	; 0x4
b000298c:	e1a0200d 	mov	r2, sp
b0002990:	e28d0008 	add	r0, sp, #8	; 0x8
b0002994:	eb00015b 	bl	b0002f08 <ts_read>
b0002998:	e3500000 	cmp	r0, #0	; 0x0
b000299c:	e59f0034 	ldr	r0, [pc, #52]	; b00029d8 <.text+0x29d8>
b00029a0:	1afffff8 	bne	b0002988 <touchscreen_test+0x40>
b00029a4:	e59d2004 	ldr	r2, [sp, #4]
b00029a8:	e59d1008 	ldr	r1, [sp, #8]
b00029ac:	eb000975 	bl	b0004f88 <printf>
b00029b0:	e59d3000 	ldr	r3, [sp]
b00029b4:	e3530000 	cmp	r3, #0	; 0x0
b00029b8:	e3a02cff 	mov	r2, #65280	; 0xff00
b00029bc:	0afffff1 	beq	b0002988 <touchscreen_test+0x40>
b00029c0:	e59d0008 	ldr	r0, [sp, #8]
b00029c4:	e59d1004 	ldr	r1, [sp, #4]
b00029c8:	ebfffb79 	bl	b00017b4 <put_pixel>
b00029cc:	eaffffed 	b	b0002988 <touchscreen_test+0x40>
b00029d0:	b0008afc 	strltd	r8, [r0], -ip
b00029d4:	b0008b24 	andlt	r8, r0, r4, lsr #22
b00029d8:	b0008b34 	andlt	r8, r0, r4, lsr fp

b00029dc <get_lcd_x_frm_ts_x>:
b00029dc:	e92d4030 	stmdb	sp!, {r4, r5, lr}
b00029e0:	e59f304c 	ldr	r3, [pc, #76]	; b0002a34 <.text+0x2a34>
b00029e4:	e5933000 	ldr	r3, [r3]
b00029e8:	e0630000 	rsb	r0, r3, r0
b00029ec:	eb00108b 	bl	b0006c20 <__floatsidf>
b00029f0:	e1a03001 	mov	r3, r1
b00029f4:	e1a02000 	mov	r2, r0
b00029f8:	e59f1038 	ldr	r1, [pc, #56]	; b0002a38 <.text+0x2a38>
b00029fc:	e8910003 	ldmia	r1, {r0, r1}
b0002a00:	eb0010a4 	bl	b0006c98 <__muldf3>
b0002a04:	e59f3030 	ldr	r3, [pc, #48]	; b0002a3c <.text+0x2a3c>
b0002a08:	e1a05001 	mov	r5, r1
b0002a0c:	e1a04000 	mov	r4, r0
b0002a10:	e5930000 	ldr	r0, [r3]
b0002a14:	eb001081 	bl	b0006c20 <__floatsidf>
b0002a18:	e1a03001 	mov	r3, r1
b0002a1c:	e1a02000 	mov	r2, r0
b0002a20:	e1a01005 	mov	r1, r5
b0002a24:	e1a00004 	mov	r0, r4
b0002a28:	eb000fb9 	bl	b0006914 <__adddf3>
b0002a2c:	eb0011f9 	bl	b0007218 <__fixdfsi>
b0002a30:	e8bd8030 	ldmia	sp!, {r4, r5, pc}
b0002a34:	b00092dc 	ldrltd	r9, [r0], -ip
b0002a38:	b00092cc 	andlt	r9, r0, ip, asr #5
b0002a3c:	b00092e4 	andlt	r9, r0, r4, ror #5

b0002a40 <get_lcd_y_frm_ts_y>:
b0002a40:	e92d4030 	stmdb	sp!, {r4, r5, lr}
b0002a44:	e59f304c 	ldr	r3, [pc, #76]	; b0002a98 <.text+0x2a98>
b0002a48:	e5933000 	ldr	r3, [r3]
b0002a4c:	e0630000 	rsb	r0, r3, r0
b0002a50:	eb001072 	bl	b0006c20 <__floatsidf>
b0002a54:	e1a03001 	mov	r3, r1
b0002a58:	e1a02000 	mov	r2, r0
b0002a5c:	e59f1038 	ldr	r1, [pc, #56]	; b0002a9c <.text+0x2a9c>
b0002a60:	e8910003 	ldmia	r1, {r0, r1}
b0002a64:	eb00108b 	bl	b0006c98 <__muldf3>
b0002a68:	e59f3030 	ldr	r3, [pc, #48]	; b0002aa0 <.text+0x2aa0>
b0002a6c:	e1a05001 	mov	r5, r1
b0002a70:	e1a04000 	mov	r4, r0
b0002a74:	e5930000 	ldr	r0, [r3]
b0002a78:	eb001068 	bl	b0006c20 <__floatsidf>
b0002a7c:	e1a03001 	mov	r3, r1
b0002a80:	e1a02000 	mov	r2, r0
b0002a84:	e1a01005 	mov	r1, r5
b0002a88:	e1a00004 	mov	r0, r4
b0002a8c:	eb000fa0 	bl	b0006914 <__adddf3>
b0002a90:	eb0011e0 	bl	b0007218 <__fixdfsi>
b0002a94:	e8bd8030 	ldmia	sp!, {r4, r5, pc}
b0002a98:	b00092e0 	andlt	r9, r0, r0, ror #5
b0002a9c:	b00092d4 	ldrltd	r9, [r0], -r4
b0002aa0:	b00092e8 	andlt	r9, r0, r8, ror #5

b0002aa4 <get_calibrate_point_data>:
b0002aa4:	e92d4ff0 	stmdb	sp!, {r4, r5, r6, r7, r8, r9, sl, fp, lr}
b0002aa8:	e3a08000 	mov	r8, #0	; 0x0
b0002aac:	e1a09002 	mov	r9, r2
b0002ab0:	e3e024ff 	mvn	r2, #-16777216	; 0xff000000
b0002ab4:	e1a04008 	mov	r4, r8
b0002ab8:	e1a06008 	mov	r6, r8
b0002abc:	e24dd01c 	sub	sp, sp, #28	; 0x1c
b0002ac0:	e58d3004 	str	r3, [sp, #4]
b0002ac4:	e58d000c 	str	r0, [sp, #12]
b0002ac8:	e58d1008 	str	r1, [sp, #8]
b0002acc:	ebfffc48 	bl	b0001bf4 <fb_disp_cross>
b0002ad0:	e28db018 	add	fp, sp, #24	; 0x18
b0002ad4:	e28d7014 	add	r7, sp, #20	; 0x14
b0002ad8:	e28d5010 	add	r5, sp, #16	; 0x10
b0002adc:	e1a0000b 	mov	r0, fp
b0002ae0:	e1a01007 	mov	r1, r7
b0002ae4:	e1a02005 	mov	r2, r5
b0002ae8:	ebfffee5 	bl	b0002684 <ts_read_raw>
b0002aec:	e59d3010 	ldr	r3, [sp, #16]
b0002af0:	e3530000 	cmp	r3, #0	; 0x0
b0002af4:	0afffff5 	beq	b0002ad0 <get_calibrate_point_data+0x2c>
b0002af8:	e3560004 	cmp	r6, #4	; 0x4
b0002afc:	d59d3018 	ldrle	r3, [sp, #24]
b0002b00:	d0844003 	addle	r4, r4, r3
b0002b04:	d59d3014 	ldrle	r3, [sp, #20]
b0002b08:	e1a0000b 	mov	r0, fp
b0002b0c:	e1a01007 	mov	r1, r7
b0002b10:	e1a02005 	mov	r2, r5
b0002b14:	d0888003 	addle	r8, r8, r3
b0002b18:	d2866001 	addle	r6, r6, #1	; 0x1
b0002b1c:	ebfffed8 	bl	b0002684 <ts_read_raw>
b0002b20:	e59dc010 	ldr	ip, [sp, #16]
b0002b24:	e59d1018 	ldr	r1, [sp, #24]
b0002b28:	e59d2014 	ldr	r2, [sp, #20]
b0002b2c:	e59f0098 	ldr	r0, [pc, #152]	; b0002bcc <.text+0x2bcc>
b0002b30:	e1a03006 	mov	r3, r6
b0002b34:	e58dc000 	str	ip, [sp]
b0002b38:	eb000912 	bl	b0004f88 <printf>
b0002b3c:	e59da010 	ldr	sl, [sp, #16]
b0002b40:	e35a0000 	cmp	sl, #0	; 0x0
b0002b44:	1affffeb 	bne	b0002af8 <get_calibrate_point_data+0x54>
b0002b48:	e1a00004 	mov	r0, r4
b0002b4c:	eb001033 	bl	b0006c20 <__floatsidf>
b0002b50:	e1a05001 	mov	r5, r1
b0002b54:	e1a04000 	mov	r4, r0
b0002b58:	e1a00006 	mov	r0, r6
b0002b5c:	eb00102f 	bl	b0006c20 <__floatsidf>
b0002b60:	e1a07001 	mov	r7, r1
b0002b64:	e1a06000 	mov	r6, r0
b0002b68:	e1a03007 	mov	r3, r7
b0002b6c:	e1a02006 	mov	r2, r6
b0002b70:	e1a01005 	mov	r1, r5
b0002b74:	e1a00004 	mov	r0, r4
b0002b78:	eb00110b 	bl	b0006fac <__divdf3>
b0002b7c:	eb0011a5 	bl	b0007218 <__fixdfsi>
b0002b80:	e5890000 	str	r0, [r9]
b0002b84:	e1a00008 	mov	r0, r8
b0002b88:	eb001024 	bl	b0006c20 <__floatsidf>
b0002b8c:	e1a03007 	mov	r3, r7
b0002b90:	e1a02006 	mov	r2, r6
b0002b94:	eb001104 	bl	b0006fac <__divdf3>
b0002b98:	eb00119e 	bl	b0007218 <__fixdfsi>
b0002b9c:	e59d3004 	ldr	r3, [sp, #4]
b0002ba0:	e5830000 	str	r0, [r3]
b0002ba4:	e1a02000 	mov	r2, r0
b0002ba8:	e59f0020 	ldr	r0, [pc, #32]	; b0002bd0 <.text+0x2bd0>
b0002bac:	e5991000 	ldr	r1, [r9]
b0002bb0:	eb0008f4 	bl	b0004f88 <printf>
b0002bb4:	e59d000c 	ldr	r0, [sp, #12]
b0002bb8:	e59d1008 	ldr	r1, [sp, #8]
b0002bbc:	e1a0200a 	mov	r2, sl
b0002bc0:	ebfffc0b 	bl	b0001bf4 <fb_disp_cross>
b0002bc4:	e28dd01c 	add	sp, sp, #28	; 0x1c
b0002bc8:	e8bd8ff0 	ldmia	sp!, {r4, r5, r6, r7, r8, r9, sl, fp, pc}
b0002bcc:	b0008b48 	andlt	r8, r0, r8, asr #22
b0002bd0:	b0008b80 	andlt	r8, r0, r0, lsl #23

b0002bd4 <is_ts_xy_swap>:
b0002bd4:	e0602002 	rsb	r2, r0, r2
b0002bd8:	e0613003 	rsb	r3, r1, r3
b0002bdc:	e3520000 	cmp	r2, #0	; 0x0
b0002be0:	b2622000 	rsblt	r2, r2, #0	; 0x0
b0002be4:	e3530000 	cmp	r3, #0	; 0x0
b0002be8:	b2633000 	rsblt	r3, r3, #0	; 0x0
b0002bec:	e1520003 	cmp	r2, r3
b0002bf0:	c3a00000 	movgt	r0, #0	; 0x0
b0002bf4:	d3a00001 	movle	r0, #1	; 0x1
b0002bf8:	e1a0f00e 	mov	pc, lr

b0002bfc <swap_xy>:
b0002bfc:	e5902000 	ldr	r2, [r0]
b0002c00:	e5913000 	ldr	r3, [r1]
b0002c04:	e5803000 	str	r3, [r0]
b0002c08:	e5812000 	str	r2, [r1]
b0002c0c:	e1a0f00e 	mov	pc, lr

b0002c10 <ts_calibrate>:
b0002c10:	e92d4ff0 	stmdb	sp!, {r4, r5, r6, r7, r8, r9, sl, fp, lr}
b0002c14:	e59f82ac 	ldr	r8, [pc, #684]	; b0002ec8 <.text+0x2ec8>
b0002c18:	e59fb2ac 	ldr	fp, [pc, #684]	; b0002ecc <.text+0x2ecc>
b0002c1c:	e59f02ac 	ldr	r0, [pc, #684]	; b0002ed0 <.text+0x2ed0>
b0002c20:	e1a01008 	mov	r1, r8
b0002c24:	e1a0200b 	mov	r2, fp
b0002c28:	e59f32a4 	ldr	r3, [pc, #676]	; b0002ed4 <.text+0x2ed4>
b0002c2c:	e24dd028 	sub	sp, sp, #40	; 0x28
b0002c30:	ebfffc30 	bl	b0001cf8 <get_lcd_params>
b0002c34:	e3a00032 	mov	r0, #50	; 0x32
b0002c38:	e1a01000 	mov	r1, r0
b0002c3c:	e28d2024 	add	r2, sp, #36	; 0x24
b0002c40:	e28d3020 	add	r3, sp, #32	; 0x20
b0002c44:	ebffff96 	bl	b0002aa4 <get_calibrate_point_data>
b0002c48:	e5980000 	ldr	r0, [r8]
b0002c4c:	e3a01032 	mov	r1, #50	; 0x32
b0002c50:	e2400032 	sub	r0, r0, #50	; 0x32
b0002c54:	e28d201c 	add	r2, sp, #28	; 0x1c
b0002c58:	e28d3018 	add	r3, sp, #24	; 0x18
b0002c5c:	ebffff90 	bl	b0002aa4 <get_calibrate_point_data>
b0002c60:	e5980000 	ldr	r0, [r8]
b0002c64:	e59b1000 	ldr	r1, [fp]
b0002c68:	e28da014 	add	sl, sp, #20	; 0x14
b0002c6c:	e28d9010 	add	r9, sp, #16	; 0x10
b0002c70:	e2400032 	sub	r0, r0, #50	; 0x32
b0002c74:	e2411032 	sub	r1, r1, #50	; 0x32
b0002c78:	e1a0200a 	mov	r2, sl
b0002c7c:	e1a03009 	mov	r3, r9
b0002c80:	ebffff87 	bl	b0002aa4 <get_calibrate_point_data>
b0002c84:	e59b1000 	ldr	r1, [fp]
b0002c88:	e28d600c 	add	r6, sp, #12	; 0xc
b0002c8c:	e28d7008 	add	r7, sp, #8	; 0x8
b0002c90:	e2411032 	sub	r1, r1, #50	; 0x32
b0002c94:	e3a00032 	mov	r0, #50	; 0x32
b0002c98:	e1a02006 	mov	r2, r6
b0002c9c:	e1a03007 	mov	r3, r7
b0002ca0:	ebffff7f 	bl	b0002aa4 <get_calibrate_point_data>
b0002ca4:	e5980000 	ldr	r0, [r8]
b0002ca8:	e59b1000 	ldr	r1, [fp]
b0002cac:	e0800fa0 	add	r0, r0, r0, lsr #31
b0002cb0:	e0811fa1 	add	r1, r1, r1, lsr #31
b0002cb4:	e28d4004 	add	r4, sp, #4	; 0x4
b0002cb8:	e1a000c0 	mov	r0, r0, asr #1
b0002cbc:	e1a010c1 	mov	r1, r1, asr #1
b0002cc0:	e1a02004 	mov	r2, r4
b0002cc4:	e1a0300d 	mov	r3, sp
b0002cc8:	ebffff75 	bl	b0002aa4 <get_calibrate_point_data>
b0002ccc:	e59d3018 	ldr	r3, [sp, #24]
b0002cd0:	e59d0024 	ldr	r0, [sp, #36]
b0002cd4:	e59d1020 	ldr	r1, [sp, #32]
b0002cd8:	e59d201c 	ldr	r2, [sp, #28]
b0002cdc:	ebffffbc 	bl	b0002bd4 <is_ts_xy_swap>
b0002ce0:	e59f31f0 	ldr	r3, [pc, #496]	; b0002ed8 <.text+0x2ed8>
b0002ce4:	e3500000 	cmp	r0, #0	; 0x0
b0002ce8:	e5830000 	str	r0, [r3]
b0002cec:	0a00000e 	beq	b0002d2c <ts_calibrate+0x11c>
b0002cf0:	e28d0024 	add	r0, sp, #36	; 0x24
b0002cf4:	e28d1020 	add	r1, sp, #32	; 0x20
b0002cf8:	ebffffbf 	bl	b0002bfc <swap_xy>
b0002cfc:	e28d001c 	add	r0, sp, #28	; 0x1c
b0002d00:	e28d1018 	add	r1, sp, #24	; 0x18
b0002d04:	ebffffbc 	bl	b0002bfc <swap_xy>
b0002d08:	e1a0000a 	mov	r0, sl
b0002d0c:	e1a01009 	mov	r1, r9
b0002d10:	ebffffb9 	bl	b0002bfc <swap_xy>
b0002d14:	e1a00006 	mov	r0, r6
b0002d18:	e1a01007 	mov	r1, r7
b0002d1c:	ebffffb6 	bl	b0002bfc <swap_xy>
b0002d20:	e1a00004 	mov	r0, r4
b0002d24:	e1a0100d 	mov	r1, sp
b0002d28:	ebffffb3 	bl	b0002bfc <swap_xy>
b0002d2c:	e59d300c 	ldr	r3, [sp, #12]
b0002d30:	e59d7014 	ldr	r7, [sp, #20]
b0002d34:	e59d9010 	ldr	r9, [sp, #16]
b0002d38:	e0637007 	rsb	r7, r3, r7
b0002d3c:	e28d3018 	add	r3, sp, #24	; 0x18
b0002d40:	e8930018 	ldmia	r3, {r3, r4}
b0002d44:	e5988000 	ldr	r8, [r8]
b0002d48:	e0639009 	rsb	r9, r3, r9
b0002d4c:	e59d3024 	ldr	r3, [sp, #36]
b0002d50:	e59da008 	ldr	sl, [sp, #8]
b0002d54:	e0634004 	rsb	r4, r3, r4
b0002d58:	e2480064 	sub	r0, r8, #100	; 0x64
b0002d5c:	e59d3020 	ldr	r3, [sp, #32]
b0002d60:	e1a00080 	mov	r0, r0, lsl #1
b0002d64:	e063a00a 	rsb	sl, r3, sl
b0002d68:	eb000fac 	bl	b0006c20 <__floatsidf>
b0002d6c:	e1a06001 	mov	r6, r1
b0002d70:	e1a05000 	mov	r5, r0
b0002d74:	e0840007 	add	r0, r4, r7
b0002d78:	eb000fa8 	bl	b0006c20 <__floatsidf>
b0002d7c:	e1a03001 	mov	r3, r1
b0002d80:	e1a02000 	mov	r2, r0
b0002d84:	e1a01006 	mov	r1, r6
b0002d88:	e1a00005 	mov	r0, r5
b0002d8c:	eb001086 	bl	b0006fac <__divdf3>
b0002d90:	e59b6000 	ldr	r6, [fp]
b0002d94:	e59f3140 	ldr	r3, [pc, #320]	; b0002edc <.text+0x2edc>
b0002d98:	e2462064 	sub	r2, r6, #100	; 0x64
b0002d9c:	e8830003 	stmia	r3, {r0, r1}
b0002da0:	e1a00082 	mov	r0, r2, lsl #1
b0002da4:	eb000f9d 	bl	b0006c20 <__floatsidf>
b0002da8:	e1a05001 	mov	r5, r1
b0002dac:	e1a04000 	mov	r4, r0
b0002db0:	e08a0009 	add	r0, sl, r9
b0002db4:	eb000f99 	bl	b0006c20 <__floatsidf>
b0002db8:	e1a03001 	mov	r3, r1
b0002dbc:	e1a02000 	mov	r2, r0
b0002dc0:	e1a01005 	mov	r1, r5
b0002dc4:	e1a00004 	mov	r0, r4
b0002dc8:	eb001077 	bl	b0006fac <__divdf3>
b0002dcc:	e59f310c 	ldr	r3, [pc, #268]	; b0002ee0 <.text+0x2ee0>
b0002dd0:	e59d2004 	ldr	r2, [sp, #4]
b0002dd4:	e8830003 	stmia	r3, {r0, r1}
b0002dd8:	e59f3104 	ldr	r3, [pc, #260]	; b0002ee4 <.text+0x2ee4>
b0002ddc:	e59d0024 	ldr	r0, [sp, #36]
b0002de0:	e0888fa8 	add	r8, r8, r8, lsr #31
b0002de4:	e1a080c8 	mov	r8, r8, asr #1
b0002de8:	e5832000 	str	r2, [r3]
b0002dec:	e59d2000 	ldr	r2, [sp]
b0002df0:	e59f30f0 	ldr	r3, [pc, #240]	; b0002ee8 <.text+0x2ee8>
b0002df4:	e5832000 	str	r2, [r3]
b0002df8:	e59f30ec 	ldr	r3, [pc, #236]	; b0002eec <.text+0x2eec>
b0002dfc:	e0866fa6 	add	r6, r6, r6, lsr #31
b0002e00:	e1a060c6 	mov	r6, r6, asr #1
b0002e04:	e5838000 	str	r8, [r3]
b0002e08:	e59f30e0 	ldr	r3, [pc, #224]	; b0002ef0 <.text+0x2ef0>
b0002e0c:	e5836000 	str	r6, [r3]
b0002e10:	ebfffef1 	bl	b00029dc <get_lcd_x_frm_ts_x>
b0002e14:	e1a04000 	mov	r4, r0
b0002e18:	e59d0020 	ldr	r0, [sp, #32]
b0002e1c:	ebffff07 	bl	b0002a40 <get_lcd_y_frm_ts_y>
b0002e20:	e1a01004 	mov	r1, r4
b0002e24:	e1a02000 	mov	r2, r0
b0002e28:	e59f00c4 	ldr	r0, [pc, #196]	; b0002ef4 <.text+0x2ef4>
b0002e2c:	eb000855 	bl	b0004f88 <printf>
b0002e30:	e59d001c 	ldr	r0, [sp, #28]
b0002e34:	ebfffee8 	bl	b00029dc <get_lcd_x_frm_ts_x>
b0002e38:	e1a04000 	mov	r4, r0
b0002e3c:	e59d0018 	ldr	r0, [sp, #24]
b0002e40:	ebfffefe 	bl	b0002a40 <get_lcd_y_frm_ts_y>
b0002e44:	e1a01004 	mov	r1, r4
b0002e48:	e1a02000 	mov	r2, r0
b0002e4c:	e59f00a4 	ldr	r0, [pc, #164]	; b0002ef8 <.text+0x2ef8>
b0002e50:	eb00084c 	bl	b0004f88 <printf>
b0002e54:	e59d0014 	ldr	r0, [sp, #20]
b0002e58:	ebfffedf 	bl	b00029dc <get_lcd_x_frm_ts_x>
b0002e5c:	e1a04000 	mov	r4, r0
b0002e60:	e59d0010 	ldr	r0, [sp, #16]
b0002e64:	ebfffef5 	bl	b0002a40 <get_lcd_y_frm_ts_y>
b0002e68:	e1a01004 	mov	r1, r4
b0002e6c:	e1a02000 	mov	r2, r0
b0002e70:	e59f0084 	ldr	r0, [pc, #132]	; b0002efc <.text+0x2efc>
b0002e74:	eb000843 	bl	b0004f88 <printf>
b0002e78:	e59d000c 	ldr	r0, [sp, #12]
b0002e7c:	ebfffed6 	bl	b00029dc <get_lcd_x_frm_ts_x>
b0002e80:	e1a04000 	mov	r4, r0
b0002e84:	e59d0008 	ldr	r0, [sp, #8]
b0002e88:	ebfffeec 	bl	b0002a40 <get_lcd_y_frm_ts_y>
b0002e8c:	e1a01004 	mov	r1, r4
b0002e90:	e1a02000 	mov	r2, r0
b0002e94:	e59f0064 	ldr	r0, [pc, #100]	; b0002f00 <.text+0x2f00>
b0002e98:	eb00083a 	bl	b0004f88 <printf>
b0002e9c:	e59d0004 	ldr	r0, [sp, #4]
b0002ea0:	ebfffecd 	bl	b00029dc <get_lcd_x_frm_ts_x>
b0002ea4:	e1a04000 	mov	r4, r0
b0002ea8:	e59d0000 	ldr	r0, [sp]
b0002eac:	ebfffee3 	bl	b0002a40 <get_lcd_y_frm_ts_y>
b0002eb0:	e1a01004 	mov	r1, r4
b0002eb4:	e1a02000 	mov	r2, r0
b0002eb8:	e59f0044 	ldr	r0, [pc, #68]	; b0002f04 <.text+0x2f04>
b0002ebc:	eb000831 	bl	b0004f88 <printf>
b0002ec0:	e28dd028 	add	sp, sp, #40	; 0x28
b0002ec4:	e8bd8ff0 	ldmia	sp!, {r4, r5, r6, r7, r8, r9, sl, fp, pc}
b0002ec8:	b00092f0 	strltd	r9, [r0], -r0
b0002ecc:	b00092f4 	strltd	r9, [r0], -r4
b0002ed0:	b00092ec 	andlt	r9, r0, ip, ror #5
b0002ed4:	b00092f8 	strltd	r9, [r0], -r8
b0002ed8:	b00092c8 	andlt	r9, r0, r8, asr #5
b0002edc:	b00092cc 	andlt	r9, r0, ip, asr #5
b0002ee0:	b00092d4 	ldrltd	r9, [r0], -r4
b0002ee4:	b00092dc 	ldrltd	r9, [r0], -ip
b0002ee8:	b00092e0 	andlt	r9, r0, r0, ror #5
b0002eec:	b00092e4 	andlt	r9, r0, r4, ror #5
b0002ef0:	b00092e8 	andlt	r9, r0, r8, ror #5
b0002ef4:	b0008ba8 	andlt	r8, r0, r8, lsr #23
b0002ef8:	b0008bc8 	andlt	r8, r0, r8, asr #23
b0002efc:	b0008be8 	andlt	r8, r0, r8, ror #23
b0002f00:	b0008c08 	andlt	r8, r0, r8, lsl #24
b0002f04:	b0008c28 	andlt	r8, r0, r8, lsr #24

b0002f08 <ts_read>:
b0002f08:	e92d45f0 	stmdb	sp!, {r4, r5, r6, r7, r8, sl, lr}
b0002f0c:	e1a07000 	mov	r7, r0
b0002f10:	e1a08001 	mov	r8, r1
b0002f14:	e1a0a002 	mov	sl, r2
b0002f18:	e24dd00c 	sub	sp, sp, #12	; 0xc
b0002f1c:	e28d4008 	add	r4, sp, #8	; 0x8
b0002f20:	e28d5004 	add	r5, sp, #4	; 0x4
b0002f24:	e1a00004 	mov	r0, r4
b0002f28:	e1a01005 	mov	r1, r5
b0002f2c:	e1a0200d 	mov	r2, sp
b0002f30:	ebfffdd3 	bl	b0002684 <ts_read_raw>
b0002f34:	e59f3110 	ldr	r3, [pc, #272]	; b000304c <.text+0x304c>
b0002f38:	e5933000 	ldr	r3, [r3]
b0002f3c:	e3530000 	cmp	r3, #0	; 0x0
b0002f40:	e1a00004 	mov	r0, r4
b0002f44:	e1a01005 	mov	r1, r5
b0002f48:	1bffff2b 	blne	b0002bfc <swap_xy>
b0002f4c:	e59f30fc 	ldr	r3, [pc, #252]	; b0003050 <.text+0x3050>
b0002f50:	e59d0008 	ldr	r0, [sp, #8]
b0002f54:	e5933000 	ldr	r3, [r3]
b0002f58:	e0630000 	rsb	r0, r3, r0
b0002f5c:	eb000f2f 	bl	b0006c20 <__floatsidf>
b0002f60:	e1a03001 	mov	r3, r1
b0002f64:	e1a02000 	mov	r2, r0
b0002f68:	e59f10e4 	ldr	r1, [pc, #228]	; b0003054 <.text+0x3054>
b0002f6c:	e8910003 	ldmia	r1, {r0, r1}
b0002f70:	eb000f48 	bl	b0006c98 <__muldf3>
b0002f74:	e59f30dc 	ldr	r3, [pc, #220]	; b0003058 <.text+0x3058>
b0002f78:	e1a05001 	mov	r5, r1
b0002f7c:	e1a04000 	mov	r4, r0
b0002f80:	e5930000 	ldr	r0, [r3]
b0002f84:	eb000f25 	bl	b0006c20 <__floatsidf>
b0002f88:	e1a03001 	mov	r3, r1
b0002f8c:	e1a02000 	mov	r2, r0
b0002f90:	e1a01005 	mov	r1, r5
b0002f94:	e1a00004 	mov	r0, r4
b0002f98:	eb000e5d 	bl	b0006914 <__adddf3>
b0002f9c:	eb00109d 	bl	b0007218 <__fixdfsi>
b0002fa0:	e59f30b4 	ldr	r3, [pc, #180]	; b000305c <.text+0x305c>
b0002fa4:	e1a06000 	mov	r6, r0
b0002fa8:	e5933000 	ldr	r3, [r3]
b0002fac:	e59d0004 	ldr	r0, [sp, #4]
b0002fb0:	e0630000 	rsb	r0, r3, r0
b0002fb4:	eb000f19 	bl	b0006c20 <__floatsidf>
b0002fb8:	e1a03001 	mov	r3, r1
b0002fbc:	e1a02000 	mov	r2, r0
b0002fc0:	e59f1098 	ldr	r1, [pc, #152]	; b0003060 <.text+0x3060>
b0002fc4:	e8910003 	ldmia	r1, {r0, r1}
b0002fc8:	eb000f32 	bl	b0006c98 <__muldf3>
b0002fcc:	e59f3090 	ldr	r3, [pc, #144]	; b0003064 <.text+0x3064>
b0002fd0:	e1a05001 	mov	r5, r1
b0002fd4:	e1a04000 	mov	r4, r0
b0002fd8:	e5930000 	ldr	r0, [r3]
b0002fdc:	eb000f0f 	bl	b0006c20 <__floatsidf>
b0002fe0:	e1a03001 	mov	r3, r1
b0002fe4:	e1a02000 	mov	r2, r0
b0002fe8:	e1a01005 	mov	r1, r5
b0002fec:	e1a00004 	mov	r0, r4
b0002ff0:	eb000e47 	bl	b0006914 <__adddf3>
b0002ff4:	eb001087 	bl	b0007218 <__fixdfsi>
b0002ff8:	e3560000 	cmp	r6, #0	; 0x0
b0002ffc:	e1a02fa0 	mov	r2, r0, lsr #31
b0003000:	e3e01000 	mvn	r1, #0	; 0x0
b0003004:	ba00000d 	blt	b0003040 <ts_read+0x138>
b0003008:	e59f3058 	ldr	r3, [pc, #88]	; b0003068 <.text+0x3068>
b000300c:	e5933000 	ldr	r3, [r3]
b0003010:	e1560003 	cmp	r6, r3
b0003014:	a3822001 	orrge	r2, r2, #1	; 0x1
b0003018:	e3520000 	cmp	r2, #0	; 0x0
b000301c:	1a000007 	bne	b0003040 <ts_read+0x138>
b0003020:	e59f3044 	ldr	r3, [pc, #68]	; b000306c <.text+0x306c>
b0003024:	e5933000 	ldr	r3, [r3]
b0003028:	e1500003 	cmp	r0, r3
b000302c:	b59d3000 	ldrlt	r3, [sp]
b0003030:	b5876000 	strlt	r6, [r7]
b0003034:	b1a01002 	movlt	r1, r2
b0003038:	b5880000 	strlt	r0, [r8]
b000303c:	b58a3000 	strlt	r3, [sl]
b0003040:	e1a00001 	mov	r0, r1
b0003044:	e28dd00c 	add	sp, sp, #12	; 0xc
b0003048:	e8bd85f0 	ldmia	sp!, {r4, r5, r6, r7, r8, sl, pc}
b000304c:	b00092c8 	andlt	r9, r0, r8, asr #5
b0003050:	b00092dc 	ldrltd	r9, [r0], -ip
b0003054:	b00092cc 	andlt	r9, r0, ip, asr #5
b0003058:	b00092e4 	andlt	r9, r0, r4, ror #5
b000305c:	b00092e0 	andlt	r9, r0, r0, ror #5
b0003060:	b00092d4 	ldrltd	r9, [r0], -r4
b0003064:	b00092e8 	andlt	r9, r0, r8, ror #5
b0003068:	b00092f0 	strltd	r9, [r0], -r0
b000306c:	b00092f4 	strltd	r9, [r0], -r4

b0003070 <at24cxx_write>:
b0003070:	e92d40f0 	stmdb	sp!, {r4, r5, r6, r7, lr}
b0003074:	e3a05000 	mov	r5, #0	; 0x0
b0003078:	e1a06002 	mov	r6, r2
b000307c:	e1550002 	cmp	r5, r2
b0003080:	e1a04000 	mov	r4, r0
b0003084:	e1a07001 	mov	r7, r1
b0003088:	e24dd01c 	sub	sp, sp, #28	; 0x1c
b000308c:	aa000018 	bge	b00030f4 <at24cxx_write+0x84>
b0003090:	e3a03050 	mov	r3, #80	; 0x50
b0003094:	e7d72005 	ldrb	r2, [r7, r5]
b0003098:	e58d300c 	str	r3, [sp, #12]
b000309c:	e243304e 	sub	r3, r3, #78	; 0x4e
b00030a0:	e3a0c000 	mov	ip, #0	; 0x0
b00030a4:	e3a01001 	mov	r1, #1	; 0x1
b00030a8:	e28d0004 	add	r0, sp, #4	; 0x4
b00030ac:	e58d3014 	str	r3, [sp, #20]
b00030b0:	e3e03000 	mvn	r3, #0	; 0x0
b00030b4:	e0855001 	add	r5, r5, r1
b00030b8:	e5cd4000 	strb	r4, [sp]
b00030bc:	e0844001 	add	r4, r4, r1
b00030c0:	e58d3004 	str	r3, [sp, #4]
b00030c4:	e5cd2001 	strb	r2, [sp, #1]
b00030c8:	e58dd018 	str	sp, [sp, #24]
b00030cc:	e58dc008 	str	ip, [sp, #8]
b00030d0:	e58dc010 	str	ip, [sp, #16]
b00030d4:	eb000045 	bl	b00031f0 <i2c_transfer>
b00030d8:	e2503000 	subs	r3, r0, #0	; 0x0
b00030dc:	e59f001c 	ldr	r0, [pc, #28]	; b0003100 <.text+0x3100>
b00030e0:	11a00003 	movne	r0, r3
b00030e4:	1a000003 	bne	b00030f8 <at24cxx_write+0x88>
b00030e8:	eb00079c 	bl	b0004f60 <delay>
b00030ec:	e1550006 	cmp	r5, r6
b00030f0:	eaffffe5 	b	b000308c <at24cxx_write+0x1c>
b00030f4:	e3a00000 	mov	r0, #0	; 0x0
b00030f8:	e28dd01c 	add	sp, sp, #28	; 0x1c
b00030fc:	e8bd80f0 	ldmia	sp!, {r4, r5, r6, r7, pc}
b0003100:	00002710 	andeq	r2, r0, r0, lsl r7

b0003104 <at24cxx_read>:
b0003104:	e92d4030 	stmdb	sp!, {r4, r5, lr}
b0003108:	e3a0c000 	mov	ip, #0	; 0x0
b000310c:	e3a0e050 	mov	lr, #80	; 0x50
b0003110:	e3a04001 	mov	r4, #1	; 0x1
b0003114:	e3e05000 	mvn	r5, #0	; 0x0
b0003118:	e24dd034 	sub	sp, sp, #52	; 0x34
b000311c:	e5cd0033 	strb	r0, [sp, #51]
b0003120:	e28d3033 	add	r3, sp, #51	; 0x33
b0003124:	e1a0000d 	mov	r0, sp
b0003128:	e58d102c 	str	r1, [sp, #44]
b000312c:	e3a01002 	mov	r1, #2	; 0x2
b0003130:	e58d3014 	str	r3, [sp, #20]
b0003134:	e58de020 	str	lr, [sp, #32]
b0003138:	e58d2028 	str	r2, [sp, #40]
b000313c:	e58d4024 	str	r4, [sp, #36]
b0003140:	e58dc01c 	str	ip, [sp, #28]
b0003144:	e58d5018 	str	r5, [sp, #24]
b0003148:	e58de008 	str	lr, [sp, #8]
b000314c:	e58d4010 	str	r4, [sp, #16]
b0003150:	e58dc00c 	str	ip, [sp, #12]
b0003154:	e88d1020 	stmia	sp, {r5, ip}
b0003158:	eb000024 	bl	b00031f0 <i2c_transfer>
b000315c:	e28dd034 	add	sp, sp, #52	; 0x34
b0003160:	e8bd8030 	ldmia	sp!, {r4, r5, pc}

b0003164 <register_i2c_controller>:
b0003164:	e3a02000 	mov	r2, #0	; 0x0
b0003168:	e59f1020 	ldr	r1, [pc, #32]	; b0003190 <.text+0x3190>
b000316c:	e7913102 	ldr	r3, [r1, r2, lsl #2]
b0003170:	e3530000 	cmp	r3, #0	; 0x0
b0003174:	1a000001 	bne	b0003180 <register_i2c_controller+0x1c>
b0003178:	e7810102 	str	r0, [r1, r2, lsl #2]
b000317c:	e1a0f00e 	mov	pc, lr
b0003180:	e2822001 	add	r2, r2, #1	; 0x1
b0003184:	e3520009 	cmp	r2, #9	; 0x9
b0003188:	dafffff6 	ble	b0003168 <register_i2c_controller+0x4>
b000318c:	e1a0f00e 	mov	pc, lr
b0003190:	b00092fc 	strltd	r9, [r0], -ip

b0003194 <select_i2c_controller>:
b0003194:	e92d4070 	stmdb	sp!, {r4, r5, r6, lr}
b0003198:	e1a06000 	mov	r6, r0
b000319c:	e3a04000 	mov	r4, #0	; 0x0
b00031a0:	e59f5040 	ldr	r5, [pc, #64]	; b00031e8 <.text+0x31e8>
b00031a4:	e7953104 	ldr	r3, [r5, r4, lsl #2]
b00031a8:	e5933008 	ldr	r3, [r3, #8]
b00031ac:	e2530000 	subs	r0, r3, #0	; 0x0
b00031b0:	e1a01006 	mov	r1, r6
b00031b4:	0a000006 	beq	b00031d4 <select_i2c_controller+0x40>
b00031b8:	eb00081a 	bl	b0005228 <strcmp>
b00031bc:	e3500000 	cmp	r0, #0	; 0x0
b00031c0:	1a000003 	bne	b00031d4 <select_i2c_controller+0x40>
b00031c4:	e7952104 	ldr	r2, [r5, r4, lsl #2]
b00031c8:	e59f301c 	ldr	r3, [pc, #28]	; b00031ec <.text+0x31ec>
b00031cc:	e5832000 	str	r2, [r3]
b00031d0:	e8bd8070 	ldmia	sp!, {r4, r5, r6, pc}
b00031d4:	e2844001 	add	r4, r4, #1	; 0x1
b00031d8:	e3540009 	cmp	r4, #9	; 0x9
b00031dc:	daffffef 	ble	b00031a0 <select_i2c_controller+0xc>
b00031e0:	e3e00000 	mvn	r0, #0	; 0x0
b00031e4:	e8bd8070 	ldmia	sp!, {r4, r5, r6, pc}
b00031e8:	b00092fc 	strltd	r9, [r0], -ip
b00031ec:	b0009324 	andlt	r9, r0, r4, lsr #6

b00031f0 <i2c_transfer>:
b00031f0:	e52de004 	str	lr, [sp, #-4]!
b00031f4:	e59f300c 	ldr	r3, [pc, #12]	; b0003208 <.text+0x3208>
b00031f8:	e5933000 	ldr	r3, [r3]
b00031fc:	e1a0e00f 	mov	lr, pc
b0003200:	e593f004 	ldr	pc, [r3, #4]
b0003204:	e49df004 	ldr	pc, [sp], #4
b0003208:	b0009324 	andlt	r9, r0, r4, lsr #6

b000320c <i2c_init>:
b000320c:	e52de004 	str	lr, [sp, #-4]!
b0003210:	eb000149 	bl	b000373c <s3c6410_i2c_con_add>
b0003214:	e59f0014 	ldr	r0, [pc, #20]	; b0003230 <.text+0x3230>
b0003218:	ebffffdd 	bl	b0003194 <select_i2c_controller>
b000321c:	e59f3010 	ldr	r3, [pc, #16]	; b0003234 <.text+0x3234>
b0003220:	e5933000 	ldr	r3, [r3]
b0003224:	e1a0e00f 	mov	lr, pc
b0003228:	e593f000 	ldr	pc, [r3]
b000322c:	e49df004 	ldr	pc, [sp], #4
b0003230:	b000896c 	andlt	r8, r0, ip, ror #18
b0003234:	b0009324 	andlt	r9, r0, r4, lsr #6

b0003238 <do_read_AT24CXX>:
b0003238:	e92d4070 	stmdb	sp!, {r4, r5, r6, lr}
b000323c:	e59f00c4 	ldr	r0, [pc, #196]	; b0003308 <.text+0x3308>
b0003240:	e24dd064 	sub	sp, sp, #100	; 0x64
b0003244:	eb00074f 	bl	b0004f88 <printf>
b0003248:	eb00079d 	bl	b00050c4 <get_uint>
b000324c:	e3500b01 	cmp	r0, #1024	; 0x400
b0003250:	9a000002 	bls	b0003260 <do_read_AT24CXX+0x28>
b0003254:	e59f00b0 	ldr	r0, [pc, #176]	; b000330c <.text+0x330c>
b0003258:	eb00074a 	bl	b0004f88 <printf>
b000325c:	ea000027 	b	b0003300 <do_read_AT24CXX+0xc8>
b0003260:	e3a02040 	mov	r2, #64	; 0x40
b0003264:	e1a0100d 	mov	r1, sp
b0003268:	ebffffa5 	bl	b0003104 <at24cxx_read>
b000326c:	e1a01000 	mov	r1, r0
b0003270:	e59f0098 	ldr	r0, [pc, #152]	; b0003310 <.text+0x3310>
b0003274:	eb000743 	bl	b0004f88 <printf>
b0003278:	e59f0094 	ldr	r0, [pc, #148]	; b0003314 <.text+0x3314>
b000327c:	eb000741 	bl	b0004f88 <printf>
b0003280:	e3a05000 	mov	r5, #0	; 0x0
b0003284:	e3a04000 	mov	r4, #0	; 0x0
b0003288:	e28d2064 	add	r2, sp, #100	; 0x64
b000328c:	e1a06205 	mov	r6, r5, lsl #4
b0003290:	e0863002 	add	r3, r6, r2
b0003294:	e0833004 	add	r3, r3, r4
b0003298:	e5531064 	ldrb	r1, [r3, #-100]
b000329c:	e2844001 	add	r4, r4, #1	; 0x1
b00032a0:	e59f0070 	ldr	r0, [pc, #112]	; b0003318 <.text+0x3318>
b00032a4:	eb000737 	bl	b0004f88 <printf>
b00032a8:	e354000f 	cmp	r4, #15	; 0xf
b00032ac:	dafffff5 	ble	b0003288 <do_read_AT24CXX+0x50>
b00032b0:	e59f0064 	ldr	r0, [pc, #100]	; b000331c <.text+0x331c>
b00032b4:	eb000733 	bl	b0004f88 <printf>
b00032b8:	e3a04000 	mov	r4, #0	; 0x0
b00032bc:	e28d2064 	add	r2, sp, #100	; 0x64
b00032c0:	e0863002 	add	r3, r6, r2
b00032c4:	e0833004 	add	r3, r3, r4
b00032c8:	e5532064 	ldrb	r2, [r3, #-100]
b00032cc:	e2423020 	sub	r3, r2, #32	; 0x20
b00032d0:	e353005e 	cmp	r3, #94	; 0x5e
b00032d4:	e3a0002e 	mov	r0, #46	; 0x2e
b00032d8:	e2844001 	add	r4, r4, #1	; 0x1
b00032dc:	91a00002 	movls	r0, r2
b00032e0:	ebfff760 	bl	b0001068 <putc>
b00032e4:	e354000f 	cmp	r4, #15	; 0xf
b00032e8:	dafffff3 	ble	b00032bc <do_read_AT24CXX+0x84>
b00032ec:	e2855001 	add	r5, r5, #1	; 0x1
b00032f0:	e59f0028 	ldr	r0, [pc, #40]	; b0003320 <.text+0x3320>
b00032f4:	eb000723 	bl	b0004f88 <printf>
b00032f8:	e3550003 	cmp	r5, #3	; 0x3
b00032fc:	daffffe0 	ble	b0003284 <do_read_AT24CXX+0x4c>
b0003300:	e28dd064 	add	sp, sp, #100	; 0x64
b0003304:	e8bd8070 	ldmia	sp!, {r4, r5, r6, pc}
b0003308:	b0000c2c 	andlt	r0, r0, ip, lsr #24
b000330c:	b0008c48 	andlt	r8, r0, r8, asr #24
b0003310:	b0008c6c 	andlt	r8, r0, ip, ror #24
b0003314:	b0000c48 	andlt	r0, r0, r8, asr #24
b0003318:	b0000c54 	andlt	r0, r0, r4, asr ip
b000331c:	b0000c5c 	andlt	r0, r0, ip, asr ip
b0003320:	b0008ca0 	andlt	r8, r0, r0, lsr #25

b0003324 <do_write_AT24CXX>:
b0003324:	e92d4030 	stmdb	sp!, {r4, r5, lr}
b0003328:	e59f0068 	ldr	r0, [pc, #104]	; b0003398 <.text+0x3398>
b000332c:	e24dd064 	sub	sp, sp, #100	; 0x64
b0003330:	eb000714 	bl	b0004f88 <printf>
b0003334:	eb000762 	bl	b00050c4 <get_uint>
b0003338:	e1a05000 	mov	r5, r0
b000333c:	e3550b01 	cmp	r5, #1024	; 0x400
b0003340:	e1a0400d 	mov	r4, sp
b0003344:	e59f0050 	ldr	r0, [pc, #80]	; b000339c <.text+0x339c>
b0003348:	9a000002 	bls	b0003358 <do_write_AT24CXX+0x34>
b000334c:	e59f004c 	ldr	r0, [pc, #76]	; b00033a0 <.text+0x33a0>
b0003350:	eb00070c 	bl	b0004f88 <printf>
b0003354:	ea00000d 	b	b0003390 <do_write_AT24CXX+0x6c>
b0003358:	eb00070a 	bl	b0004f88 <printf>
b000335c:	e1a0000d 	mov	r0, sp
b0003360:	eb000735 	bl	b000503c <gets>
b0003364:	e59f0038 	ldr	r0, [pc, #56]	; b00033a4 <.text+0x33a4>
b0003368:	eb000706 	bl	b0004f88 <printf>
b000336c:	e1a0000d 	mov	r0, sp
b0003370:	eb0007d6 	bl	b00052d0 <strlen>
b0003374:	e1a0100d 	mov	r1, sp
b0003378:	e2802001 	add	r2, r0, #1	; 0x1
b000337c:	e1a00005 	mov	r0, r5
b0003380:	ebffff3a 	bl	b0003070 <at24cxx_write>
b0003384:	e1a01000 	mov	r1, r0
b0003388:	e59f0018 	ldr	r0, [pc, #24]	; b00033a8 <.text+0x33a8>
b000338c:	eb0006fd 	bl	b0004f88 <printf>
b0003390:	e28dd064 	add	sp, sp, #100	; 0x64
b0003394:	e8bd8030 	ldmia	sp!, {r4, r5, pc}
b0003398:	b0000cf4 	strltd	r0, [r0], -r4
b000339c:	b0000d1c 	andlt	r0, r0, ip, lsl sp
b00033a0:	b0008c48 	andlt	r8, r0, r8, asr #24
b00033a4:	b0000d38 	andlt	r0, r0, r8, lsr sp
b00033a8:	b0008c88 	andlt	r8, r0, r8, lsl #25

b00033ac <i2c_test>:
b00033ac:	e92d4010 	stmdb	sp!, {r4, lr}
b00033b0:	ebffff95 	bl	b000320c <i2c_init>
b00033b4:	e59f007c 	ldr	r0, [pc, #124]	; b0003438 <.text+0x3438>
b00033b8:	eb0006f2 	bl	b0004f88 <printf>
b00033bc:	e59f0078 	ldr	r0, [pc, #120]	; b000343c <.text+0x343c>
b00033c0:	eb0006f0 	bl	b0004f88 <printf>
b00033c4:	e59f0074 	ldr	r0, [pc, #116]	; b0003440 <.text+0x3440>
b00033c8:	eb0006ee 	bl	b0004f88 <printf>
b00033cc:	e59f0070 	ldr	r0, [pc, #112]	; b0003444 <.text+0x3444>
b00033d0:	eb0006ec 	bl	b0004f88 <printf>
b00033d4:	ebfff72d 	bl	b0001090 <getc>
b00033d8:	e20040ff 	and	r4, r0, #255	; 0xff
b00033dc:	e1a01004 	mov	r1, r4
b00033e0:	e59f0060 	ldr	r0, [pc, #96]	; b0003448 <.text+0x3448>
b00033e4:	eb0006e7 	bl	b0004f88 <printf>
b00033e8:	e3540057 	cmp	r4, #87	; 0x57
b00033ec:	0a00000d 	beq	b0003428 <i2c_test+0x7c>
b00033f0:	ca000004 	bgt	b0003408 <i2c_test+0x5c>
b00033f4:	e3540051 	cmp	r4, #81	; 0x51
b00033f8:	08bd8010 	ldmeqia	sp!, {r4, pc}
b00033fc:	e3540052 	cmp	r4, #82	; 0x52
b0003400:	0a00000a 	beq	b0003430 <i2c_test+0x84>
b0003404:	eaffffea 	b	b00033b4 <i2c_test+0x8>
b0003408:	e3540072 	cmp	r4, #114	; 0x72
b000340c:	0a000007 	beq	b0003430 <i2c_test+0x84>
b0003410:	ca000002 	bgt	b0003420 <i2c_test+0x74>
b0003414:	e3540071 	cmp	r4, #113	; 0x71
b0003418:	08bd8010 	ldmeqia	sp!, {r4, pc}
b000341c:	eaffffe4 	b	b00033b4 <i2c_test+0x8>
b0003420:	e3540077 	cmp	r4, #119	; 0x77
b0003424:	1affffe2 	bne	b00033b4 <i2c_test+0x8>
b0003428:	ebffffbd 	bl	b0003324 <do_write_AT24CXX>
b000342c:	eaffffe0 	b	b00033b4 <i2c_test+0x8>
b0003430:	ebffff80 	bl	b0003238 <do_read_AT24CXX>
b0003434:	eaffffde 	b	b00033b4 <i2c_test+0x8>
b0003438:	b0008ca4 	andlt	r8, r0, r4, lsr #25
b000343c:	b0008cb8 	strlth	r8, [r0], -r8
b0003440:	b0000da8 	andlt	r0, r0, r8, lsr #27
b0003444:	b0000db4 	strlth	r0, [r0], -r4
b0003448:	b0000dc8 	andlt	r0, r0, r8, asr #27

b000344c <i2c_interrupt_func>:
b000344c:	e59f1120 	ldr	r1, [pc, #288]	; b0003574 <.text+0x3574>
b0003450:	e591c000 	ldr	ip, [r1]
b0003454:	e59c2000 	ldr	r2, [ip]
b0003458:	e59c300c 	ldr	r3, [ip, #12]
b000345c:	e59f0114 	ldr	r0, [pc, #276]	; b0003578 <.text+0x3578>
b0003460:	e3530000 	cmp	r3, #0	; 0x0
b0003464:	e2822001 	add	r2, r2, #1	; 0x1
b0003468:	e5903000 	ldr	r3, [r0]
b000346c:	e58c2000 	str	r2, [ip]
b0003470:	1a000011 	bne	b00034bc <i2c_interrupt_func+0x70>
b0003474:	e3520000 	cmp	r2, #0	; 0x0
b0003478:	1a000002 	bne	b0003488 <i2c_interrupt_func+0x3c>
b000347c:	e3130001 	tst	r3, #1	; 0x1
b0003480:	13a030d0 	movne	r3, #208	; 0xd0
b0003484:	1a000011 	bne	b00034d0 <i2c_interrupt_func+0x84>
b0003488:	e5911000 	ldr	r1, [r1]
b000348c:	e5913010 	ldr	r3, [r1, #16]
b0003490:	e5912000 	ldr	r2, [r1]
b0003494:	e1520003 	cmp	r2, r3
b0003498:	b5913014 	ldrlt	r3, [r1, #20]
b000349c:	b7d32002 	ldrltb	r2, [r3, r2]
b00034a0:	b59f30d4 	ldrlt	r3, [pc, #212]	; b000357c <.text+0x357c>
b00034a4:	b5832000 	strlt	r2, [r3]
b00034a8:	ba000024 	blt	b0003540 <i2c_interrupt_func+0xf4>
b00034ac:	e59f30c4 	ldr	r3, [pc, #196]	; b0003578 <.text+0x3578>
b00034b0:	e3a020d0 	mov	r2, #208	; 0xd0
b00034b4:	e5832000 	str	r2, [r3]
b00034b8:	ea000027 	b	b000355c <i2c_interrupt_func+0x110>
b00034bc:	e3520000 	cmp	r2, #0	; 0x0
b00034c0:	1a00000b 	bne	b00034f4 <i2c_interrupt_func+0xa8>
b00034c4:	e3130001 	tst	r3, #1	; 0x1
b00034c8:	0a00001c 	beq	b0003540 <i2c_interrupt_func+0xf4>
b00034cc:	e3a03090 	mov	r3, #144	; 0x90
b00034d0:	e5803000 	str	r3, [r0]
b00034d4:	e59f20a4 	ldr	r2, [pc, #164]	; b0003580 <.text+0x3580>
b00034d8:	e3a00ffa 	mov	r0, #1000	; 0x3e8
b00034dc:	e5923000 	ldr	r3, [r2]
b00034e0:	e3c33010 	bic	r3, r3, #16	; 0x10
b00034e4:	e5823000 	str	r3, [r2]
b00034e8:	e3e03000 	mvn	r3, #0	; 0x0
b00034ec:	e58c3004 	str	r3, [ip, #4]
b00034f0:	ea00001e 	b	b0003570 <i2c_interrupt_func+0x124>
b00034f4:	e59c3010 	ldr	r3, [ip, #16]
b00034f8:	e1520003 	cmp	r2, r3
b00034fc:	aa000014 	bge	b0003554 <i2c_interrupt_func+0x108>
b0003500:	e2433001 	sub	r3, r3, #1	; 0x1
b0003504:	e1520003 	cmp	r2, r3
b0003508:	059f2070 	ldreq	r2, [pc, #112]	; b0003580 <.text+0x3580>
b000350c:	159f206c 	ldrne	r2, [pc, #108]	; b0003580 <.text+0x3580>
b0003510:	05923000 	ldreq	r3, [r2]
b0003514:	15923000 	ldrne	r3, [r2]
b0003518:	03c33080 	biceq	r3, r3, #128	; 0x80
b000351c:	13833080 	orrne	r3, r3, #128	; 0x80
b0003520:	e5823000 	str	r3, [r2]
b0003524:	e5911000 	ldr	r1, [r1]
b0003528:	e59f304c 	ldr	r3, [pc, #76]	; b000357c <.text+0x357c>
b000352c:	e5912000 	ldr	r2, [r1]
b0003530:	e5930000 	ldr	r0, [r3]
b0003534:	e5913014 	ldr	r3, [r1, #20]
b0003538:	e2422001 	sub	r2, r2, #1	; 0x1
b000353c:	e7c30002 	strb	r0, [r3, r2]
b0003540:	e59f2038 	ldr	r2, [pc, #56]	; b0003580 <.text+0x3580>
b0003544:	e5923000 	ldr	r3, [r2]
b0003548:	e3c33010 	bic	r3, r3, #16	; 0x10
b000354c:	e5823000 	str	r3, [r2]
b0003550:	e1a0f00e 	mov	pc, lr
b0003554:	e3a03090 	mov	r3, #144	; 0x90
b0003558:	e5803000 	str	r3, [r0]
b000355c:	e59f201c 	ldr	r2, [pc, #28]	; b0003580 <.text+0x3580>
b0003560:	e5923000 	ldr	r3, [r2]
b0003564:	e3c33010 	bic	r3, r3, #16	; 0x10
b0003568:	e5823000 	str	r3, [r2]
b000356c:	e3a00ffa 	mov	r0, #1000	; 0x3e8
b0003570:	ea00067a 	b	b0004f60 <delay>
b0003574:	b0009328 	andlt	r9, r0, r8, lsr #6
b0003578:	7f004004 	swivc	0x00004004
b000357c:	7f00400c 	swivc	0x0000400c
b0003580:	7f004000 	swivc	0x00004000

b0003584 <s3c6410_i2c_con_init>:
b0003584:	e59f3028 	ldr	r3, [pc, #40]	; b00035b4 <.text+0x35b4>
b0003588:	e3a02622 	mov	r2, #35651584	; 0x2200000
b000358c:	e5832000 	str	r2, [r3]
b0003590:	e3a02b0a 	mov	r2, #10240	; 0x2800
b0003594:	e2433018 	sub	r3, r3, #24	; 0x18
b0003598:	e59f1018 	ldr	r1, [pc, #24]	; b00035b8 <.text+0x35b8>
b000359c:	e5832000 	str	r2, [r3]
b00035a0:	e59f3014 	ldr	r3, [pc, #20]	; b00035bc <.text+0x35bc>
b00035a4:	e3a020e1 	mov	r2, #225	; 0xe1
b00035a8:	e3a00032 	mov	r0, #50	; 0x32
b00035ac:	e5832000 	str	r2, [r3]
b00035b0:	eafff640 	b	b0000eb8 <register_irq>
b00035b4:	7f008020 	swivc	0x00008020
b00035b8:	b000344c 	andlt	r3, r0, ip, asr #8
b00035bc:	7f004000 	swivc	0x00004000

b00035c0 <do_master_tx>:
b00035c0:	e3e03000 	mvn	r3, #0	; 0x0
b00035c4:	e59fc078 	ldr	ip, [pc, #120]	; b0003644 <.text+0x3644>
b00035c8:	e5803000 	str	r3, [r0]
b00035cc:	e2833001 	add	r3, r3, #1	; 0x1
b00035d0:	e5803004 	str	r3, [r0, #4]
b00035d4:	e58c0000 	str	r0, [ip]
b00035d8:	e59f1068 	ldr	r1, [pc, #104]	; b0003648 <.text+0x3648>
b00035dc:	e5913000 	ldr	r3, [r1]
b00035e0:	e3130020 	tst	r3, #32	; 0x20
b00035e4:	1afffffb 	bne	b00035d8 <do_master_tx+0x18>
b00035e8:	e59f205c 	ldr	r2, [pc, #92]	; b000364c <.text+0x364c>
b00035ec:	e5923000 	ldr	r3, [r2]
b00035f0:	e3833080 	orr	r3, r3, #128	; 0x80
b00035f4:	e482300c 	str	r3, [r2], #12
b00035f8:	e5913000 	ldr	r3, [r1]
b00035fc:	e3833010 	orr	r3, r3, #16	; 0x10
b0003600:	e5813000 	str	r3, [r1]
b0003604:	e5903008 	ldr	r3, [r0, #8]
b0003608:	e1a03083 	mov	r3, r3, lsl #1
b000360c:	e5823000 	str	r3, [r2]
b0003610:	e3a030f0 	mov	r3, #240	; 0xf0
b0003614:	e5813000 	str	r3, [r1]
b0003618:	e59c3000 	ldr	r3, [ip]
b000361c:	e5930004 	ldr	r0, [r3, #4]
b0003620:	e3500000 	cmp	r0, #0	; 0x0
b0003624:	1a000004 	bne	b000363c <do_master_tx+0x7c>
b0003628:	e5932010 	ldr	r2, [r3, #16]
b000362c:	e5933000 	ldr	r3, [r3]
b0003630:	e1530002 	cmp	r3, r2
b0003634:	1afffff7 	bne	b0003618 <do_master_tx+0x58>
b0003638:	e1a0f00e 	mov	pc, lr
b000363c:	e3e00000 	mvn	r0, #0	; 0x0
b0003640:	e1a0f00e 	mov	pc, lr
b0003644:	b0009328 	andlt	r9, r0, r8, lsr #6
b0003648:	7f004004 	swivc	0x00004004
b000364c:	7f004000 	swivc	0x00004000

b0003650 <do_master_rx>:
b0003650:	e3e03000 	mvn	r3, #0	; 0x0
b0003654:	e59fc07c 	ldr	ip, [pc, #124]	; b00036d8 <.text+0x36d8>
b0003658:	e5803000 	str	r3, [r0]
b000365c:	e2833001 	add	r3, r3, #1	; 0x1
b0003660:	e5803004 	str	r3, [r0, #4]
b0003664:	e58c0000 	str	r0, [ip]
b0003668:	e59f106c 	ldr	r1, [pc, #108]	; b00036dc <.text+0x36dc>
b000366c:	e5913000 	ldr	r3, [r1]
b0003670:	e3130020 	tst	r3, #32	; 0x20
b0003674:	1afffffb 	bne	b0003668 <do_master_rx+0x18>
b0003678:	e59f2060 	ldr	r2, [pc, #96]	; b00036e0 <.text+0x36e0>
b000367c:	e5923000 	ldr	r3, [r2]
b0003680:	e3833080 	orr	r3, r3, #128	; 0x80
b0003684:	e482300c 	str	r3, [r2], #12
b0003688:	e5913000 	ldr	r3, [r1]
b000368c:	e3833010 	orr	r3, r3, #16	; 0x10
b0003690:	e5813000 	str	r3, [r1]
b0003694:	e5903008 	ldr	r3, [r0, #8]
b0003698:	e1a03083 	mov	r3, r3, lsl #1
b000369c:	e3833001 	orr	r3, r3, #1	; 0x1
b00036a0:	e5823000 	str	r3, [r2]
b00036a4:	e3a030b0 	mov	r3, #176	; 0xb0
b00036a8:	e5813000 	str	r3, [r1]
b00036ac:	e59c3000 	ldr	r3, [ip]
b00036b0:	e5930004 	ldr	r0, [r3, #4]
b00036b4:	e3500000 	cmp	r0, #0	; 0x0
b00036b8:	1a000004 	bne	b00036d0 <do_master_rx+0x80>
b00036bc:	e5932010 	ldr	r2, [r3, #16]
b00036c0:	e5933000 	ldr	r3, [r3]
b00036c4:	e1530002 	cmp	r3, r2
b00036c8:	1afffff7 	bne	b00036ac <do_master_rx+0x5c>
b00036cc:	e1a0f00e 	mov	pc, lr
b00036d0:	e3e00000 	mvn	r0, #0	; 0x0
b00036d4:	e1a0f00e 	mov	pc, lr
b00036d8:	b0009328 	andlt	r9, r0, r8, lsr #6
b00036dc:	7f004004 	swivc	0x00004004
b00036e0:	7f004000 	swivc	0x00004000

b00036e4 <s3c6410_i2c_master_xfer>:
b00036e4:	e92d4070 	stmdb	sp!, {r4, r5, r6, lr}
b00036e8:	e3a05000 	mov	r5, #0	; 0x0
b00036ec:	e1550001 	cmp	r5, r1
b00036f0:	e1a06001 	mov	r6, r1
b00036f4:	aa00000e 	bge	b0003734 <s3c6410_i2c_master_xfer+0x50>
b00036f8:	e1a04000 	mov	r4, r0
b00036fc:	e594300c 	ldr	r3, [r4, #12]
b0003700:	e3530000 	cmp	r3, #0	; 0x0
b0003704:	e1a00004 	mov	r0, r4
b0003708:	1a000001 	bne	b0003714 <s3c6410_i2c_master_xfer+0x30>
b000370c:	ebffffab 	bl	b00035c0 <do_master_tx>
b0003710:	ea000001 	b	b000371c <s3c6410_i2c_master_xfer+0x38>
b0003714:	e1a00004 	mov	r0, r4
b0003718:	ebffffcc 	bl	b0003650 <do_master_rx>
b000371c:	e3500000 	cmp	r0, #0	; 0x0
b0003720:	e2855001 	add	r5, r5, #1	; 0x1
b0003724:	e2844018 	add	r4, r4, #24	; 0x18
b0003728:	18bd8070 	ldmneia	sp!, {r4, r5, r6, pc}
b000372c:	e1550006 	cmp	r5, r6
b0003730:	bafffff1 	blt	b00036fc <s3c6410_i2c_master_xfer+0x18>
b0003734:	e3a00000 	mov	r0, #0	; 0x0
b0003738:	e8bd8070 	ldmia	sp!, {r4, r5, r6, pc}

b000373c <s3c6410_i2c_con_add>:
b000373c:	e59f0000 	ldr	r0, [pc, #0]	; b0003744 <.text+0x3744>
b0003740:	eafffe87 	b	b0003164 <register_i2c_controller>
b0003744:	b000901c 	andlt	r9, r0, ip, lsl r0

b0003748 <Spi_Set_CLK>:
b0003748:	e59f101c 	ldr	r1, [pc, #28]	; b000376c <.text+0x376c>
b000374c:	e31000ff 	tst	r0, #255	; 0xff
b0003750:	15913000 	ldrne	r3, [r1]
b0003754:	05913000 	ldreq	r3, [r1]
b0003758:	13833020 	orrne	r3, r3, #32	; 0x20
b000375c:	03c33020 	biceq	r3, r3, #32	; 0x20
b0003760:	15813000 	strne	r3, [r1]
b0003764:	05813000 	streq	r3, [r1]
b0003768:	e1a0f00e 	mov	pc, lr
b000376c:	7f008044 	swivc	0x00008044

b0003770 <SPISendByte>:
b0003770:	e92d4030 	stmdb	sp!, {r4, r5, lr}
b0003774:	e20040ff 	and	r4, r0, #255	; 0xff
b0003778:	e3a05007 	mov	r5, #7	; 0x7
b000377c:	e3a00000 	mov	r0, #0	; 0x0
b0003780:	ebfffff0 	bl	b0003748 <Spi_Set_CLK>
b0003784:	e59f1034 	ldr	r1, [pc, #52]	; b00037c0 <.text+0x37c0>
b0003788:	e3140080 	tst	r4, #128	; 0x80
b000378c:	15913000 	ldrne	r3, [r1]
b0003790:	05913000 	ldreq	r3, [r1]
b0003794:	13833040 	orrne	r3, r3, #64	; 0x40
b0003798:	03c33040 	biceq	r3, r3, #64	; 0x40
b000379c:	15813000 	strne	r3, [r1]
b00037a0:	e3a00001 	mov	r0, #1	; 0x1
b00037a4:	05813000 	streq	r3, [r1]
b00037a8:	ebffffe6 	bl	b0003748 <Spi_Set_CLK>
b00037ac:	e1a03084 	mov	r3, r4, lsl #1
b00037b0:	e2555001 	subs	r5, r5, #1	; 0x1
b00037b4:	e20340ff 	and	r4, r3, #255	; 0xff
b00037b8:	5affffef 	bpl	b000377c <SPISendByte+0xc>
b00037bc:	e8bd8030 	ldmia	sp!, {r4, r5, pc}
b00037c0:	7f008044 	swivc	0x00008044

b00037c4 <SPIReceByte>:
b00037c4:	e92d4030 	stmdb	sp!, {r4, r5, lr}
b00037c8:	e3a04000 	mov	r4, #0	; 0x0
b00037cc:	e3a05007 	mov	r5, #7	; 0x7
b00037d0:	e1a03084 	mov	r3, r4, lsl #1
b00037d4:	e3a00000 	mov	r0, #0	; 0x0
b00037d8:	e20340ff 	and	r4, r3, #255	; 0xff
b00037dc:	ebffffd9 	bl	b0003748 <Spi_Set_CLK>
b00037e0:	e59f3028 	ldr	r3, [pc, #40]	; b0003810 <.text+0x3810>
b00037e4:	e5933000 	ldr	r3, [r3]
b00037e8:	e3a00001 	mov	r0, #1	; 0x1
b00037ec:	e2133010 	ands	r3, r3, #16	; 0x10
b00037f0:	11a03000 	movne	r3, r0
b00037f4:	e3530000 	cmp	r3, #0	; 0x0
b00037f8:	11844000 	orrne	r4, r4, r0
b00037fc:	ebffffd1 	bl	b0003748 <Spi_Set_CLK>
b0003800:	e2555001 	subs	r5, r5, #1	; 0x1
b0003804:	5afffff1 	bpl	b00037d0 <SPIReceByte+0xc>
b0003808:	e1a00004 	mov	r0, r4
b000380c:	e8bd8030 	ldmia	sp!, {r4, r5, pc}
b0003810:	7f008044 	swivc	0x00008044

b0003814 <SPIInit>:
b0003814:	e59f2014 	ldr	r2, [pc, #20]	; b0003830 <.text+0x3830>
b0003818:	e59f3014 	ldr	r3, [pc, #20]	; b0003834 <.text+0x3834>
b000381c:	e5832000 	str	r2, [r3]
b0003820:	e3a02caa 	mov	r2, #43520	; 0xaa00
b0003824:	e2833008 	add	r3, r3, #8	; 0x8
b0003828:	e5832000 	str	r2, [r3]
b000382c:	e1a0f00e 	mov	pc, lr
b0003830:	11100000 	tstne	r0, r0
b0003834:	7f008040 	swivc	0x00008040

b0003838 <SpiFlashSetCs>:
b0003838:	e59f101c 	ldr	r1, [pc, #28]	; b000385c <.text+0x385c>
b000383c:	e31000ff 	tst	r0, #255	; 0xff
b0003840:	15913000 	ldrne	r3, [r1]
b0003844:	05913000 	ldreq	r3, [r1]
b0003848:	13833080 	orrne	r3, r3, #128	; 0x80
b000384c:	03c33080 	biceq	r3, r3, #128	; 0x80
b0003850:	15813000 	strne	r3, [r1]
b0003854:	05813000 	streq	r3, [r1]
b0003858:	e1a0f00e 	mov	pc, lr
b000385c:	7f008044 	swivc	0x00008044

b0003860 <SpiFlashSendAddr>:
b0003860:	e92d4010 	stmdb	sp!, {r4, lr}
b0003864:	e1a04000 	mov	r4, r0
b0003868:	e1a00820 	mov	r0, r0, lsr #16
b000386c:	e20000ff 	and	r0, r0, #255	; 0xff
b0003870:	ebffffbe 	bl	b0003770 <SPISendByte>
b0003874:	e1a00424 	mov	r0, r4, lsr #8
b0003878:	e20000ff 	and	r0, r0, #255	; 0xff
b000387c:	ebffffbb 	bl	b0003770 <SPISendByte>
b0003880:	e20440ff 	and	r4, r4, #255	; 0xff
b0003884:	e1a00004 	mov	r0, r4
b0003888:	e8bd4010 	ldmia	sp!, {r4, lr}
b000388c:	eaffffb7 	b	b0003770 <SPISendByte>

b0003890 <SpiFlashReadId>:
b0003890:	e92d4030 	stmdb	sp!, {r4, r5, lr}
b0003894:	e1a04000 	mov	r4, r0
b0003898:	e3a00000 	mov	r0, #0	; 0x0
b000389c:	e1a05001 	mov	r5, r1
b00038a0:	ebffffe4 	bl	b0003838 <SpiFlashSetCs>
b00038a4:	e3a00090 	mov	r0, #144	; 0x90
b00038a8:	ebffffb0 	bl	b0003770 <SPISendByte>
b00038ac:	e3a00000 	mov	r0, #0	; 0x0
b00038b0:	ebffffea 	bl	b0003860 <SpiFlashSendAddr>
b00038b4:	ebffffc2 	bl	b00037c4 <SPIReceByte>
b00038b8:	e20000ff 	and	r0, r0, #255	; 0xff
b00038bc:	e5840000 	str	r0, [r4]
b00038c0:	ebffffbf 	bl	b00037c4 <SPIReceByte>
b00038c4:	e20000ff 	and	r0, r0, #255	; 0xff
b00038c8:	e5850000 	str	r0, [r5]
b00038cc:	e3a00001 	mov	r0, #1	; 0x1
b00038d0:	e8bd4030 	ldmia	sp!, {r4, r5, lr}
b00038d4:	eaffffd7 	b	b0003838 <SpiFlashSetCs>

b00038d8 <SPIFlashWriteEnable>:
b00038d8:	e3500000 	cmp	r0, #0	; 0x0
b00038dc:	e52de004 	str	lr, [sp, #-4]!
b00038e0:	0a000003 	beq	b00038f4 <SPIFlashWriteEnable+0x1c>
b00038e4:	e3a00000 	mov	r0, #0	; 0x0
b00038e8:	ebffffd2 	bl	b0003838 <SpiFlashSetCs>
b00038ec:	e3a00006 	mov	r0, #6	; 0x6
b00038f0:	ea000001 	b	b00038fc <SPIFlashWriteEnable+0x24>
b00038f4:	ebffffcf 	bl	b0003838 <SpiFlashSetCs>
b00038f8:	e3a00004 	mov	r0, #4	; 0x4
b00038fc:	ebffff9b 	bl	b0003770 <SPISendByte>
b0003900:	e3a00001 	mov	r0, #1	; 0x1
b0003904:	e49de004 	ldr	lr, [sp], #4
b0003908:	eaffffca 	b	b0003838 <SpiFlashSetCs>

b000390c <SPIFlashReadStatusReg1>:
b000390c:	e92d4010 	stmdb	sp!, {r4, lr}
b0003910:	e3a00000 	mov	r0, #0	; 0x0
b0003914:	ebffffc7 	bl	b0003838 <SpiFlashSetCs>
b0003918:	e3a00005 	mov	r0, #5	; 0x5
b000391c:	ebffff93 	bl	b0003770 <SPISendByte>
b0003920:	ebffffa7 	bl	b00037c4 <SPIReceByte>
b0003924:	e1a04000 	mov	r4, r0
b0003928:	e3a00001 	mov	r0, #1	; 0x1
b000392c:	ebffffc1 	bl	b0003838 <SpiFlashSetCs>
b0003930:	e20440ff 	and	r4, r4, #255	; 0xff
b0003934:	e1a00004 	mov	r0, r4
b0003938:	e8bd8010 	ldmia	sp!, {r4, pc}

b000393c <SPIFlashReadStatusReg2>:
b000393c:	e92d4010 	stmdb	sp!, {r4, lr}
b0003940:	e3a00000 	mov	r0, #0	; 0x0
b0003944:	ebffffbb 	bl	b0003838 <SpiFlashSetCs>
b0003948:	e3a00035 	mov	r0, #53	; 0x35
b000394c:	ebffff87 	bl	b0003770 <SPISendByte>
b0003950:	ebffff9b 	bl	b00037c4 <SPIReceByte>
b0003954:	e1a04000 	mov	r4, r0
b0003958:	e3a00001 	mov	r0, #1	; 0x1
b000395c:	ebffffb5 	bl	b0003838 <SpiFlashSetCs>
b0003960:	e20440ff 	and	r4, r4, #255	; 0xff
b0003964:	e1a00004 	mov	r0, r4
b0003968:	e8bd8010 	ldmia	sp!, {r4, pc}

b000396c <SPIFlashWaitWhenBusy>:
b000396c:	e52de004 	str	lr, [sp, #-4]!
b0003970:	ebffffe5 	bl	b000390c <SPIFlashReadStatusReg1>
b0003974:	e3100001 	tst	r0, #1	; 0x1
b0003978:	1afffffc 	bne	b0003970 <SPIFlashWaitWhenBusy+0x4>
b000397c:	e49df004 	ldr	pc, [sp], #4

b0003980 <SPIFlashWriteStatusReg>:
b0003980:	e92d4030 	stmdb	sp!, {r4, r5, lr}
b0003984:	e1a04000 	mov	r4, r0
b0003988:	e3a00001 	mov	r0, #1	; 0x1
b000398c:	e20150ff 	and	r5, r1, #255	; 0xff
b0003990:	ebffffd0 	bl	b00038d8 <SPIFlashWriteEnable>
b0003994:	e3a00000 	mov	r0, #0	; 0x0
b0003998:	ebffffa6 	bl	b0003838 <SpiFlashSetCs>
b000399c:	e20440ff 	and	r4, r4, #255	; 0xff
b00039a0:	e3a00001 	mov	r0, #1	; 0x1
b00039a4:	ebffff71 	bl	b0003770 <SPISendByte>
b00039a8:	e1a00004 	mov	r0, r4
b00039ac:	ebffff6f 	bl	b0003770 <SPISendByte>
b00039b0:	e1a00005 	mov	r0, r5
b00039b4:	ebffff6d 	bl	b0003770 <SPISendByte>
b00039b8:	e3a00001 	mov	r0, #1	; 0x1
b00039bc:	ebffff9d 	bl	b0003838 <SpiFlashSetCs>
b00039c0:	e8bd4030 	ldmia	sp!, {r4, r5, lr}
b00039c4:	eaffffe8 	b	b000396c <SPIFlashWaitWhenBusy>

b00039c8 <SPIFlashEraseSector>:
b00039c8:	e92d4010 	stmdb	sp!, {r4, lr}
b00039cc:	e1a04000 	mov	r4, r0
b00039d0:	e3a00001 	mov	r0, #1	; 0x1
b00039d4:	ebffffbf 	bl	b00038d8 <SPIFlashWriteEnable>
b00039d8:	e3a00000 	mov	r0, #0	; 0x0
b00039dc:	ebffff95 	bl	b0003838 <SpiFlashSetCs>
b00039e0:	e3a00020 	mov	r0, #32	; 0x20
b00039e4:	ebffff61 	bl	b0003770 <SPISendByte>
b00039e8:	e1a00004 	mov	r0, r4
b00039ec:	ebffff9b 	bl	b0003860 <SpiFlashSendAddr>
b00039f0:	e3a00001 	mov	r0, #1	; 0x1
b00039f4:	ebffff8f 	bl	b0003838 <SpiFlashSetCs>
b00039f8:	e8bd4010 	ldmia	sp!, {r4, lr}
b00039fc:	eaffffda 	b	b000396c <SPIFlashWaitWhenBusy>

b0003a00 <SPIFlashProgram>:
b0003a00:	e92d4070 	stmdb	sp!, {r4, r5, r6, lr}
b0003a04:	e1a04000 	mov	r4, r0
b0003a08:	e3a00001 	mov	r0, #1	; 0x1
b0003a0c:	e1a05002 	mov	r5, r2
b0003a10:	e1a06001 	mov	r6, r1
b0003a14:	ebffffaf 	bl	b00038d8 <SPIFlashWriteEnable>
b0003a18:	e3a00000 	mov	r0, #0	; 0x0
b0003a1c:	ebffff85 	bl	b0003838 <SpiFlashSetCs>
b0003a20:	e3a00002 	mov	r0, #2	; 0x2
b0003a24:	ebffff51 	bl	b0003770 <SPISendByte>
b0003a28:	e1a00004 	mov	r0, r4
b0003a2c:	e3a04000 	mov	r4, #0	; 0x0
b0003a30:	ebffff8a 	bl	b0003860 <SpiFlashSendAddr>
b0003a34:	e1540005 	cmp	r4, r5
b0003a38:	aa000003 	bge	b0003a4c <SPIFlashProgram+0x4c>
b0003a3c:	e7d60004 	ldrb	r0, [r6, r4]
b0003a40:	e2844001 	add	r4, r4, #1	; 0x1
b0003a44:	ebffff49 	bl	b0003770 <SPISendByte>
b0003a48:	eafffff9 	b	b0003a34 <SPIFlashProgram+0x34>
b0003a4c:	e3a00001 	mov	r0, #1	; 0x1
b0003a50:	ebffff78 	bl	b0003838 <SpiFlashSetCs>
b0003a54:	e8bd4070 	ldmia	sp!, {r4, r5, r6, lr}
b0003a58:	eaffffc3 	b	b000396c <SPIFlashWaitWhenBusy>

b0003a5c <SPIFlashRead>:
b0003a5c:	e92d4070 	stmdb	sp!, {r4, r5, r6, lr}
b0003a60:	e1a04000 	mov	r4, r0
b0003a64:	e3a00000 	mov	r0, #0	; 0x0
b0003a68:	e1a05002 	mov	r5, r2
b0003a6c:	e1a06001 	mov	r6, r1
b0003a70:	ebffff70 	bl	b0003838 <SpiFlashSetCs>
b0003a74:	e3a00003 	mov	r0, #3	; 0x3
b0003a78:	ebffff3c 	bl	b0003770 <SPISendByte>
b0003a7c:	e1a00004 	mov	r0, r4
b0003a80:	e3a04000 	mov	r4, #0	; 0x0
b0003a84:	ebffff75 	bl	b0003860 <SpiFlashSendAddr>
b0003a88:	e1540005 	cmp	r4, r5
b0003a8c:	aa000003 	bge	b0003aa0 <SPIFlashRead+0x44>
b0003a90:	ebffff4b 	bl	b00037c4 <SPIReceByte>
b0003a94:	e7c60004 	strb	r0, [r6, r4]
b0003a98:	e2844001 	add	r4, r4, #1	; 0x1
b0003a9c:	eafffff9 	b	b0003a88 <SPIFlashRead+0x2c>
b0003aa0:	e3a00001 	mov	r0, #1	; 0x1
b0003aa4:	e8bd4070 	ldmia	sp!, {r4, r5, r6, lr}
b0003aa8:	eaffff62 	b	b0003838 <SpiFlashSetCs>

b0003aac <SPIFlashInit>:
b0003aac:	e92d4010 	stmdb	sp!, {r4, lr}
b0003ab0:	ebffff57 	bl	b0003814 <SPIInit>
b0003ab4:	ebffff94 	bl	b000390c <SPIFlashReadStatusReg1>
b0003ab8:	e1a04000 	mov	r4, r0
b0003abc:	ebffff9e 	bl	b000393c <SPIFlashReadStatusReg2>
b0003ac0:	e20010fe 	and	r1, r0, #254	; 0xfe
b0003ac4:	e204007f 	and	r0, r4, #127	; 0x7f
b0003ac8:	ebffffac 	bl	b0003980 <SPIFlashWriteStatusReg>
b0003acc:	ebffff8e 	bl	b000390c <SPIFlashReadStatusReg1>
b0003ad0:	e1a04000 	mov	r4, r0
b0003ad4:	ebffff98 	bl	b000393c <SPIFlashReadStatusReg2>
b0003ad8:	e20010bf 	and	r1, r0, #191	; 0xbf
b0003adc:	e20400e3 	and	r0, r4, #227	; 0xe3
b0003ae0:	e8bd4010 	ldmia	sp!, {r4, lr}
b0003ae4:	eaffffa5 	b	b0003980 <SPIFlashWriteStatusReg>

b0003ae8 <read_spi_chip_id>:
b0003ae8:	e52de004 	str	lr, [sp, #-4]!
b0003aec:	e24dd008 	sub	sp, sp, #8	; 0x8
b0003af0:	e28d0004 	add	r0, sp, #4	; 0x4
b0003af4:	e1a0100d 	mov	r1, sp
b0003af8:	ebffff64 	bl	b0003890 <SpiFlashReadId>
b0003afc:	e59d1004 	ldr	r1, [sp, #4]
b0003b00:	e59d2000 	ldr	r2, [sp]
b0003b04:	e59f0008 	ldr	r0, [pc, #8]	; b0003b14 <.text+0x3b14>
b0003b08:	eb00051e 	bl	b0004f88 <printf>
b0003b0c:	e28dd008 	add	sp, sp, #8	; 0x8
b0003b10:	e8bd8000 	ldmia	sp!, {pc}
b0003b14:	b0008ccc 	andlt	r8, r0, ip, asr #25

b0003b18 <do_erase_spi_flash>:
b0003b18:	e92d4010 	stmdb	sp!, {r4, lr}
b0003b1c:	e59f001c 	ldr	r0, [pc, #28]	; b0003b40 <.text+0x3b40>
b0003b20:	eb000518 	bl	b0004f88 <printf>
b0003b24:	eb000566 	bl	b00050c4 <get_uint>
b0003b28:	e1a04000 	mov	r4, r0
b0003b2c:	e59f0010 	ldr	r0, [pc, #16]	; b0003b44 <.text+0x3b44>
b0003b30:	eb000514 	bl	b0004f88 <printf>
b0003b34:	e1a00004 	mov	r0, r4
b0003b38:	e8bd4010 	ldmia	sp!, {r4, lr}
b0003b3c:	eaffffa1 	b	b00039c8 <SPIFlashEraseSector>
b0003b40:	b0000cbc 	strlth	r0, [r0], -ip
b0003b44:	b0000ce4 	andlt	r0, r0, r4, ror #25

b0003b48 <do_write_spi_flash>:
b0003b48:	e92d4030 	stmdb	sp!, {r4, r5, lr}
b0003b4c:	e59f0048 	ldr	r0, [pc, #72]	; b0003b9c <.text+0x3b9c>
b0003b50:	e24dd064 	sub	sp, sp, #100	; 0x64
b0003b54:	eb00050b 	bl	b0004f88 <printf>
b0003b58:	eb000559 	bl	b00050c4 <get_uint>
b0003b5c:	e1a04000 	mov	r4, r0
b0003b60:	e59f0038 	ldr	r0, [pc, #56]	; b0003ba0 <.text+0x3ba0>
b0003b64:	eb000507 	bl	b0004f88 <printf>
b0003b68:	e1a0000d 	mov	r0, sp
b0003b6c:	eb000532 	bl	b000503c <gets>
b0003b70:	e59f002c 	ldr	r0, [pc, #44]	; b0003ba4 <.text+0x3ba4>
b0003b74:	eb000503 	bl	b0004f88 <printf>
b0003b78:	e1a0000d 	mov	r0, sp
b0003b7c:	eb0005d3 	bl	b00052d0 <strlen>
b0003b80:	e1a0100d 	mov	r1, sp
b0003b84:	e2802001 	add	r2, r0, #1	; 0x1
b0003b88:	e1a00004 	mov	r0, r4
b0003b8c:	e1a0500d 	mov	r5, sp
b0003b90:	ebffff9a 	bl	b0003a00 <SPIFlashProgram>
b0003b94:	e28dd064 	add	sp, sp, #100	; 0x64
b0003b98:	e8bd8030 	ldmia	sp!, {r4, r5, pc}
b0003b9c:	b0000cf4 	strltd	r0, [r0], -r4
b0003ba0:	b0000d1c 	andlt	r0, r0, ip, lsl sp
b0003ba4:	b0000d38 	andlt	r0, r0, r8, lsr sp

b0003ba8 <do_read_spi_flash>:
b0003ba8:	e92d4070 	stmdb	sp!, {r4, r5, r6, lr}
b0003bac:	e59f00a4 	ldr	r0, [pc, #164]	; b0003c58 <.text+0x3c58>
b0003bb0:	e3a05000 	mov	r5, #0	; 0x0
b0003bb4:	e24dd040 	sub	sp, sp, #64	; 0x40
b0003bb8:	eb0004f2 	bl	b0004f88 <printf>
b0003bbc:	eb000540 	bl	b00050c4 <get_uint>
b0003bc0:	e1a0100d 	mov	r1, sp
b0003bc4:	e3a02040 	mov	r2, #64	; 0x40
b0003bc8:	ebffffa3 	bl	b0003a5c <SPIFlashRead>
b0003bcc:	e59f0088 	ldr	r0, [pc, #136]	; b0003c5c <.text+0x3c5c>
b0003bd0:	eb0004ec 	bl	b0004f88 <printf>
b0003bd4:	e3a04000 	mov	r4, #0	; 0x0
b0003bd8:	e28d2040 	add	r2, sp, #64	; 0x40
b0003bdc:	e1a06205 	mov	r6, r5, lsl #4
b0003be0:	e0863002 	add	r3, r6, r2
b0003be4:	e0833004 	add	r3, r3, r4
b0003be8:	e5531040 	ldrb	r1, [r3, #-64]
b0003bec:	e2844001 	add	r4, r4, #1	; 0x1
b0003bf0:	e59f0068 	ldr	r0, [pc, #104]	; b0003c60 <.text+0x3c60>
b0003bf4:	eb0004e3 	bl	b0004f88 <printf>
b0003bf8:	e354000f 	cmp	r4, #15	; 0xf
b0003bfc:	dafffff5 	ble	b0003bd8 <do_read_spi_flash+0x30>
b0003c00:	e59f005c 	ldr	r0, [pc, #92]	; b0003c64 <.text+0x3c64>
b0003c04:	eb0004df 	bl	b0004f88 <printf>
b0003c08:	e3a04000 	mov	r4, #0	; 0x0
b0003c0c:	e28d2040 	add	r2, sp, #64	; 0x40
b0003c10:	e0863002 	add	r3, r6, r2
b0003c14:	e0833004 	add	r3, r3, r4
b0003c18:	e5532040 	ldrb	r2, [r3, #-64]
b0003c1c:	e2423020 	sub	r3, r2, #32	; 0x20
b0003c20:	e353005e 	cmp	r3, #94	; 0x5e
b0003c24:	e3a0002e 	mov	r0, #46	; 0x2e
b0003c28:	e2844001 	add	r4, r4, #1	; 0x1
b0003c2c:	91a00002 	movls	r0, r2
b0003c30:	ebfff50c 	bl	b0001068 <putc>
b0003c34:	e354000f 	cmp	r4, #15	; 0xf
b0003c38:	dafffff3 	ble	b0003c0c <do_read_spi_flash+0x64>
b0003c3c:	e2855001 	add	r5, r5, #1	; 0x1
b0003c40:	e59f0020 	ldr	r0, [pc, #32]	; b0003c68 <.text+0x3c68>
b0003c44:	eb0004cf 	bl	b0004f88 <printf>
b0003c48:	e3550003 	cmp	r5, #3	; 0x3
b0003c4c:	daffffe0 	ble	b0003bd4 <do_read_spi_flash+0x2c>
b0003c50:	e28dd040 	add	sp, sp, #64	; 0x40
b0003c54:	e8bd8070 	ldmia	sp!, {r4, r5, r6, pc}
b0003c58:	b0000c2c 	andlt	r0, r0, ip, lsr #24
b0003c5c:	b0000c48 	andlt	r0, r0, r8, asr #24
b0003c60:	b0000c54 	andlt	r0, r0, r4, asr ip
b0003c64:	b0000c5c 	andlt	r0, r0, ip, asr ip
b0003c68:	b0008ca0 	andlt	r8, r0, r0, lsr #25

b0003c6c <spi_flash_test>:
b0003c6c:	e92d4010 	stmdb	sp!, {r4, lr}
b0003c70:	ebffff8d 	bl	b0003aac <SPIFlashInit>
b0003c74:	e59f00d0 	ldr	r0, [pc, #208]	; b0003d4c <.text+0x3d4c>
b0003c78:	eb0004c2 	bl	b0004f88 <printf>
b0003c7c:	e59f00cc 	ldr	r0, [pc, #204]	; b0003d50 <.text+0x3d50>
b0003c80:	eb0004c0 	bl	b0004f88 <printf>
b0003c84:	e59f00c8 	ldr	r0, [pc, #200]	; b0003d54 <.text+0x3d54>
b0003c88:	eb0004be 	bl	b0004f88 <printf>
b0003c8c:	e59f00c4 	ldr	r0, [pc, #196]	; b0003d58 <.text+0x3d58>
b0003c90:	eb0004bc 	bl	b0004f88 <printf>
b0003c94:	e59f00c0 	ldr	r0, [pc, #192]	; b0003d5c <.text+0x3d5c>
b0003c98:	eb0004ba 	bl	b0004f88 <printf>
b0003c9c:	e59f00bc 	ldr	r0, [pc, #188]	; b0003d60 <.text+0x3d60>
b0003ca0:	eb0004b8 	bl	b0004f88 <printf>
b0003ca4:	e59f00b8 	ldr	r0, [pc, #184]	; b0003d64 <.text+0x3d64>
b0003ca8:	eb0004b6 	bl	b0004f88 <printf>
b0003cac:	ebfff4f7 	bl	b0001090 <getc>
b0003cb0:	e20040ff 	and	r4, r0, #255	; 0xff
b0003cb4:	e1a01004 	mov	r1, r4
b0003cb8:	e59f00a8 	ldr	r0, [pc, #168]	; b0003d68 <.text+0x3d68>
b0003cbc:	eb0004b1 	bl	b0004f88 <printf>
b0003cc0:	e3540057 	cmp	r4, #87	; 0x57
b0003cc4:	0a00001c 	beq	b0003d3c <spi_flash_test+0xd0>
b0003cc8:	ca00000a 	bgt	b0003cf8 <spi_flash_test+0x8c>
b0003ccc:	e3540049 	cmp	r4, #73	; 0x49
b0003cd0:	0a000015 	beq	b0003d2c <spi_flash_test+0xc0>
b0003cd4:	ca000002 	bgt	b0003ce4 <spi_flash_test+0x78>
b0003cd8:	e3540045 	cmp	r4, #69	; 0x45
b0003cdc:	0a000014 	beq	b0003d34 <spi_flash_test+0xc8>
b0003ce0:	eaffffe3 	b	b0003c74 <spi_flash_test+0x8>
b0003ce4:	e3540051 	cmp	r4, #81	; 0x51
b0003ce8:	08bd8010 	ldmeqia	sp!, {r4, pc}
b0003cec:	e3540052 	cmp	r4, #82	; 0x52
b0003cf0:	0a000013 	beq	b0003d44 <spi_flash_test+0xd8>
b0003cf4:	eaffffde 	b	b0003c74 <spi_flash_test+0x8>
b0003cf8:	e3540071 	cmp	r4, #113	; 0x71
b0003cfc:	08bd8010 	ldmeqia	sp!, {r4, pc}
b0003d00:	ca000004 	bgt	b0003d18 <spi_flash_test+0xac>
b0003d04:	e3540065 	cmp	r4, #101	; 0x65
b0003d08:	0a000009 	beq	b0003d34 <spi_flash_test+0xc8>
b0003d0c:	e3540069 	cmp	r4, #105	; 0x69
b0003d10:	0a000005 	beq	b0003d2c <spi_flash_test+0xc0>
b0003d14:	eaffffd6 	b	b0003c74 <spi_flash_test+0x8>
b0003d18:	e3540072 	cmp	r4, #114	; 0x72
b0003d1c:	0a000008 	beq	b0003d44 <spi_flash_test+0xd8>
b0003d20:	e3540077 	cmp	r4, #119	; 0x77
b0003d24:	0a000004 	beq	b0003d3c <spi_flash_test+0xd0>
b0003d28:	eaffffd1 	b	b0003c74 <spi_flash_test+0x8>
b0003d2c:	ebffff6d 	bl	b0003ae8 <read_spi_chip_id>
b0003d30:	eaffffcf 	b	b0003c74 <spi_flash_test+0x8>
b0003d34:	ebffff77 	bl	b0003b18 <do_erase_spi_flash>
b0003d38:	eaffffcd 	b	b0003c74 <spi_flash_test+0x8>
b0003d3c:	ebffff81 	bl	b0003b48 <do_write_spi_flash>
b0003d40:	eaffffcb 	b	b0003c74 <spi_flash_test+0x8>
b0003d44:	ebffff97 	bl	b0003ba8 <do_read_spi_flash>
b0003d48:	eaffffc9 	b	b0003c74 <spi_flash_test+0x8>
b0003d4c:	b0008cf0 	strltd	r8, [r0], -r0
b0003d50:	b0008d0c 	andlt	r8, r0, ip, lsl #26
b0003d54:	b0008d28 	andlt	r8, r0, r8, lsr #26
b0003d58:	b0008d40 	andlt	r8, r0, r0, asr #26
b0003d5c:	b0008d58 	andlt	r8, r0, r8, asr sp
b0003d60:	b0000da8 	andlt	r0, r0, r8, lsr #27
b0003d64:	b0000db4 	strlth	r0, [r0], -r4
b0003d68:	b0000dc8 	andlt	r0, r0, r8, asr #27

b0003d6c <set_io_as_output>:
b0003d6c:	e59f3018 	ldr	r3, [pc, #24]	; b0003d8c <.text+0x3d8c>
b0003d70:	e5932000 	ldr	r2, [r3]
b0003d74:	e3c22803 	bic	r2, r2, #196608	; 0x30000
b0003d78:	e5832000 	str	r2, [r3]
b0003d7c:	e5932000 	ldr	r2, [r3]
b0003d80:	e3822801 	orr	r2, r2, #65536	; 0x10000
b0003d84:	e5832000 	str	r2, [r3]
b0003d88:	e1a0f00e 	mov	pc, lr
b0003d8c:	7f008830 	swivc	0x00008830

b0003d90 <set_data>:
b0003d90:	e59f101c 	ldr	r1, [pc, #28]	; b0003db4 <.text+0x3db4>
b0003d94:	e31000ff 	tst	r0, #255	; 0xff
b0003d98:	15913000 	ldrne	r3, [r1]
b0003d9c:	05913000 	ldreq	r3, [r1]
b0003da0:	13833c01 	orrne	r3, r3, #256	; 0x100
b0003da4:	03c33c01 	biceq	r3, r3, #256	; 0x100
b0003da8:	15813000 	strne	r3, [r1]
b0003dac:	05813000 	streq	r3, [r1]
b0003db0:	e1a0f00e 	mov	pc, lr
b0003db4:	7f008834 	swivc	0x00008834

b0003db8 <get_data>:
b0003db8:	e59f300c 	ldr	r3, [pc, #12]	; b0003dcc <.text+0x3dcc>
b0003dbc:	e5930000 	ldr	r0, [r3]
b0003dc0:	e2100c01 	ands	r0, r0, #256	; 0x100
b0003dc4:	13a00001 	movne	r0, #1	; 0x1
b0003dc8:	e1a0f00e 	mov	pc, lr
b0003dcc:	7f008834 	swivc	0x00008834

b0003dd0 <wait_for_updown>:
b0003dd0:	e92d4030 	stmdb	sp!, {r4, r5, lr}
b0003dd4:	e2414001 	sub	r4, r1, #1	; 0x1
b0003dd8:	e3740001 	cmn	r4, #1	; 0x1
b0003ddc:	e20050ff 	and	r5, r0, #255	; 0xff
b0003de0:	0a00000b 	beq	b0003e14 <wait_for_updown+0x44>
b0003de4:	ebfffff3 	bl	b0003db8 <get_data>
b0003de8:	e1a03000 	mov	r3, r0
b0003dec:	e20330ff 	and	r3, r3, #255	; 0xff
b0003df0:	e1530005 	cmp	r3, r5
b0003df4:	e2444001 	sub	r4, r4, #1	; 0x1
b0003df8:	e3a00001 	mov	r0, #1	; 0x1
b0003dfc:	1a000001 	bne	b0003e08 <wait_for_updown+0x38>
b0003e00:	e2400001 	sub	r0, r0, #1	; 0x1
b0003e04:	e8bd8030 	ldmia	sp!, {r4, r5, pc}
b0003e08:	ebfff573 	bl	b00013dc <udelay>
b0003e0c:	e3740001 	cmn	r4, #1	; 0x1
b0003e10:	eafffff2 	b	b0003de0 <wait_for_updown+0x10>
b0003e14:	e3a000ff 	mov	r0, #255	; 0xff
b0003e18:	e8bd8030 	ldmia	sp!, {r4, r5, pc}

b0003e1c <dht11_start>:
b0003e1c:	e52de004 	str	lr, [sp, #-4]!
b0003e20:	ebffffd1 	bl	b0003d6c <set_io_as_output>
b0003e24:	e3a00000 	mov	r0, #0	; 0x0
b0003e28:	ebffffd8 	bl	b0003d90 <set_data>
b0003e2c:	e3a00014 	mov	r0, #20	; 0x14
b0003e30:	ebfff57c 	bl	b0001428 <mdelay>
b0003e34:	e59f200c 	ldr	r2, [pc, #12]	; b0003e48 <.text+0x3e48>
b0003e38:	e5923000 	ldr	r3, [r2]
b0003e3c:	e3c33803 	bic	r3, r3, #196608	; 0x30000
b0003e40:	e5823000 	str	r3, [r2]
b0003e44:	e49df004 	ldr	pc, [sp], #4
b0003e48:	7f008830 	swivc	0x00008830

b0003e4c <dht11_recv_byte>:
b0003e4c:	e92d4070 	stmdb	sp!, {r4, r5, r6, lr}
b0003e50:	e3a04000 	mov	r4, #0	; 0x0
b0003e54:	e1a06004 	mov	r6, r4
b0003e58:	e3a01ffa 	mov	r1, #1000	; 0x3e8
b0003e5c:	e3a00001 	mov	r0, #1	; 0x1
b0003e60:	ebffffda 	bl	b0003dd0 <wait_for_updown>
b0003e64:	e1a03000 	mov	r3, r0
b0003e68:	e21350ff 	ands	r5, r3, #255	; 0xff
b0003e6c:	e3a00028 	mov	r0, #40	; 0x28
b0003e70:	e2866001 	add	r6, r6, #1	; 0x1
b0003e74:	159f0054 	ldrne	r0, [pc, #84]	; b0003ed0 <.text+0x3ed0>
b0003e78:	1a00000d 	bne	b0003eb4 <dht11_recv_byte+0x68>
b0003e7c:	ebfff556 	bl	b00013dc <udelay>
b0003e80:	e1a03084 	mov	r3, r4, lsl #1
b0003e84:	e20340ff 	and	r4, r3, #255	; 0xff
b0003e88:	ebffffca 	bl	b0003db8 <get_data>
b0003e8c:	e1a03000 	mov	r3, r0
b0003e90:	e20330ff 	and	r3, r3, #255	; 0xff
b0003e94:	e3530001 	cmp	r3, #1	; 0x1
b0003e98:	e1a00005 	mov	r0, r5
b0003e9c:	e3a01ffa 	mov	r1, #1000	; 0x3e8
b0003ea0:	03844001 	orreq	r4, r4, #1	; 0x1
b0003ea4:	ebffffc9 	bl	b0003dd0 <wait_for_updown>
b0003ea8:	e31000ff 	tst	r0, #255	; 0xff
b0003eac:	0a000003 	beq	b0003ec0 <dht11_recv_byte+0x74>
b0003eb0:	e59f001c 	ldr	r0, [pc, #28]	; b0003ed4 <.text+0x3ed4>
b0003eb4:	eb000433 	bl	b0004f88 <printf>
b0003eb8:	e3a000ff 	mov	r0, #255	; 0xff
b0003ebc:	e8bd8070 	ldmia	sp!, {r4, r5, r6, pc}
b0003ec0:	e3560007 	cmp	r6, #7	; 0x7
b0003ec4:	daffffe3 	ble	b0003e58 <dht11_recv_byte+0xc>
b0003ec8:	e1a00004 	mov	r0, r4
b0003ecc:	e8bd8070 	ldmia	sp!, {r4, r5, r6, pc}
b0003ed0:	b0008d70 	andlt	r8, r0, r0, ror sp
b0003ed4:	b0008d84 	andlt	r8, r0, r4, lsl #27

b0003ed8 <dht11_read>:
b0003ed8:	e92d4ff0 	stmdb	sp!, {r4, r5, r6, r7, r8, r9, sl, fp, lr}
b0003edc:	e1a0b001 	mov	fp, r1
b0003ee0:	e1a09000 	mov	r9, r0
b0003ee4:	ebffffcc 	bl	b0003e1c <dht11_start>
b0003ee8:	e3a0003c 	mov	r0, #60	; 0x3c
b0003eec:	ebfff53a 	bl	b00013dc <udelay>
b0003ef0:	ebffffb0 	bl	b0003db8 <get_data>
b0003ef4:	e1a03000 	mov	r3, r0
b0003ef8:	e21330ff 	ands	r3, r3, #255	; 0xff
b0003efc:	e3a01ffa 	mov	r1, #1000	; 0x3e8
b0003f00:	e59f00b8 	ldr	r0, [pc, #184]	; b0003fc0 <.text+0x3fc0>
b0003f04:	1a000006 	bne	b0003f24 <dht11_read+0x4c>
b0003f08:	e1a00003 	mov	r0, r3
b0003f0c:	ebffffaf 	bl	b0003dd0 <wait_for_updown>
b0003f10:	e31000ff 	tst	r0, #255	; 0xff
b0003f14:	e3a01ffa 	mov	r1, #1000	; 0x3e8
b0003f18:	e3a00001 	mov	r0, #1	; 0x1
b0003f1c:	0a000003 	beq	b0003f30 <dht11_read+0x58>
b0003f20:	e59f009c 	ldr	r0, [pc, #156]	; b0003fc4 <.text+0x3fc4>
b0003f24:	eb000417 	bl	b0004f88 <printf>
b0003f28:	e3a000ff 	mov	r0, #255	; 0xff
b0003f2c:	e8bd8ff0 	ldmia	sp!, {r4, r5, r6, r7, r8, r9, sl, fp, pc}
b0003f30:	ebffffa6 	bl	b0003dd0 <wait_for_updown>
b0003f34:	e1a03000 	mov	r3, r0
b0003f38:	e213a0ff 	ands	sl, r3, #255	; 0xff
b0003f3c:	e59f0084 	ldr	r0, [pc, #132]	; b0003fc8 <.text+0x3fc8>
b0003f40:	1afffff7 	bne	b0003f24 <dht11_read+0x4c>
b0003f44:	ebffffc0 	bl	b0003e4c <dht11_recv_byte>
b0003f48:	e20080ff 	and	r8, r0, #255	; 0xff
b0003f4c:	ebffffbe 	bl	b0003e4c <dht11_recv_byte>
b0003f50:	e1a04000 	mov	r4, r0
b0003f54:	ebffffbc 	bl	b0003e4c <dht11_recv_byte>
b0003f58:	e20070ff 	and	r7, r0, #255	; 0xff
b0003f5c:	ebffffba 	bl	b0003e4c <dht11_recv_byte>
b0003f60:	e1a06000 	mov	r6, r0
b0003f64:	ebffffb8 	bl	b0003e4c <dht11_recv_byte>
b0003f68:	e20440ff 	and	r4, r4, #255	; 0xff
b0003f6c:	e0884004 	add	r4, r8, r4
b0003f70:	e1a05000 	mov	r5, r0
b0003f74:	e20660ff 	and	r6, r6, #255	; 0xff
b0003f78:	e0844007 	add	r4, r4, r7
b0003f7c:	ebffff7a 	bl	b0003d6c <set_io_as_output>
b0003f80:	e20550ff 	and	r5, r5, #255	; 0xff
b0003f84:	e3a00001 	mov	r0, #1	; 0x1
b0003f88:	e0844006 	add	r4, r4, r6
b0003f8c:	ebffff7f 	bl	b0003d90 <set_data>
b0003f90:	e1540005 	cmp	r4, r5
b0003f94:	e3a00e7d 	mov	r0, #2000	; 0x7d0
b0003f98:	1a000004 	bne	b0003fb0 <dht11_read+0xd8>
b0003f9c:	e5c98000 	strb	r8, [r9]
b0003fa0:	e5cb7000 	strb	r7, [fp]
b0003fa4:	ebfff51f 	bl	b0001428 <mdelay>
b0003fa8:	e1a0000a 	mov	r0, sl
b0003fac:	e8bd8ff0 	ldmia	sp!, {r4, r5, r6, r7, r8, r9, sl, fp, pc}
b0003fb0:	e59f0014 	ldr	r0, [pc, #20]	; b0003fcc <.text+0x3fcc>
b0003fb4:	eb0003f3 	bl	b0004f88 <printf>
b0003fb8:	e3a000ff 	mov	r0, #255	; 0xff
b0003fbc:	e8bd8ff0 	ldmia	sp!, {r4, r5, r6, r7, r8, r9, sl, fp, pc}
b0003fc0:	b0008d9c 	mullt	r0, ip, sp
b0003fc4:	b0008db4 	strlth	r8, [r0], -r4
b0003fc8:	b0008dcc 	andlt	r8, r0, ip, asr #27
b0003fcc:	b0008de0 	andlt	r8, r0, r0, ror #27

b0003fd0 <dht11_init>:
b0003fd0:	e52de004 	str	lr, [sp, #-4]!
b0003fd4:	ebffff64 	bl	b0003d6c <set_io_as_output>
b0003fd8:	e59f201c 	ldr	r2, [pc, #28]	; b0003ffc <.text+0x3ffc>
b0003fdc:	e5923000 	ldr	r3, [r2]
b0003fe0:	e3833802 	orr	r3, r3, #131072	; 0x20000
b0003fe4:	e3a00001 	mov	r0, #1	; 0x1
b0003fe8:	e5823000 	str	r3, [r2]
b0003fec:	ebffff67 	bl	b0003d90 <set_data>
b0003ff0:	e3a00ffa 	mov	r0, #1000	; 0x3e8
b0003ff4:	e49de004 	ldr	lr, [sp], #4
b0003ff8:	eafff50a 	b	b0001428 <mdelay>
b0003ffc:	7f008838 	swivc	0x00008838

b0004000 <dht11_test>:
b0004000:	e52de004 	str	lr, [sp, #-4]!
b0004004:	e24dd004 	sub	sp, sp, #4	; 0x4
b0004008:	ebfffff0 	bl	b0003fd0 <dht11_init>
b000400c:	e28d1002 	add	r1, sp, #2	; 0x2
b0004010:	e28d0003 	add	r0, sp, #3	; 0x3
b0004014:	ebffffaf 	bl	b0003ed8 <dht11_read>
b0004018:	e31000ff 	tst	r0, #255	; 0xff
b000401c:	e59f001c 	ldr	r0, [pc, #28]	; b0004040 <.text+0x4040>
b0004020:	0a000001 	beq	b000402c <dht11_test+0x2c>
b0004024:	eb0003d7 	bl	b0004f88 <printf>
b0004028:	eafffff6 	b	b0004008 <dht11_test+0x8>
b000402c:	e5dd1003 	ldrb	r1, [sp, #3]
b0004030:	e5dd2002 	ldrb	r2, [sp, #2]
b0004034:	e59f0008 	ldr	r0, [pc, #8]	; b0004044 <.text+0x4044>
b0004038:	eb0003d2 	bl	b0004f88 <printf>
b000403c:	eafffff2 	b	b000400c <dht11_test+0xc>
b0004040:	b0008df8 	strltd	r8, [r0], -r8
b0004044:	b0008e0c 	andlt	r8, r0, ip, lsl #28

b0004048 <set_io_as_input>:
b0004048:	e59f200c 	ldr	r2, [pc, #12]	; b000405c <.text+0x405c>
b000404c:	e5923000 	ldr	r3, [r2]
b0004050:	e3c33803 	bic	r3, r3, #196608	; 0x30000
b0004054:	e5823000 	str	r3, [r2]
b0004058:	e1a0f00e 	mov	pc, lr
b000405c:	7f008830 	swivc	0x00008830

b0004060 <set_io_as_output>:
b0004060:	e59f3018 	ldr	r3, [pc, #24]	; b0004080 <.text+0x4080>
b0004064:	e5932000 	ldr	r2, [r3]
b0004068:	e3c22803 	bic	r2, r2, #196608	; 0x30000
b000406c:	e5832000 	str	r2, [r3]
b0004070:	e5932000 	ldr	r2, [r3]
b0004074:	e3822801 	orr	r2, r2, #65536	; 0x10000
b0004078:	e5832000 	str	r2, [r3]
b000407c:	e1a0f00e 	mov	pc, lr
b0004080:	7f008830 	swivc	0x00008830

b0004084 <set_data>:
b0004084:	e59f101c 	ldr	r1, [pc, #28]	; b00040a8 <.text+0x40a8>
b0004088:	e31000ff 	tst	r0, #255	; 0xff
b000408c:	15913000 	ldrne	r3, [r1]
b0004090:	05913000 	ldreq	r3, [r1]
b0004094:	13833c01 	orrne	r3, r3, #256	; 0x100
b0004098:	03c33c01 	biceq	r3, r3, #256	; 0x100
b000409c:	15813000 	strne	r3, [r1]
b00040a0:	05813000 	streq	r3, [r1]
b00040a4:	e1a0f00e 	mov	pc, lr
b00040a8:	7f008834 	swivc	0x00008834

b00040ac <get_data>:
b00040ac:	e59f300c 	ldr	r3, [pc, #12]	; b00040c0 <.text+0x40c0>
b00040b0:	e5930000 	ldr	r0, [r3]
b00040b4:	e2100c01 	ands	r0, r0, #256	; 0x100
b00040b8:	13a00001 	movne	r0, #1	; 0x1
b00040bc:	e1a0f00e 	mov	pc, lr
b00040c0:	7f008834 	swivc	0x00008834

b00040c4 <wait_for_updown>:
b00040c4:	e92d4030 	stmdb	sp!, {r4, r5, lr}
b00040c8:	e2414001 	sub	r4, r1, #1	; 0x1
b00040cc:	e3740001 	cmn	r4, #1	; 0x1
b00040d0:	e20050ff 	and	r5, r0, #255	; 0xff
b00040d4:	0a00000b 	beq	b0004108 <wait_for_updown+0x44>
b00040d8:	ebfffff3 	bl	b00040ac <get_data>
b00040dc:	e1a03000 	mov	r3, r0
b00040e0:	e20330ff 	and	r3, r3, #255	; 0xff
b00040e4:	e1530005 	cmp	r3, r5
b00040e8:	e2444001 	sub	r4, r4, #1	; 0x1
b00040ec:	e3a00001 	mov	r0, #1	; 0x1
b00040f0:	1a000001 	bne	b00040fc <wait_for_updown+0x38>
b00040f4:	e2400001 	sub	r0, r0, #1	; 0x1
b00040f8:	e8bd8030 	ldmia	sp!, {r4, r5, pc}
b00040fc:	ebfff4b6 	bl	b00013dc <udelay>
b0004100:	e3740001 	cmn	r4, #1	; 0x1
b0004104:	eafffff2 	b	b00040d4 <wait_for_updown+0x10>
b0004108:	e3a000ff 	mov	r0, #255	; 0xff
b000410c:	e8bd8030 	ldmia	sp!, {r4, r5, pc}

b0004110 <ds18b20_init>:
b0004110:	e92d4010 	stmdb	sp!, {r4, lr}
b0004114:	ebffffd1 	bl	b0004060 <set_io_as_output>
b0004118:	e59f3054 	ldr	r3, [pc, #84]	; b0004174 <.text+0x4174>
b000411c:	e5932000 	ldr	r2, [r3]
b0004120:	e3822802 	orr	r2, r2, #131072	; 0x20000
b0004124:	e5832000 	str	r2, [r3]
b0004128:	e3a00000 	mov	r0, #0	; 0x0
b000412c:	ebffffd4 	bl	b0004084 <set_data>
b0004130:	e3a00f7d 	mov	r0, #500	; 0x1f4
b0004134:	ebfff4a8 	bl	b00013dc <udelay>
b0004138:	ebffffc2 	bl	b0004048 <set_io_as_input>
b000413c:	e3a01e1e 	mov	r1, #480	; 0x1e0
b0004140:	e3a00000 	mov	r0, #0	; 0x0
b0004144:	ebffffde 	bl	b00040c4 <wait_for_updown>
b0004148:	e1a03000 	mov	r3, r0
b000414c:	e21340ff 	ands	r4, r3, #255	; 0xff
b0004150:	e59f0020 	ldr	r0, [pc, #32]	; b0004178 <.text+0x4178>
b0004154:	0a000002 	beq	b0004164 <ds18b20_init+0x54>
b0004158:	eb00038a 	bl	b0004f88 <printf>
b000415c:	e3a000ff 	mov	r0, #255	; 0xff
b0004160:	e8bd8010 	ldmia	sp!, {r4, pc}
b0004164:	e3a00e19 	mov	r0, #400	; 0x190
b0004168:	ebfff49b 	bl	b00013dc <udelay>
b000416c:	e1a00004 	mov	r0, r4
b0004170:	e8bd8010 	ldmia	sp!, {r4, pc}
b0004174:	7f008838 	swivc	0x00008838
b0004178:	b0008e34 	andlt	r8, r0, r4, lsr lr

b000417c <ds18b20_write_byte>:
b000417c:	e92d4030 	stmdb	sp!, {r4, r5, lr}
b0004180:	e20040ff 	and	r4, r0, #255	; 0xff
b0004184:	e3a05007 	mov	r5, #7	; 0x7
b0004188:	ebffffb4 	bl	b0004060 <set_io_as_output>
b000418c:	e3a00000 	mov	r0, #0	; 0x0
b0004190:	ebffffbb 	bl	b0004084 <set_data>
b0004194:	e3a00001 	mov	r0, #1	; 0x1
b0004198:	ebfff48f 	bl	b00013dc <udelay>
b000419c:	e2040001 	and	r0, r4, #1	; 0x1
b00041a0:	ebffffb7 	bl	b0004084 <set_data>
b00041a4:	e3a0003c 	mov	r0, #60	; 0x3c
b00041a8:	ebfff48b 	bl	b00013dc <udelay>
b00041ac:	e3a00001 	mov	r0, #1	; 0x1
b00041b0:	ebffffb3 	bl	b0004084 <set_data>
b00041b4:	e3a00001 	mov	r0, #1	; 0x1
b00041b8:	ebfff487 	bl	b00013dc <udelay>
b00041bc:	e2555001 	subs	r5, r5, #1	; 0x1
b00041c0:	e1a040a4 	mov	r4, r4, lsr #1
b00041c4:	5affffef 	bpl	b0004188 <ds18b20_write_byte+0xc>
b00041c8:	e8bd4030 	ldmia	sp!, {r4, r5, lr}
b00041cc:	eaffff9d 	b	b0004048 <set_io_as_input>

b00041d0 <ds18b20_read_byte>:
b00041d0:	e92d4030 	stmdb	sp!, {r4, r5, lr}
b00041d4:	e3a05000 	mov	r5, #0	; 0x0
b00041d8:	e1a04005 	mov	r4, r5
b00041dc:	ebffff9f 	bl	b0004060 <set_io_as_output>
b00041e0:	e3a00000 	mov	r0, #0	; 0x0
b00041e4:	ebffffa6 	bl	b0004084 <set_data>
b00041e8:	e3a00002 	mov	r0, #2	; 0x2
b00041ec:	ebfff47a 	bl	b00013dc <udelay>
b00041f0:	ebffff94 	bl	b0004048 <set_io_as_input>
b00041f4:	e3a00008 	mov	r0, #8	; 0x8
b00041f8:	ebfff477 	bl	b00013dc <udelay>
b00041fc:	ebffffaa 	bl	b00040ac <get_data>
b0004200:	e3a03001 	mov	r3, #1	; 0x1
b0004204:	e31000ff 	tst	r0, #255	; 0xff
b0004208:	e1853413 	orr	r3, r5, r3, lsl r4
b000420c:	e3a00005 	mov	r0, #5	; 0x5
b0004210:	120350ff 	andne	r5, r3, #255	; 0xff
b0004214:	ebfff470 	bl	b00013dc <udelay>
b0004218:	e3a00001 	mov	r0, #1	; 0x1
b000421c:	ebffff98 	bl	b0004084 <set_data>
b0004220:	e2844001 	add	r4, r4, #1	; 0x1
b0004224:	e3a0003c 	mov	r0, #60	; 0x3c
b0004228:	ebfff46b 	bl	b00013dc <udelay>
b000422c:	e3540007 	cmp	r4, #7	; 0x7
b0004230:	daffffe9 	ble	b00041dc <ds18b20_read_byte+0xc>
b0004234:	ebffff83 	bl	b0004048 <set_io_as_input>
b0004238:	e1a00005 	mov	r0, r5
b000423c:	e8bd8030 	ldmia	sp!, {r4, r5, pc}

b0004240 <ds18b20_write_command>:
b0004240:	e20000ff 	and	r0, r0, #255	; 0xff
b0004244:	eaffffcc 	b	b000417c <ds18b20_write_byte>

b0004248 <CRC8_Table>:
b0004248:	e21110ff 	ands	r1, r1, #255	; 0xff
b000424c:	e1a0c000 	mov	ip, r0
b0004250:	e3a00000 	mov	r0, #0	; 0x0
b0004254:	01a0f00e 	moveq	pc, lr
b0004258:	e2412001 	sub	r2, r1, #1	; 0x1
b000425c:	e4dc3001 	ldrb	r3, [ip], #1
b0004260:	e21210ff 	ands	r1, r2, #255	; 0xff
b0004264:	e59f200c 	ldr	r2, [pc, #12]	; b0004278 <.text+0x4278>
b0004268:	e0203003 	eor	r3, r0, r3
b000426c:	e7d20003 	ldrb	r0, [r2, r3]
b0004270:	1afffff8 	bne	b0004258 <CRC8_Table+0x10>
b0004274:	e1a0f00e 	mov	pc, lr
b0004278:	b0009028 	andlt	r9, r0, r8, lsr #32

b000427c <ds18b20_read_rom>:
b000427c:	e92d4070 	stmdb	sp!, {r4, r5, r6, lr}
b0004280:	e24dd01c 	sub	sp, sp, #28	; 0x1c
b0004284:	ebffffa1 	bl	b0004110 <ds18b20_init>
b0004288:	e31000ff 	tst	r0, #255	; 0xff
b000428c:	1a00001d 	bne	b0004308 <ds18b20_read_rom+0x8c>
b0004290:	e3a00033 	mov	r0, #51	; 0x33
b0004294:	ebffffe9 	bl	b0004240 <ds18b20_write_command>
b0004298:	e28d5014 	add	r5, sp, #20	; 0x14
b000429c:	e3a04007 	mov	r4, #7	; 0x7
b00042a0:	ebffffca 	bl	b00041d0 <ds18b20_read_byte>
b00042a4:	e2544001 	subs	r4, r4, #1	; 0x1
b00042a8:	e4c50001 	strb	r0, [r5], #1
b00042ac:	5afffffb 	bpl	b00042a0 <ds18b20_read_rom+0x24>
b00042b0:	e28d0014 	add	r0, sp, #20	; 0x14
b00042b4:	e3a01007 	mov	r1, #7	; 0x7
b00042b8:	ebffffe2 	bl	b0004248 <CRC8_Table>
b00042bc:	e5dd301b 	ldrb	r3, [sp, #27]
b00042c0:	e20000ff 	and	r0, r0, #255	; 0xff
b00042c4:	e1530000 	cmp	r3, r0
b00042c8:	159f0040 	ldrne	r0, [pc, #64]	; b0004310 <.text+0x4310>
b00042cc:	1b00032d 	blne	b0004f88 <printf>
b00042d0:	e5ddc017 	ldrb	ip, [sp, #23]
b00042d4:	e5dde018 	ldrb	lr, [sp, #24]
b00042d8:	e5dd4019 	ldrb	r4, [sp, #25]
b00042dc:	e5dd501a 	ldrb	r5, [sp, #26]
b00042e0:	e5dd601b 	ldrb	r6, [sp, #27]
b00042e4:	e5dd1014 	ldrb	r1, [sp, #20]
b00042e8:	e5dd2015 	ldrb	r2, [sp, #21]
b00042ec:	e5dd3016 	ldrb	r3, [sp, #22]
b00042f0:	e59f001c 	ldr	r0, [pc, #28]	; b0004314 <.text+0x4314>
b00042f4:	e88d5000 	stmia	sp, {ip, lr}
b00042f8:	e58d4008 	str	r4, [sp, #8]
b00042fc:	e58d500c 	str	r5, [sp, #12]
b0004300:	e58d6010 	str	r6, [sp, #16]
b0004304:	eb00031f 	bl	b0004f88 <printf>
b0004308:	e28dd01c 	add	sp, sp, #28	; 0x1c
b000430c:	e8bd8070 	ldmia	sp!, {r4, r5, r6, pc}
b0004310:	b0008e50 	andlt	r8, r0, r0, asr lr
b0004314:	b0008e60 	andlt	r8, r0, r0, ror #28

b0004318 <ds18b20_test>:
b0004318:	e92d45f0 	stmdb	sp!, {r4, r5, r6, r7, r8, sl, lr}
b000431c:	e24dd070 	sub	sp, sp, #112	; 0x70
b0004320:	ebffff48 	bl	b0004048 <set_io_as_input>
b0004324:	ebffffd4 	bl	b000427c <ds18b20_read_rom>
b0004328:	e59f02d4 	ldr	r0, [pc, #724]	; b0004604 <.text+0x4604>
b000432c:	eb000315 	bl	b0004f88 <printf>
b0004330:	eb000358 	bl	b0005098 <get_int>
b0004334:	e3500009 	cmp	r0, #9	; 0x9
b0004338:	03a0301f 	moveq	r3, #31	; 0x1f
b000433c:	0a000005 	beq	b0004358 <ds18b20_test+0x40>
b0004340:	e350000a 	cmp	r0, #10	; 0xa
b0004344:	03a0303f 	moveq	r3, #63	; 0x3f
b0004348:	0a000002 	beq	b0004358 <ds18b20_test+0x40>
b000434c:	e350000b 	cmp	r0, #11	; 0xb
b0004350:	03a0305f 	moveq	r3, #95	; 0x5f
b0004354:	13a0307f 	movne	r3, #127	; 0x7f
b0004358:	e5cd306e 	strb	r3, [sp, #110]
b000435c:	ebffff6b 	bl	b0004110 <ds18b20_init>
b0004360:	e21040ff 	ands	r4, r0, #255	; 0xff
b0004364:	e28d606c 	add	r6, sp, #108	; 0x6c
b0004368:	13a030ff 	movne	r3, #255	; 0xff
b000436c:	1a000009 	bne	b0004398 <ds18b20_test+0x80>
b0004370:	e3a000cc 	mov	r0, #204	; 0xcc
b0004374:	ebffffb1 	bl	b0004240 <ds18b20_write_command>
b0004378:	e3a0004e 	mov	r0, #78	; 0x4e
b000437c:	ebffffaf 	bl	b0004240 <ds18b20_write_command>
b0004380:	e7d60004 	ldrb	r0, [r6, r4]
b0004384:	e2844001 	add	r4, r4, #1	; 0x1
b0004388:	ebffff7b 	bl	b000417c <ds18b20_write_byte>
b000438c:	e3540002 	cmp	r4, #2	; 0x2
b0004390:	dafffffa 	ble	b0004380 <ds18b20_test+0x68>
b0004394:	e3a03000 	mov	r3, #0	; 0x0
b0004398:	e3530000 	cmp	r3, #0	; 0x0
b000439c:	159f0264 	ldrne	r0, [pc, #612]	; b0004608 <.text+0x4608>
b00043a0:	1a00000c 	bne	b00043d8 <ds18b20_test+0xc0>
b00043a4:	ebffff59 	bl	b0004110 <ds18b20_init>
b00043a8:	e31000ff 	tst	r0, #255	; 0xff
b00043ac:	1a00000a 	bne	b00043dc <ds18b20_test+0xc4>
b00043b0:	e3a000cc 	mov	r0, #204	; 0xcc
b00043b4:	ebffffa1 	bl	b0004240 <ds18b20_write_command>
b00043b8:	e3a00048 	mov	r0, #72	; 0x48
b00043bc:	ebffff9f 	bl	b0004240 <ds18b20_write_command>
b00043c0:	e3a00001 	mov	r0, #1	; 0x1
b00043c4:	e59f1240 	ldr	r1, [pc, #576]	; b000460c <.text+0x460c>
b00043c8:	ebffff3d 	bl	b00040c4 <wait_for_updown>
b00043cc:	e31000ff 	tst	r0, #255	; 0xff
b00043d0:	0a000001 	beq	b00043dc <ds18b20_test+0xc4>
b00043d4:	e59f0234 	ldr	r0, [pc, #564]	; b0004610 <.text+0x4610>
b00043d8:	eb0002ea 	bl	b0004f88 <printf>
b00043dc:	e28d5008 	add	r5, sp, #8	; 0x8
b00043e0:	e59f122c 	ldr	r1, [pc, #556]	; b0004614 <.text+0x4614>
b00043e4:	e3a02058 	mov	r2, #88	; 0x58
b00043e8:	e1a00005 	mov	r0, r5
b00043ec:	eb000444 	bl	b0005504 <memcpy>
b00043f0:	ebffff46 	bl	b0004110 <ds18b20_init>
b00043f4:	e31000ff 	tst	r0, #255	; 0xff
b00043f8:	e1a0a00d 	mov	sl, sp
b00043fc:	e28f7e1f 	add	r7, pc, #496	; 0x1f0
b0004400:	e8970180 	ldmia	r7, {r7, r8}
b0004404:	1a00000c 	bne	b000443c <ds18b20_test+0x124>
b0004408:	e3a000cc 	mov	r0, #204	; 0xcc
b000440c:	ebffff8b 	bl	b0004240 <ds18b20_write_command>
b0004410:	e3a00044 	mov	r0, #68	; 0x44
b0004414:	ebffff89 	bl	b0004240 <ds18b20_write_command>
b0004418:	e59f01f8 	ldr	r0, [pc, #504]	; b0004618 <.text+0x4618>
b000441c:	ebfff3ee 	bl	b00013dc <udelay>
b0004420:	e3a00001 	mov	r0, #1	; 0x1
b0004424:	e59f11f0 	ldr	r1, [pc, #496]	; b000461c <.text+0x461c>
b0004428:	ebffff25 	bl	b00040c4 <wait_for_updown>
b000442c:	e21000ff 	ands	r0, r0, #255	; 0xff
b0004430:	0a000002 	beq	b0004440 <ds18b20_test+0x128>
b0004434:	e59f01e4 	ldr	r0, [pc, #484]	; b0004620 <.text+0x4620>
b0004438:	eb0002d2 	bl	b0004f88 <printf>
b000443c:	e3a000ff 	mov	r0, #255	; 0xff
b0004440:	e3500000 	cmp	r0, #0	; 0x0
b0004444:	1a00001a 	bne	b00044b4 <ds18b20_test+0x19c>
b0004448:	ebffff30 	bl	b0004110 <ds18b20_init>
b000444c:	e21040ff 	ands	r4, r0, #255	; 0xff
b0004450:	e28d6060 	add	r6, sp, #96	; 0x60
b0004454:	1a000012 	bne	b00044a4 <ds18b20_test+0x18c>
b0004458:	e3a000cc 	mov	r0, #204	; 0xcc
b000445c:	ebffff77 	bl	b0004240 <ds18b20_write_command>
b0004460:	e3a000be 	mov	r0, #190	; 0xbe
b0004464:	ebffff75 	bl	b0004240 <ds18b20_write_command>
b0004468:	ebffff58 	bl	b00041d0 <ds18b20_read_byte>
b000446c:	e7c60004 	strb	r0, [r6, r4]
b0004470:	e2844001 	add	r4, r4, #1	; 0x1
b0004474:	e3540008 	cmp	r4, #8	; 0x8
b0004478:	dafffffa 	ble	b0004468 <ds18b20_test+0x150>
b000447c:	e1a00006 	mov	r0, r6
b0004480:	e3a01008 	mov	r1, #8	; 0x8
b0004484:	ebffff6f 	bl	b0004248 <CRC8_Table>
b0004488:	e5d63008 	ldrb	r3, [r6, #8]
b000448c:	e20000ff 	and	r0, r0, #255	; 0xff
b0004490:	e1530000 	cmp	r3, r0
b0004494:	03a03000 	moveq	r3, #0	; 0x0
b0004498:	0a000002 	beq	b00044a8 <ds18b20_test+0x190>
b000449c:	e59f0180 	ldr	r0, [pc, #384]	; b0004624 <.text+0x4624>
b00044a0:	eb0002b8 	bl	b0004f88 <printf>
b00044a4:	e3a030ff 	mov	r3, #255	; 0xff
b00044a8:	e20320ff 	and	r2, r3, #255	; 0xff
b00044ac:	e3520000 	cmp	r2, #0	; 0x0
b00044b0:	0a000001 	beq	b00044bc <ds18b20_test+0x1a4>
b00044b4:	e3a030ff 	mov	r3, #255	; 0xff
b00044b8:	ea000034 	b	b0004590 <ds18b20_test+0x278>
b00044bc:	e5dd3064 	ldrb	r3, [sp, #100]
b00044c0:	e2133060 	ands	r3, r3, #96	; 0x60
b00044c4:	03a04003 	moveq	r4, #3	; 0x3
b00044c8:	0a000005 	beq	b00044e4 <ds18b20_test+0x1cc>
b00044cc:	e3530020 	cmp	r3, #32	; 0x20
b00044d0:	03a04002 	moveq	r4, #2	; 0x2
b00044d4:	0a000002 	beq	b00044e4 <ds18b20_test+0x1cc>
b00044d8:	e3530040 	cmp	r3, #64	; 0x40
b00044dc:	11a04002 	movne	r4, r2
b00044e0:	03a04001 	moveq	r4, #1	; 0x1
b00044e4:	e0856184 	add	r6, r5, r4, lsl #3
b00044e8:	e5dd3060 	ldrb	r3, [sp, #96]
b00044ec:	e1a03453 	mov	r3, r3, asr r4
b00044f0:	e3130001 	tst	r3, #1	; 0x1
b00044f4:	e1a01008 	mov	r1, r8
b00044f8:	e1a00007 	mov	r0, r7
b00044fc:	e2844001 	add	r4, r4, #1	; 0x1
b0004500:	0a000003 	beq	b0004514 <ds18b20_test+0x1fc>
b0004504:	e896000c 	ldmia	r6, {r2, r3}
b0004508:	eb000901 	bl	b0006914 <__adddf3>
b000450c:	e1a08001 	mov	r8, r1
b0004510:	e1a07000 	mov	r7, r0
b0004514:	e3540007 	cmp	r4, #7	; 0x7
b0004518:	e2866008 	add	r6, r6, #8	; 0x8
b000451c:	dafffff1 	ble	b00044e8 <ds18b20_test+0x1d0>
b0004520:	e3a04000 	mov	r4, #0	; 0x0
b0004524:	e28d3008 	add	r3, sp, #8	; 0x8
b0004528:	e5dd6061 	ldrb	r6, [sp, #97]
b000452c:	e0833184 	add	r3, r3, r4, lsl #3
b0004530:	e2832040 	add	r2, r3, #64	; 0x40
b0004534:	e1a03456 	mov	r3, r6, asr r4
b0004538:	e3130001 	tst	r3, #1	; 0x1
b000453c:	e1a01008 	mov	r1, r8
b0004540:	e1a00007 	mov	r0, r7
b0004544:	e2844001 	add	r4, r4, #1	; 0x1
b0004548:	0a000003 	beq	b000455c <ds18b20_test+0x244>
b000454c:	e892000c 	ldmia	r2, {r2, r3}
b0004550:	eb0008ef 	bl	b0006914 <__adddf3>
b0004554:	e1a08001 	mov	r8, r1
b0004558:	e1a07000 	mov	r7, r0
b000455c:	e3540002 	cmp	r4, #2	; 0x2
b0004560:	daffffef 	ble	b0004524 <ds18b20_test+0x20c>
b0004564:	e3160008 	tst	r6, #8	; 0x8
b0004568:	0a000006 	beq	b0004588 <ds18b20_test+0x270>
b000456c:	e1a03008 	mov	r3, r8
b0004570:	e1a02007 	mov	r2, r7
b0004574:	e28f0078 	add	r0, pc, #120	; 0x78
b0004578:	e8900003 	ldmia	r0, {r0, r1}
b000457c:	eb0008e3 	bl	b0006910 <__subdf3>
b0004580:	e1a08001 	mov	r8, r1
b0004584:	e1a07000 	mov	r7, r0
b0004588:	e88a0180 	stmia	sl, {r7, r8}
b000458c:	e3a03000 	mov	r3, #0	; 0x0
b0004590:	e3530000 	cmp	r3, #0	; 0x0
b0004594:	1affff90 	bne	b00043dc <ds18b20_test+0xc4>
b0004598:	e89a0030 	ldmia	sl, {r4, r5}
b000459c:	e1a01005 	mov	r1, r5
b00045a0:	e1a00004 	mov	r0, r4
b00045a4:	eb000b1b 	bl	b0007218 <__fixdfsi>
b00045a8:	e1a06000 	mov	r6, r0
b00045ac:	eb00099b 	bl	b0006c20 <__floatsidf>
b00045b0:	e1a03001 	mov	r3, r1
b00045b4:	e1a02000 	mov	r2, r0
b00045b8:	e1a01005 	mov	r1, r5
b00045bc:	e1a00004 	mov	r0, r4
b00045c0:	eb0008d2 	bl	b0006910 <__subdf3>
b00045c4:	e28f2030 	add	r2, pc, #48	; 0x30
b00045c8:	e892000c 	ldmia	r2, {r2, r3}
b00045cc:	e1a05001 	mov	r5, r1
b00045d0:	e1a04000 	mov	r4, r0
b00045d4:	e88a0030 	stmia	sl, {r4, r5}
b00045d8:	eb0009ae 	bl	b0006c98 <__muldf3>
b00045dc:	eb000b0d 	bl	b0007218 <__fixdfsi>
b00045e0:	e1a01006 	mov	r1, r6
b00045e4:	e1a02000 	mov	r2, r0
b00045e8:	e59f0038 	ldr	r0, [pc, #56]	; b0004628 <.text+0x4628>
b00045ec:	eb000265 	bl	b0004f88 <printf>
b00045f0:	eaffff79 	b	b00043dc <ds18b20_test+0xc4>
	...
b00045fc:	40c38800 	sbcmi	r8, r3, r0, lsl #16
b0004600:	00000000 	andeq	r0, r0, r0
b0004604:	b0008e98 	mullt	r0, r8, lr
b0004608:	b0008eb8 	strlth	r8, [r0], -r8
b000460c:	001e8480 	andeqs	r8, lr, r0, lsl #9
b0004610:	b0008ecc 	andlt	r8, r0, ip, asr #29
b0004614:	b0008874 	andlt	r8, r0, r4, ror r8
b0004618:	000b71b0 	streqh	r7, [fp], -r0
b000461c:	000f4240 	andeq	r4, pc, r0, asr #4
b0004620:	b0008eec 	andlt	r8, r0, ip, ror #29
b0004624:	b0008f04 	andlt	r8, r0, r4, lsl #30
b0004628:	b0008f14 	andlt	r8, r0, r4, lsl pc

b000462c <is_ir_event_buf_empty>:
b000462c:	e59f3018 	ldr	r3, [pc, #24]	; b000464c <.text+0x464c>
b0004630:	e5932000 	ldr	r2, [r3]
b0004634:	e59f3014 	ldr	r3, [pc, #20]	; b0004650 <.text+0x4650>
b0004638:	e5930000 	ldr	r0, [r3]
b000463c:	e1520000 	cmp	r2, r0
b0004640:	13a00000 	movne	r0, #0	; 0x0
b0004644:	03a00001 	moveq	r0, #1	; 0x1
b0004648:	e1a0f00e 	mov	pc, lr
b000464c:	b000932c 	andlt	r9, r0, ip, lsr #6
b0004650:	b0009330 	andlt	r9, r0, r0, lsr r3

b0004654 <ir_event_put>:
b0004654:	e92d4030 	stmdb	sp!, {r4, r5, lr}
b0004658:	e59fe048 	ldr	lr, [pc, #72]	; b00046a8 <.text+0x46a8>
b000465c:	e59f2048 	ldr	r2, [pc, #72]	; b00046ac <.text+0x46ac>
b0004660:	e59e3000 	ldr	r3, [lr]
b0004664:	e082c183 	add	ip, r2, r3, lsl #3
b0004668:	e2833001 	add	r3, r3, #1	; 0x1
b000466c:	e1a02b03 	mov	r2, r3, lsl #22
b0004670:	e59f3038 	ldr	r3, [pc, #56]	; b00046b0 <.text+0x46b0>
b0004674:	e5933000 	ldr	r3, [r3]
b0004678:	e1a02b22 	mov	r2, r2, lsr #22
b000467c:	e1520003 	cmp	r2, r3
b0004680:	13a03000 	movne	r3, #0	; 0x0
b0004684:	03a03001 	moveq	r3, #1	; 0x1
b0004688:	e3530000 	cmp	r3, #0	; 0x0
b000468c:	e3a010ff 	mov	r1, #255	; 0xff
b0004690:	08900030 	ldmeqia	r0, {r4, r5}
b0004694:	088c0030 	stmeqia	ip, {r4, r5}
b0004698:	01a01003 	moveq	r1, r3
b000469c:	058e2000 	streq	r2, [lr]
b00046a0:	e1a00001 	mov	r0, r1
b00046a4:	e8bd8030 	ldmia	sp!, {r4, r5, pc}
b00046a8:	b0009330 	andlt	r9, r0, r0, lsr r3
b00046ac:	b0009334 	andlt	r9, r0, r4, lsr r3
b00046b0:	b000932c 	andlt	r9, r0, ip, lsr #6

b00046b4 <ir_event_get_timeout>:
b00046b4:	e92d4070 	stmdb	sp!, {r4, r5, r6, lr}
b00046b8:	e1a04000 	mov	r4, r0
b00046bc:	ebffffda 	bl	b000462c <is_ir_event_buf_empty>
b00046c0:	e1a03000 	mov	r3, r0
b00046c4:	e213c0ff 	ands	ip, r3, #255	; 0xff
b00046c8:	e3a00001 	mov	r0, #1	; 0x1
b00046cc:	0a000001 	beq	b00046d8 <ir_event_get_timeout+0x24>
b00046d0:	ebfff341 	bl	b00013dc <udelay>
b00046d4:	eafffff8 	b	b00046bc <ir_event_get_timeout+0x8>
b00046d8:	e59f0028 	ldr	r0, [pc, #40]	; b0004708 <.text+0x4708>
b00046dc:	e59f3028 	ldr	r3, [pc, #40]	; b000470c <.text+0x470c>
b00046e0:	e5901000 	ldr	r1, [r0]
b00046e4:	e2812001 	add	r2, r1, #1	; 0x1
b00046e8:	e0833181 	add	r3, r3, r1, lsl #3
b00046ec:	e8930060 	ldmia	r3, {r5, r6}
b00046f0:	e1a02b02 	mov	r2, r2, lsl #22
b00046f4:	e1a02b22 	mov	r2, r2, lsr #22
b00046f8:	e8840060 	stmia	r4, {r5, r6}
b00046fc:	e5802000 	str	r2, [r0]
b0004700:	e1a0000c 	mov	r0, ip
b0004704:	e8bd8070 	ldmia	sp!, {r4, r5, r6, pc}
b0004708:	b000932c 	andlt	r9, r0, ip, lsr #6
b000470c:	b0009334 	andlt	r9, r0, r4, lsr r3

b0004710 <ir_event_get>:
b0004710:	e92d4010 	stmdb	sp!, {r4, lr}
b0004714:	e1a04000 	mov	r4, r0
b0004718:	ebffffc3 	bl	b000462c <is_ir_event_buf_empty>
b000471c:	e210c0ff 	ands	ip, r0, #255	; 0xff
b0004720:	e59fe030 	ldr	lr, [pc, #48]	; b0004758 <.text+0x4758>
b0004724:	e3a000ff 	mov	r0, #255	; 0xff
b0004728:	18bd8010 	ldmneia	sp!, {r4, pc}
b000472c:	e59e1000 	ldr	r1, [lr]
b0004730:	e59f3024 	ldr	r3, [pc, #36]	; b000475c <.text+0x475c>
b0004734:	e0833181 	add	r3, r3, r1, lsl #3
b0004738:	e2812001 	add	r2, r1, #1	; 0x1
b000473c:	e8930003 	ldmia	r3, {r0, r1}
b0004740:	e1a02b02 	mov	r2, r2, lsl #22
b0004744:	e8840003 	stmia	r4, {r0, r1}
b0004748:	e1a02b22 	mov	r2, r2, lsr #22
b000474c:	e1a0000c 	mov	r0, ip
b0004750:	e58e2000 	str	r2, [lr]
b0004754:	e8bd8010 	ldmia	sp!, {r4, pc}
b0004758:	b000932c 	andlt	r9, r0, ip, lsr #6
b000475c:	b0009334 	andlt	r9, r0, r4, lsr r3

b0004760 <irda_irq>:
b0004760:	e92d4070 	stmdb	sp!, {r4, r5, r6, lr}
b0004764:	e59f6060 	ldr	r6, [pc, #96]	; b00047cc <.text+0x47cc>
b0004768:	e24dd008 	sub	sp, sp, #8	; 0x8
b000476c:	ebfff331 	bl	b0001438 <get_system_time_us>
b0004770:	e1a03001 	mov	r3, r1
b0004774:	e1a02000 	mov	r2, r0
b0004778:	e1a05001 	mov	r5, r1
b000477c:	e1a04000 	mov	r4, r0
b0004780:	e8960003 	ldmia	r6, {r0, r1}
b0004784:	ebfff34a 	bl	b00014b4 <delta_time_us>
b0004788:	e58d0004 	str	r0, [sp, #4]
b000478c:	e59f303c 	ldr	r3, [pc, #60]	; b00047d0 <.text+0x47d0>
b0004790:	e1a0000d 	mov	r0, sp
b0004794:	e5933000 	ldr	r3, [r3]
b0004798:	e2133c01 	ands	r3, r3, #256	; 0x100
b000479c:	13a03001 	movne	r3, #1	; 0x1
b00047a0:	e2733001 	rsbs	r3, r3, #1	; 0x1
b00047a4:	33a03000 	movcc	r3, #0	; 0x0
b00047a8:	e58d3000 	str	r3, [sp]
b00047ac:	ebffffa8 	bl	b0004654 <ir_event_put>
b00047b0:	e59f201c 	ldr	r2, [pc, #28]	; b00047d4 <.text+0x47d4>
b00047b4:	e5923000 	ldr	r3, [r2]
b00047b8:	e3833c01 	orr	r3, r3, #256	; 0x100
b00047bc:	e8860030 	stmia	r6, {r4, r5}
b00047c0:	e5823000 	str	r3, [r2]
b00047c4:	e28dd008 	add	sp, sp, #8	; 0x8
b00047c8:	e8bd8070 	ldmia	sp!, {r4, r5, r6, pc}
b00047cc:	b000b334 	andlt	fp, r0, r4, lsr r3
b00047d0:	7f008834 	swivc	0x00008834
b00047d4:	7f008924 	swivc	0x00008924

b00047d8 <irda_init>:
b00047d8:	e52de004 	str	lr, [sp, #-4]!
b00047dc:	e59f2050 	ldr	r2, [pc, #80]	; b0004834 <.text+0x4834>
b00047e0:	e59fc050 	ldr	ip, [pc, #80]	; b0004838 <.text+0x4838>
b00047e4:	e59fe050 	ldr	lr, [pc, #80]	; b000483c <.text+0x483c>
b00047e8:	e59f1050 	ldr	r1, [pc, #80]	; b0004840 <.text+0x4840>
b00047ec:	e3a00001 	mov	r0, #1	; 0x1
b00047f0:	e5923000 	ldr	r3, [r2]
b00047f4:	e3c33803 	bic	r3, r3, #196608	; 0x30000
b00047f8:	e5823000 	str	r3, [r2]
b00047fc:	e5923000 	ldr	r3, [r2]
b0004800:	e3833802 	orr	r3, r3, #131072	; 0x20000
b0004804:	e48230f0 	str	r3, [r2], #240
b0004808:	e59c3000 	ldr	r3, [ip]
b000480c:	e3c33803 	bic	r3, r3, #196608	; 0x30000
b0004810:	e58c3000 	str	r3, [ip]
b0004814:	e59e3000 	ldr	r3, [lr]
b0004818:	e3833807 	orr	r3, r3, #458752	; 0x70000
b000481c:	e58e3000 	str	r3, [lr]
b0004820:	e5923000 	ldr	r3, [r2]
b0004824:	e3c33c01 	bic	r3, r3, #256	; 0x100
b0004828:	e5823000 	str	r3, [r2]
b000482c:	e49de004 	ldr	lr, [sp], #4
b0004830:	eafff1a0 	b	b0000eb8 <register_irq>
b0004834:	7f008830 	swivc	0x00008830
b0004838:	7f008838 	swivc	0x00008838
b000483c:	7f008900 	swivc	0x00008900
b0004840:	b0004760 	andlt	r4, r0, r0, ror #14

b0004844 <irda_raw_test>:
b0004844:	e92d40f0 	stmdb	sp!, {r4, r5, r6, r7, lr}
b0004848:	e3a07000 	mov	r7, #0	; 0x0
b000484c:	e3a06000 	mov	r6, #0	; 0x0
b0004850:	e24dd008 	sub	sp, sp, #8	; 0x8
b0004854:	ebffffdf 	bl	b00047d8 <irda_init>
b0004858:	e1a0000d 	mov	r0, sp
b000485c:	ebffffab 	bl	b0004710 <ir_event_get>
b0004860:	e31000ff 	tst	r0, #255	; 0xff
b0004864:	1afffffb 	bne	b0004858 <irda_raw_test+0x14>
b0004868:	ebfff2f2 	bl	b0001438 <get_system_time_us>
b000486c:	e1a05001 	mov	r5, r1
b0004870:	e1a04000 	mov	r4, r0
b0004874:	e1a03005 	mov	r3, r5
b0004878:	e1a02004 	mov	r2, r4
b000487c:	e1a01007 	mov	r1, r7
b0004880:	e1a00006 	mov	r0, r6
b0004884:	ebfff30a 	bl	b00014b4 <delta_time_us>
b0004888:	e59f3034 	ldr	r3, [pc, #52]	; b00048c4 <.text+0x48c4>
b000488c:	e1500003 	cmp	r0, r3
b0004890:	e1a07005 	mov	r7, r5
b0004894:	e1a06004 	mov	r6, r4
b0004898:	e59f0028 	ldr	r0, [pc, #40]	; b00048c8 <.text+0x48c8>
b000489c:	8b0001b9 	blhi	b0004f88 <printf>
b00048a0:	e59d2000 	ldr	r2, [sp]
b00048a4:	e59f3020 	ldr	r3, [pc, #32]	; b00048cc <.text+0x48cc>
b00048a8:	e3520000 	cmp	r2, #0	; 0x0
b00048ac:	e59f101c 	ldr	r1, [pc, #28]	; b00048d0 <.text+0x48d0>
b00048b0:	e59d2004 	ldr	r2, [sp, #4]
b00048b4:	01a01003 	moveq	r1, r3
b00048b8:	e59f0014 	ldr	r0, [pc, #20]	; b00048d4 <.text+0x48d4>
b00048bc:	eb0001b1 	bl	b0004f88 <printf>
b00048c0:	eaffffe4 	b	b0004858 <irda_raw_test+0x14>
b00048c4:	000f4240 	andeq	r4, pc, r0, asr #4
b00048c8:	b0008ca0 	andlt	r8, r0, r0, lsr #25
b00048cc:	b0008f34 	andlt	r8, r0, r4, lsr pc
b00048d0:	b0008f38 	andlt	r8, r0, r8, lsr pc
b00048d4:	b0008f4c 	andlt	r8, r0, ip, asr #30

b00048d8 <duration_in_margin>:
b00048d8:	e2813f4b 	add	r3, r1, #300	; 0x12c
b00048dc:	e2411f4b 	sub	r1, r1, #300	; 0x12c
b00048e0:	e1500001 	cmp	r0, r1
b00048e4:	da000002 	ble	b00048f4 <duration_in_margin+0x1c>
b00048e8:	e1500003 	cmp	r0, r3
b00048ec:	e3a00001 	mov	r0, #1	; 0x1
b00048f0:	b1a0f00e 	movlt	pc, lr
b00048f4:	e3a00000 	mov	r0, #0	; 0x0
b00048f8:	e1a0f00e 	mov	pc, lr

b00048fc <irda_nec_read>:
b00048fc:	e92d45f0 	stmdb	sp!, {r4, r5, r6, r7, r8, sl, lr}
b0004900:	e1a08000 	mov	r8, r0
b0004904:	e1a0a001 	mov	sl, r1
b0004908:	e3a06000 	mov	r6, #0	; 0x0
b000490c:	e24dd010 	sub	sp, sp, #16	; 0x10
b0004910:	e28d7004 	add	r7, sp, #4	; 0x4
b0004914:	e1a00007 	mov	r0, r7
b0004918:	ebffff7c 	bl	b0004710 <ir_event_get>
b000491c:	e31000ff 	tst	r0, #255	; 0xff
b0004920:	1afffffa 	bne	b0004910 <irda_nec_read+0x14>
b0004924:	e59d0008 	ldr	r0, [sp, #8]
b0004928:	e59f11f8 	ldr	r1, [pc, #504]	; b0004b28 <.text+0x4b28>
b000492c:	ebffffe9 	bl	b00048d8 <duration_in_margin>
b0004930:	e3500000 	cmp	r0, #0	; 0x0
b0004934:	0a000078 	beq	b0004b1c <irda_nec_read+0x220>
b0004938:	e1a00007 	mov	r0, r7
b000493c:	ebffff5c 	bl	b00046b4 <ir_event_get_timeout>
b0004940:	e2505000 	subs	r5, r0, #0	; 0x0
b0004944:	1a00006c 	bne	b0004afc <irda_nec_read+0x200>
b0004948:	e59d4008 	ldr	r4, [sp, #8]
b000494c:	e59f11d8 	ldr	r1, [pc, #472]	; b0004b2c <.text+0x4b2c>
b0004950:	e1a00004 	mov	r0, r4
b0004954:	ebffffdf 	bl	b00048d8 <duration_in_margin>
b0004958:	e3500000 	cmp	r0, #0	; 0x0
b000495c:	0a000057 	beq	b0004ac0 <irda_nec_read+0x1c4>
b0004960:	e1a00007 	mov	r0, r7
b0004964:	ebffff52 	bl	b00046b4 <ir_event_get_timeout>
b0004968:	e3500000 	cmp	r0, #0	; 0x0
b000496c:	e59f11bc 	ldr	r1, [pc, #444]	; b0004b30 <.text+0x4b30>
b0004970:	1a000025 	bne	b0004a0c <irda_nec_read+0x110>
b0004974:	e59d4008 	ldr	r4, [sp, #8]
b0004978:	e1a00004 	mov	r0, r4
b000497c:	ebffffd5 	bl	b00048d8 <duration_in_margin>
b0004980:	e3500000 	cmp	r0, #0	; 0x0
b0004984:	e1a00007 	mov	r0, r7
b0004988:	0a000013 	beq	b00049dc <irda_nec_read+0xe0>
b000498c:	ebffff48 	bl	b00046b4 <ir_event_get_timeout>
b0004990:	e3500000 	cmp	r0, #0	; 0x0
b0004994:	e59f1198 	ldr	r1, [pc, #408]	; b0004b34 <.text+0x4b34>
b0004998:	1a00001f 	bne	b0004a1c <irda_nec_read+0x120>
b000499c:	e59d4008 	ldr	r4, [sp, #8]
b00049a0:	e1a00004 	mov	r0, r4
b00049a4:	ebffffcb 	bl	b00048d8 <duration_in_margin>
b00049a8:	e3500000 	cmp	r0, #0	; 0x0
b00049ac:	13a03001 	movne	r3, #1	; 0x1
b00049b0:	e59f1178 	ldr	r1, [pc, #376]	; b0004b30 <.text+0x4b30>
b00049b4:	e1a00004 	mov	r0, r4
b00049b8:	11866513 	orrne	r6, r6, r3, lsl r5
b00049bc:	1a000016 	bne	b0004a1c <irda_nec_read+0x120>
b00049c0:	ebffffc4 	bl	b00048d8 <duration_in_margin>
b00049c4:	e3500000 	cmp	r0, #0	; 0x0
b00049c8:	1a000013 	bne	b0004a1c <irda_nec_read+0x120>
b00049cc:	e59f0164 	ldr	r0, [pc, #356]	; b0004b38 <.text+0x4b38>
b00049d0:	e59f1164 	ldr	r1, [pc, #356]	; b0004b3c <.text+0x4b3c>
b00049d4:	e3a0204f 	mov	r2, #79	; 0x4f
b00049d8:	ea00004e 	b	b0004b18 <irda_nec_read+0x21c>
b00049dc:	e59d2004 	ldr	r2, [sp, #4]
b00049e0:	e59f3158 	ldr	r3, [pc, #344]	; b0004b40 <.text+0x4b40>
b00049e4:	e3520000 	cmp	r2, #0	; 0x0
b00049e8:	e59f1154 	ldr	r1, [pc, #340]	; b0004b44 <.text+0x4b44>
b00049ec:	e1a02004 	mov	r2, r4
b00049f0:	01a01003 	moveq	r1, r3
b00049f4:	e59f014c 	ldr	r0, [pc, #332]	; b0004b48 <.text+0x4b48>
b00049f8:	eb000162 	bl	b0004f88 <printf>
b00049fc:	e59f0134 	ldr	r0, [pc, #308]	; b0004b38 <.text+0x4b38>
b0004a00:	e59f1134 	ldr	r1, [pc, #308]	; b0004b3c <.text+0x4b3c>
b0004a04:	e3a02058 	mov	r2, #88	; 0x58
b0004a08:	ea000042 	b	b0004b18 <irda_nec_read+0x21c>
b0004a0c:	e59f0124 	ldr	r0, [pc, #292]	; b0004b38 <.text+0x4b38>
b0004a10:	e59f1124 	ldr	r1, [pc, #292]	; b0004b3c <.text+0x4b3c>
b0004a14:	e3a0205e 	mov	r2, #94	; 0x5e
b0004a18:	ea00003e 	b	b0004b18 <irda_nec_read+0x21c>
b0004a1c:	e2855001 	add	r5, r5, #1	; 0x1
b0004a20:	e355001f 	cmp	r5, #31	; 0x1f
b0004a24:	daffffcd 	ble	b0004960 <irda_nec_read+0x64>
b0004a28:	e1a01c26 	mov	r1, r6, lsr #24
b0004a2c:	e5cd100f 	strb	r1, [sp, #15]
b0004a30:	e1a03426 	mov	r3, r6, lsr #8
b0004a34:	e1a02826 	mov	r2, r6, lsr #16
b0004a38:	e59f010c 	ldr	r0, [pc, #268]	; b0004b4c <.text+0x4b4c>
b0004a3c:	e5cd300d 	strb	r3, [sp, #13]
b0004a40:	e5ddc00f 	ldrb	ip, [sp, #15]
b0004a44:	e5cd200e 	strb	r2, [sp, #14]
b0004a48:	e5dd200d 	ldrb	r2, [sp, #13]
b0004a4c:	e5cd600c 	strb	r6, [sp, #12]
b0004a50:	e5dd300e 	ldrb	r3, [sp, #14]
b0004a54:	e5dd100c 	ldrb	r1, [sp, #12]
b0004a58:	e58dc000 	str	ip, [sp]
b0004a5c:	eb000149 	bl	b0004f88 <printf>
b0004a60:	e5dd300d 	ldrb	r3, [sp, #13]
b0004a64:	e1e03003 	mvn	r3, r3
b0004a68:	e5cd300d 	strb	r3, [sp, #13]
b0004a6c:	e5dd200f 	ldrb	r2, [sp, #15]
b0004a70:	e5dd100c 	ldrb	r1, [sp, #12]
b0004a74:	e5dd300d 	ldrb	r3, [sp, #13]
b0004a78:	e1e02002 	mvn	r2, r2
b0004a7c:	e1510003 	cmp	r1, r3
b0004a80:	e5cd200f 	strb	r2, [sp, #15]
b0004a84:	159f00ac 	ldrne	r0, [pc, #172]	; b0004b38 <.text+0x4b38>
b0004a88:	159f10ac 	ldrne	r1, [pc, #172]	; b0004b3c <.text+0x4b3c>
b0004a8c:	13a02070 	movne	r2, #112	; 0x70
b0004a90:	1a000020 	bne	b0004b18 <irda_nec_read+0x21c>
b0004a94:	e5dd200e 	ldrb	r2, [sp, #14]
b0004a98:	e5dd300f 	ldrb	r3, [sp, #15]
b0004a9c:	e1520003 	cmp	r2, r3
b0004aa0:	159f0090 	ldrne	r0, [pc, #144]	; b0004b38 <.text+0x4b38>
b0004aa4:	159f1090 	ldrne	r1, [pc, #144]	; b0004b3c <.text+0x4b3c>
b0004aa8:	13a02075 	movne	r2, #117	; 0x75
b0004aac:	1a000019 	bne	b0004b18 <irda_nec_read+0x21c>
b0004ab0:	e3a00000 	mov	r0, #0	; 0x0
b0004ab4:	e5881000 	str	r1, [r8]
b0004ab8:	e58a2000 	str	r2, [sl]
b0004abc:	ea000017 	b	b0004b20 <irda_nec_read+0x224>
b0004ac0:	e1a00004 	mov	r0, r4
b0004ac4:	e59f1084 	ldr	r1, [pc, #132]	; b0004b50 <.text+0x4b50>
b0004ac8:	ebffff82 	bl	b00048d8 <duration_in_margin>
b0004acc:	e3500000 	cmp	r0, #0	; 0x0
b0004ad0:	0a000005 	beq	b0004aec <irda_nec_read+0x1f0>
b0004ad4:	e59f005c 	ldr	r0, [pc, #92]	; b0004b38 <.text+0x4b38>
b0004ad8:	e59f105c 	ldr	r1, [pc, #92]	; b0004b3c <.text+0x4b3c>
b0004adc:	e3a02080 	mov	r2, #128	; 0x80
b0004ae0:	eb000128 	bl	b0004f88 <printf>
b0004ae4:	e3a00001 	mov	r0, #1	; 0x1
b0004ae8:	ea00000c 	b	b0004b20 <irda_nec_read+0x224>
b0004aec:	e59f0044 	ldr	r0, [pc, #68]	; b0004b38 <.text+0x4b38>
b0004af0:	e59f1044 	ldr	r1, [pc, #68]	; b0004b3c <.text+0x4b3c>
b0004af4:	e3a02085 	mov	r2, #133	; 0x85
b0004af8:	ea000006 	b	b0004b18 <irda_nec_read+0x21c>
b0004afc:	e59d2004 	ldr	r2, [sp, #4]
b0004b00:	e59f3038 	ldr	r3, [pc, #56]	; b0004b40 <.text+0x4b40>
b0004b04:	e3520000 	cmp	r2, #0	; 0x0
b0004b08:	e59f0038 	ldr	r0, [pc, #56]	; b0004b48 <.text+0x4b48>
b0004b0c:	e59d2008 	ldr	r2, [sp, #8]
b0004b10:	e59f102c 	ldr	r1, [pc, #44]	; b0004b44 <.text+0x4b44>
b0004b14:	01a01003 	moveq	r1, r3
b0004b18:	eb00011a 	bl	b0004f88 <printf>
b0004b1c:	e3e00000 	mvn	r0, #0	; 0x0
b0004b20:	e28dd010 	add	sp, sp, #16	; 0x10
b0004b24:	e8bd85f0 	ldmia	sp!, {r4, r5, r6, r7, r8, sl, pc}
b0004b28:	00002320 	andeq	r2, r0, r0, lsr #6
b0004b2c:	00001190 	muleq	r0, r0, r1
b0004b30:	00000232 	andeq	r0, r0, r2, lsr r2
b0004b34:	00000696 	muleq	r0, r6, r6
b0004b38:	b0008f40 	andlt	r8, r0, r0, asr #30
b0004b3c:	b00088cc 	andlt	r8, r0, ip, asr #17
b0004b40:	b0008f34 	andlt	r8, r0, r4, lsr pc
b0004b44:	b0008f38 	andlt	r8, r0, r8, lsr pc
b0004b48:	b0008f48 	andlt	r8, r0, r8, asr #30
b0004b4c:	b0008f58 	andlt	r8, r0, r8, asr pc
b0004b50:	000008c8 	andeq	r0, r0, r8, asr #17

b0004b54 <irda_nec_test>:
b0004b54:	e52de004 	str	lr, [sp, #-4]!
b0004b58:	e24dd008 	sub	sp, sp, #8	; 0x8
b0004b5c:	ebffff1d 	bl	b00047d8 <irda_init>
b0004b60:	e1a0100d 	mov	r1, sp
b0004b64:	e28d0004 	add	r0, sp, #4	; 0x4
b0004b68:	ebffff63 	bl	b00048fc <irda_nec_read>
b0004b6c:	e2503000 	subs	r3, r0, #0	; 0x0
b0004b70:	e59f0024 	ldr	r0, [pc, #36]	; b0004b9c <.text+0x4b9c>
b0004b74:	1a000003 	bne	b0004b88 <irda_nec_test+0x34>
b0004b78:	e59d1004 	ldr	r1, [sp, #4]
b0004b7c:	e59d2000 	ldr	r2, [sp]
b0004b80:	eb000100 	bl	b0004f88 <printf>
b0004b84:	eafffff5 	b	b0004b60 <irda_nec_test+0xc>
b0004b88:	e3530001 	cmp	r3, #1	; 0x1
b0004b8c:	e59f000c 	ldr	r0, [pc, #12]	; b0004ba0 <.text+0x4ba0>
b0004b90:	1afffff2 	bne	b0004b60 <irda_nec_test+0xc>
b0004b94:	eb0000fb 	bl	b0004f88 <printf>
b0004b98:	eafffff0 	b	b0004b60 <irda_nec_test+0xc>
b0004b9c:	b0008f70 	andlt	r8, r0, r0, ror pc
b0004ba0:	b0008fa0 	andlt	r8, r0, r0, lsr #31
	...

b0004bb0 <__udivsi3>:
b0004bb0:	e2512001 	subs	r2, r1, #1	; 0x1
b0004bb4:	01a0f00e 	moveq	pc, lr
b0004bb8:	3a0000e5 	bcc	b0004f54 <Ldiv0>
b0004bbc:	e1500001 	cmp	r0, r1
b0004bc0:	9a000022 	bls	b0004c50 <__udivsi3+0xa0>
b0004bc4:	e1110002 	tst	r1, r2
b0004bc8:	0a000023 	beq	b0004c5c <__udivsi3+0xac>
b0004bcc:	e311020e 	tst	r1, #-536870912	; 0xe0000000
b0004bd0:	01a01181 	moveq	r1, r1, lsl #3
b0004bd4:	03a03008 	moveq	r3, #8	; 0x8
b0004bd8:	13a03001 	movne	r3, #1	; 0x1
b0004bdc:	e3510201 	cmp	r1, #268435456	; 0x10000000
b0004be0:	31510000 	cmpcc	r1, r0
b0004be4:	31a01201 	movcc	r1, r1, lsl #4
b0004be8:	31a03203 	movcc	r3, r3, lsl #4
b0004bec:	3afffffa 	bcc	b0004bdc <__udivsi3+0x2c>
b0004bf0:	e3510102 	cmp	r1, #-2147483648	; 0x80000000
b0004bf4:	31510000 	cmpcc	r1, r0
b0004bf8:	31a01081 	movcc	r1, r1, lsl #1
b0004bfc:	31a03083 	movcc	r3, r3, lsl #1
b0004c00:	3afffffa 	bcc	b0004bf0 <__udivsi3+0x40>
b0004c04:	e3a02000 	mov	r2, #0	; 0x0
b0004c08:	e1500001 	cmp	r0, r1
b0004c0c:	20400001 	subcs	r0, r0, r1
b0004c10:	21822003 	orrcs	r2, r2, r3
b0004c14:	e15000a1 	cmp	r0, r1, lsr #1
b0004c18:	204000a1 	subcs	r0, r0, r1, lsr #1
b0004c1c:	218220a3 	orrcs	r2, r2, r3, lsr #1
b0004c20:	e1500121 	cmp	r0, r1, lsr #2
b0004c24:	20400121 	subcs	r0, r0, r1, lsr #2
b0004c28:	21822123 	orrcs	r2, r2, r3, lsr #2
b0004c2c:	e15001a1 	cmp	r0, r1, lsr #3
b0004c30:	204001a1 	subcs	r0, r0, r1, lsr #3
b0004c34:	218221a3 	orrcs	r2, r2, r3, lsr #3
b0004c38:	e3500000 	cmp	r0, #0	; 0x0
b0004c3c:	11b03223 	movnes	r3, r3, lsr #4
b0004c40:	11a01221 	movne	r1, r1, lsr #4
b0004c44:	1affffef 	bne	b0004c08 <__udivsi3+0x58>
b0004c48:	e1a00002 	mov	r0, r2
b0004c4c:	e1a0f00e 	mov	pc, lr
b0004c50:	03a00001 	moveq	r0, #1	; 0x1
b0004c54:	13a00000 	movne	r0, #0	; 0x0
b0004c58:	e1a0f00e 	mov	pc, lr
b0004c5c:	e3510801 	cmp	r1, #65536	; 0x10000
b0004c60:	21a01821 	movcs	r1, r1, lsr #16
b0004c64:	23a02010 	movcs	r2, #16	; 0x10
b0004c68:	33a02000 	movcc	r2, #0	; 0x0
b0004c6c:	e3510c01 	cmp	r1, #256	; 0x100
b0004c70:	21a01421 	movcs	r1, r1, lsr #8
b0004c74:	22822008 	addcs	r2, r2, #8	; 0x8
b0004c78:	e3510010 	cmp	r1, #16	; 0x10
b0004c7c:	21a01221 	movcs	r1, r1, lsr #4
b0004c80:	22822004 	addcs	r2, r2, #4	; 0x4
b0004c84:	e3510004 	cmp	r1, #4	; 0x4
b0004c88:	82822003 	addhi	r2, r2, #3	; 0x3
b0004c8c:	908220a1 	addls	r2, r2, r1, lsr #1
b0004c90:	e1a00230 	mov	r0, r0, lsr r2
b0004c94:	e1a0f00e 	mov	pc, lr
b0004c98:	90909090 	umulllss	r9, r0, r0, r0
b0004c9c:	90909090 	umulllss	r9, r0, r0, r0

b0004ca0 <__umodsi3>:
b0004ca0:	e2512001 	subs	r2, r1, #1	; 0x1
b0004ca4:	3a0000aa 	bcc	b0004f54 <Ldiv0>
b0004ca8:	11500001 	cmpne	r0, r1
b0004cac:	03a00000 	moveq	r0, #0	; 0x0
b0004cb0:	81110002 	tsthi	r1, r2
b0004cb4:	00000002 	andeq	r0, r0, r2
b0004cb8:	91a0f00e 	movls	pc, lr
b0004cbc:	e3a02000 	mov	r2, #0	; 0x0
b0004cc0:	e3510201 	cmp	r1, #268435456	; 0x10000000
b0004cc4:	31510000 	cmpcc	r1, r0
b0004cc8:	31a01201 	movcc	r1, r1, lsl #4
b0004ccc:	32822004 	addcc	r2, r2, #4	; 0x4
b0004cd0:	3afffffa 	bcc	b0004cc0 <__umodsi3+0x20>
b0004cd4:	e3510102 	cmp	r1, #-2147483648	; 0x80000000
b0004cd8:	31510000 	cmpcc	r1, r0
b0004cdc:	31a01081 	movcc	r1, r1, lsl #1
b0004ce0:	32822001 	addcc	r2, r2, #1	; 0x1
b0004ce4:	3afffffa 	bcc	b0004cd4 <__umodsi3+0x34>
b0004ce8:	e2522003 	subs	r2, r2, #3	; 0x3
b0004cec:	ba00000e 	blt	b0004d2c <__umodsi3+0x8c>
b0004cf0:	e1500001 	cmp	r0, r1
b0004cf4:	20400001 	subcs	r0, r0, r1
b0004cf8:	e15000a1 	cmp	r0, r1, lsr #1
b0004cfc:	204000a1 	subcs	r0, r0, r1, lsr #1
b0004d00:	e1500121 	cmp	r0, r1, lsr #2
b0004d04:	20400121 	subcs	r0, r0, r1, lsr #2
b0004d08:	e15001a1 	cmp	r0, r1, lsr #3
b0004d0c:	204001a1 	subcs	r0, r0, r1, lsr #3
b0004d10:	e3500001 	cmp	r0, #1	; 0x1
b0004d14:	e1a01221 	mov	r1, r1, lsr #4
b0004d18:	a2522004 	subges	r2, r2, #4	; 0x4
b0004d1c:	aafffff3 	bge	b0004cf0 <__umodsi3+0x50>
b0004d20:	e3120003 	tst	r2, #3	; 0x3
b0004d24:	13300000 	teqne	r0, #0	; 0x0
b0004d28:	0a00000a 	beq	b0004d58 <__umodsi3+0xb8>
b0004d2c:	e3720002 	cmn	r2, #2	; 0x2
b0004d30:	ba000006 	blt	b0004d50 <__umodsi3+0xb0>
b0004d34:	0a000002 	beq	b0004d44 <__umodsi3+0xa4>
b0004d38:	e1500001 	cmp	r0, r1
b0004d3c:	20400001 	subcs	r0, r0, r1
b0004d40:	e1a010a1 	mov	r1, r1, lsr #1
b0004d44:	e1500001 	cmp	r0, r1
b0004d48:	20400001 	subcs	r0, r0, r1
b0004d4c:	e1a010a1 	mov	r1, r1, lsr #1
b0004d50:	e1500001 	cmp	r0, r1
b0004d54:	20400001 	subcs	r0, r0, r1
b0004d58:	e1a0f00e 	mov	pc, lr
b0004d5c:	90909090 	umulllss	r9, r0, r0, r0

b0004d60 <__divsi3>:
b0004d60:	e3510000 	cmp	r1, #0	; 0x0
b0004d64:	e020c001 	eor	ip, r0, r1
b0004d68:	0a000079 	beq	b0004f54 <Ldiv0>
b0004d6c:	42611000 	rsbmi	r1, r1, #0	; 0x0
b0004d70:	e2512001 	subs	r2, r1, #1	; 0x1
b0004d74:	0a000027 	beq	b0004e18 <__divsi3+0xb8>
b0004d78:	e1b03000 	movs	r3, r0
b0004d7c:	42603000 	rsbmi	r3, r0, #0	; 0x0
b0004d80:	e1530001 	cmp	r3, r1
b0004d84:	9a000026 	bls	b0004e24 <__divsi3+0xc4>
b0004d88:	e1110002 	tst	r1, r2
b0004d8c:	0a000028 	beq	b0004e34 <__divsi3+0xd4>
b0004d90:	e311020e 	tst	r1, #-536870912	; 0xe0000000
b0004d94:	01a01181 	moveq	r1, r1, lsl #3
b0004d98:	03a02008 	moveq	r2, #8	; 0x8
b0004d9c:	13a02001 	movne	r2, #1	; 0x1
b0004da0:	e3510201 	cmp	r1, #268435456	; 0x10000000
b0004da4:	31510003 	cmpcc	r1, r3
b0004da8:	31a01201 	movcc	r1, r1, lsl #4
b0004dac:	31a02202 	movcc	r2, r2, lsl #4
b0004db0:	3afffffa 	bcc	b0004da0 <__divsi3+0x40>
b0004db4:	e3510102 	cmp	r1, #-2147483648	; 0x80000000
b0004db8:	31510003 	cmpcc	r1, r3
b0004dbc:	31a01081 	movcc	r1, r1, lsl #1
b0004dc0:	31a02082 	movcc	r2, r2, lsl #1
b0004dc4:	3afffffa 	bcc	b0004db4 <__divsi3+0x54>
b0004dc8:	e3a00000 	mov	r0, #0	; 0x0
b0004dcc:	e1530001 	cmp	r3, r1
b0004dd0:	20433001 	subcs	r3, r3, r1
b0004dd4:	21800002 	orrcs	r0, r0, r2
b0004dd8:	e15300a1 	cmp	r3, r1, lsr #1
b0004ddc:	204330a1 	subcs	r3, r3, r1, lsr #1
b0004de0:	218000a2 	orrcs	r0, r0, r2, lsr #1
b0004de4:	e1530121 	cmp	r3, r1, lsr #2
b0004de8:	20433121 	subcs	r3, r3, r1, lsr #2
b0004dec:	21800122 	orrcs	r0, r0, r2, lsr #2
b0004df0:	e15301a1 	cmp	r3, r1, lsr #3
b0004df4:	204331a1 	subcs	r3, r3, r1, lsr #3
b0004df8:	218001a2 	orrcs	r0, r0, r2, lsr #3
b0004dfc:	e3530000 	cmp	r3, #0	; 0x0
b0004e00:	11b02222 	movnes	r2, r2, lsr #4
b0004e04:	11a01221 	movne	r1, r1, lsr #4
b0004e08:	1affffef 	bne	b0004dcc <__divsi3+0x6c>
b0004e0c:	e35c0000 	cmp	ip, #0	; 0x0
b0004e10:	42600000 	rsbmi	r0, r0, #0	; 0x0
b0004e14:	e1a0f00e 	mov	pc, lr
b0004e18:	e13c0000 	teq	ip, r0
b0004e1c:	42600000 	rsbmi	r0, r0, #0	; 0x0
b0004e20:	e1a0f00e 	mov	pc, lr
b0004e24:	33a00000 	movcc	r0, #0	; 0x0
b0004e28:	01a00fcc 	moveq	r0, ip, asr #31
b0004e2c:	03800001 	orreq	r0, r0, #1	; 0x1
b0004e30:	e1a0f00e 	mov	pc, lr
b0004e34:	e3510801 	cmp	r1, #65536	; 0x10000
b0004e38:	21a01821 	movcs	r1, r1, lsr #16
b0004e3c:	23a02010 	movcs	r2, #16	; 0x10
b0004e40:	33a02000 	movcc	r2, #0	; 0x0
b0004e44:	e3510c01 	cmp	r1, #256	; 0x100
b0004e48:	21a01421 	movcs	r1, r1, lsr #8
b0004e4c:	22822008 	addcs	r2, r2, #8	; 0x8
b0004e50:	e3510010 	cmp	r1, #16	; 0x10
b0004e54:	21a01221 	movcs	r1, r1, lsr #4
b0004e58:	22822004 	addcs	r2, r2, #4	; 0x4
b0004e5c:	e3510004 	cmp	r1, #4	; 0x4
b0004e60:	82822003 	addhi	r2, r2, #3	; 0x3
b0004e64:	908220a1 	addls	r2, r2, r1, lsr #1
b0004e68:	e35c0000 	cmp	ip, #0	; 0x0
b0004e6c:	e1a00233 	mov	r0, r3, lsr r2
b0004e70:	42600000 	rsbmi	r0, r0, #0	; 0x0
b0004e74:	e1a0f00e 	mov	pc, lr
b0004e78:	90909090 	umulllss	r9, r0, r0, r0
b0004e7c:	90909090 	umulllss	r9, r0, r0, r0

b0004e80 <__modsi3>:
b0004e80:	e3510000 	cmp	r1, #0	; 0x0
b0004e84:	0a000032 	beq	b0004f54 <Ldiv0>
b0004e88:	42611000 	rsbmi	r1, r1, #0	; 0x0
b0004e8c:	e1b0c000 	movs	ip, r0
b0004e90:	42600000 	rsbmi	r0, r0, #0	; 0x0
b0004e94:	e2512001 	subs	r2, r1, #1	; 0x1
b0004e98:	11500001 	cmpne	r0, r1
b0004e9c:	03a00000 	moveq	r0, #0	; 0x0
b0004ea0:	81110002 	tsthi	r1, r2
b0004ea4:	00000002 	andeq	r0, r0, r2
b0004ea8:	9a000026 	bls	b0004f48 <__modsi3+0xc8>
b0004eac:	e3a02000 	mov	r2, #0	; 0x0
b0004eb0:	e3510201 	cmp	r1, #268435456	; 0x10000000
b0004eb4:	31510000 	cmpcc	r1, r0
b0004eb8:	31a01201 	movcc	r1, r1, lsl #4
b0004ebc:	32822004 	addcc	r2, r2, #4	; 0x4
b0004ec0:	3afffffa 	bcc	b0004eb0 <__modsi3+0x30>
b0004ec4:	e3510102 	cmp	r1, #-2147483648	; 0x80000000
b0004ec8:	31510000 	cmpcc	r1, r0
b0004ecc:	31a01081 	movcc	r1, r1, lsl #1
b0004ed0:	32822001 	addcc	r2, r2, #1	; 0x1
b0004ed4:	3afffffa 	bcc	b0004ec4 <__modsi3+0x44>
b0004ed8:	e2522003 	subs	r2, r2, #3	; 0x3
b0004edc:	ba00000e 	blt	b0004f1c <__modsi3+0x9c>
b0004ee0:	e1500001 	cmp	r0, r1
b0004ee4:	20400001 	subcs	r0, r0, r1
b0004ee8:	e15000a1 	cmp	r0, r1, lsr #1
b0004eec:	204000a1 	subcs	r0, r0, r1, lsr #1
b0004ef0:	e1500121 	cmp	r0, r1, lsr #2
b0004ef4:	20400121 	subcs	r0, r0, r1, lsr #2
b0004ef8:	e15001a1 	cmp	r0, r1, lsr #3
b0004efc:	204001a1 	subcs	r0, r0, r1, lsr #3
b0004f00:	e3500001 	cmp	r0, #1	; 0x1
b0004f04:	e1a01221 	mov	r1, r1, lsr #4
b0004f08:	a2522004 	subges	r2, r2, #4	; 0x4
b0004f0c:	aafffff3 	bge	b0004ee0 <__modsi3+0x60>
b0004f10:	e3120003 	tst	r2, #3	; 0x3
b0004f14:	13300000 	teqne	r0, #0	; 0x0
b0004f18:	0a00000a 	beq	b0004f48 <__modsi3+0xc8>
b0004f1c:	e3720002 	cmn	r2, #2	; 0x2
b0004f20:	ba000006 	blt	b0004f40 <__modsi3+0xc0>
b0004f24:	0a000002 	beq	b0004f34 <__modsi3+0xb4>
b0004f28:	e1500001 	cmp	r0, r1
b0004f2c:	20400001 	subcs	r0, r0, r1
b0004f30:	e1a010a1 	mov	r1, r1, lsr #1
b0004f34:	e1500001 	cmp	r0, r1
b0004f38:	20400001 	subcs	r0, r0, r1
b0004f3c:	e1a010a1 	mov	r1, r1, lsr #1
b0004f40:	e1500001 	cmp	r0, r1
b0004f44:	20400001 	subcs	r0, r0, r1
b0004f48:	e35c0000 	cmp	ip, #0	; 0x0
b0004f4c:	42600000 	rsbmi	r0, r0, #0	; 0x0
b0004f50:	e1a0f00e 	mov	pc, lr

b0004f54 <Ldiv0>:
b0004f54:	e52de004 	str	lr, [sp, #-4]!
b0004f58:	e3a00000 	mov	r0, #0	; 0x0
b0004f5c:	e49df004 	ldr	pc, [sp], #4

b0004f60 <delay>:
b0004f60:	e24dd004 	sub	sp, sp, #4	; 0x4
b0004f64:	e58d0000 	str	r0, [sp]
b0004f68:	e59d3000 	ldr	r3, [sp]
b0004f6c:	e2433001 	sub	r3, r3, #1	; 0x1
b0004f70:	e58d3000 	str	r3, [sp]
b0004f74:	e59d3000 	ldr	r3, [sp]
b0004f78:	e3730001 	cmn	r3, #1	; 0x1
b0004f7c:	1afffff9 	bne	b0004f68 <delay+0x8>
b0004f80:	e28dd004 	add	sp, sp, #4	; 0x4
b0004f84:	e1a0f00e 	mov	pc, lr

b0004f88 <printf>:
b0004f88:	e92d000f 	stmdb	sp!, {r0, r1, r2, r3}
b0004f8c:	e59f0048 	ldr	r0, [pc, #72]	; b0004fdc <.text+0x4fdc>
b0004f90:	e92d4070 	stmdb	sp!, {r4, r5, r6, lr}
b0004f94:	e59d1010 	ldr	r1, [sp, #16]
b0004f98:	e3a04000 	mov	r4, #0	; 0x0
b0004f9c:	e28d2014 	add	r2, sp, #20	; 0x14
b0004fa0:	eb00047a 	bl	b0006190 <vsprintf>
b0004fa4:	e1a06000 	mov	r6, r0
b0004fa8:	ea000002 	b	b0004fb8 <printf+0x30>
b0004fac:	e7d50004 	ldrb	r0, [r5, r4]
b0004fb0:	ebfff02c 	bl	b0001068 <putc>
b0004fb4:	e2844001 	add	r4, r4, #1	; 0x1
b0004fb8:	e59f501c 	ldr	r5, [pc, #28]	; b0004fdc <.text+0x4fdc>
b0004fbc:	e1a00005 	mov	r0, r5
b0004fc0:	eb0000c2 	bl	b00052d0 <strlen>
b0004fc4:	e1540000 	cmp	r4, r0
b0004fc8:	3afffff7 	bcc	b0004fac <printf+0x24>
b0004fcc:	e1a00006 	mov	r0, r6
b0004fd0:	e8bd4070 	ldmia	sp!, {r4, r5, r6, lr}
b0004fd4:	e28dd010 	add	sp, sp, #16	; 0x10
b0004fd8:	e1a0f00e 	mov	pc, lr
b0004fdc:	b000b33c 	andlt	fp, r0, ip, lsr r3

b0004fe0 <scanf>:
b0004fe0:	e92d000f 	stmdb	sp!, {r0, r1, r2, r3}
b0004fe4:	e92d4030 	stmdb	sp!, {r4, r5, lr}
b0004fe8:	e3a05000 	mov	r5, #0	; 0x0
b0004fec:	ebfff027 	bl	b0001090 <getc>
b0004ff0:	e20040ff 	and	r4, r0, #255	; 0xff
b0004ff4:	e1a00004 	mov	r0, r4
b0004ff8:	ebfff01a 	bl	b0001068 <putc>
b0004ffc:	e354000a 	cmp	r4, #10	; 0xa
b0005000:	1354000d 	cmpne	r4, #13	; 0xd
b0005004:	e59fc02c 	ldr	ip, [pc, #44]	; b0005038 <.text+0x5038>
b0005008:	17c5400c 	strneb	r4, [r5, ip]
b000500c:	12855001 	addne	r5, r5, #1	; 0x1
b0005010:	1afffff5 	bne	b0004fec <scanf+0xc>
b0005014:	e3a03000 	mov	r3, #0	; 0x0
b0005018:	e1a0000c 	mov	r0, ip
b000501c:	e59d100c 	ldr	r1, [sp, #12]
b0005020:	e28d2010 	add	r2, sp, #16	; 0x10
b0005024:	e7cc3005 	strb	r3, [ip, r5]
b0005028:	eb000464 	bl	b00061c0 <vsscanf>
b000502c:	e8bd4030 	ldmia	sp!, {r4, r5, lr}
b0005030:	e28dd010 	add	sp, sp, #16	; 0x10
b0005034:	e1a0f00e 	mov	pc, lr
b0005038:	b000b73c 	andlt	fp, r0, ip, lsr r7

b000503c <gets>:
b000503c:	e92d4070 	stmdb	sp!, {r4, r5, r6, lr}
b0005040:	e1a05000 	mov	r5, r0
b0005044:	e3a06000 	mov	r6, #0	; 0x0
b0005048:	ebfff010 	bl	b0001090 <getc>
b000504c:	e20040ff 	and	r4, r0, #255	; 0xff
b0005050:	e1a00004 	mov	r0, r4
b0005054:	ebfff003 	bl	b0001068 <putc>
b0005058:	e354000a 	cmp	r4, #10	; 0xa
b000505c:	e3a0000d 	mov	r0, #13	; 0xd
b0005060:	0a000002 	beq	b0005070 <gets+0x34>
b0005064:	e354000d 	cmp	r4, #13	; 0xd
b0005068:	e3a0000a 	mov	r0, #10	; 0xa
b000506c:	1a000000 	bne	b0005074 <gets+0x38>
b0005070:	ebffeffc 	bl	b0001068 <putc>
b0005074:	e354000d 	cmp	r4, #13	; 0xd
b0005078:	1354000a 	cmpne	r4, #10	; 0xa
b000507c:	17c64005 	strneb	r4, [r6, r5]
b0005080:	12866001 	addne	r6, r6, #1	; 0x1
b0005084:	1affffef 	bne	b0005048 <gets+0xc>
b0005088:	e3a03000 	mov	r3, #0	; 0x0
b000508c:	e1a00005 	mov	r0, r5
b0005090:	e7c53006 	strb	r3, [r5, r6]
b0005094:	e8bd8070 	ldmia	sp!, {r4, r5, r6, pc}

b0005098 <get_int>:
b0005098:	e92d4010 	stmdb	sp!, {r4, lr}
b000509c:	e24dd064 	sub	sp, sp, #100	; 0x64
b00050a0:	e1a0000d 	mov	r0, sp
b00050a4:	ebffffe4 	bl	b000503c <gets>
b00050a8:	e3a01000 	mov	r1, #0	; 0x0
b00050ac:	e1a0000d 	mov	r0, sp
b00050b0:	e1a02001 	mov	r2, r1
b00050b4:	e1a0400d 	mov	r4, sp
b00050b8:	eb0001ab 	bl	b000576c <simple_strtol>
b00050bc:	e28dd064 	add	sp, sp, #100	; 0x64
b00050c0:	e8bd8010 	ldmia	sp!, {r4, pc}

b00050c4 <get_uint>:
b00050c4:	e92d4010 	stmdb	sp!, {r4, lr}
b00050c8:	e24dd064 	sub	sp, sp, #100	; 0x64
b00050cc:	e1a0000d 	mov	r0, sp
b00050d0:	ebffffd9 	bl	b000503c <gets>
b00050d4:	e3a01000 	mov	r1, #0	; 0x0
b00050d8:	e1a0000d 	mov	r0, sp
b00050dc:	e1a02001 	mov	r2, r1
b00050e0:	e1a0400d 	mov	r4, sp
b00050e4:	eb000164 	bl	b000567c <simple_strtoul>
b00050e8:	e28dd064 	add	sp, sp, #100	; 0x64
b00050ec:	e8bd8010 	ldmia	sp!, {r4, pc}

b00050f0 <strnicmp>:
b00050f0:	e92d41f0 	stmdb	sp!, {r4, r5, r6, r7, r8, lr}
b00050f4:	e3520000 	cmp	r2, #0	; 0x0
b00050f8:	e3a0e000 	mov	lr, #0	; 0x0
b00050fc:	e1a07000 	mov	r7, r0
b0005100:	e1a06001 	mov	r6, r1
b0005104:	e1a0c00e 	mov	ip, lr
b0005108:	0a000018 	beq	b0005170 <strnicmp+0x80>
b000510c:	e4d7e001 	ldrb	lr, [r7], #1
b0005110:	e35e0000 	cmp	lr, #0	; 0x0
b0005114:	e59f805c 	ldr	r8, [pc, #92]	; b0005178 <.text+0x5178>
b0005118:	e4d6c001 	ldrb	ip, [r6], #1
b000511c:	0a000013 	beq	b0005170 <strnicmp+0x80>
b0005120:	e35c0000 	cmp	ip, #0	; 0x0
b0005124:	e1a0100e 	mov	r1, lr
b0005128:	e1a0500c 	mov	r5, ip
b000512c:	0a00000f 	beq	b0005170 <strnicmp+0x80>
b0005130:	e15e000c 	cmp	lr, ip
b0005134:	0a00000b 	beq	b0005168 <strnicmp+0x78>
b0005138:	e7d8300e 	ldrb	r3, [r8, lr]
b000513c:	e3130001 	tst	r3, #1	; 0x1
b0005140:	e7d8300c 	ldrb	r3, [r8, ip]
b0005144:	e28e0020 	add	r0, lr, #32	; 0x20
b0005148:	e28c4020 	add	r4, ip, #32	; 0x20
b000514c:	120010ff 	andne	r1, r0, #255	; 0xff
b0005150:	e3130001 	tst	r3, #1	; 0x1
b0005154:	120450ff 	andne	r5, r4, #255	; 0xff
b0005158:	e201e0ff 	and	lr, r1, #255	; 0xff
b000515c:	e205c0ff 	and	ip, r5, #255	; 0xff
b0005160:	e15e000c 	cmp	lr, ip
b0005164:	1a000001 	bne	b0005170 <strnicmp+0x80>
b0005168:	e2522001 	subs	r2, r2, #1	; 0x1
b000516c:	1affffe6 	bne	b000510c <strnicmp+0x1c>
b0005170:	e06c000e 	rsb	r0, ip, lr
b0005174:	e8bd81f0 	ldmia	sp!, {r4, r5, r6, r7, r8, pc}
b0005178:	b000912c 	andlt	r9, r0, ip, lsr #2

b000517c <strcpy>:
b000517c:	e1a02000 	mov	r2, r0
b0005180:	e4d13001 	ldrb	r3, [r1], #1
b0005184:	e3530000 	cmp	r3, #0	; 0x0
b0005188:	e4c03001 	strb	r3, [r0], #1
b000518c:	1afffffb 	bne	b0005180 <strcpy+0x4>
b0005190:	e1a00002 	mov	r0, r2
b0005194:	e1a0f00e 	mov	pc, lr

b0005198 <strncpy>:
b0005198:	e1a0c000 	mov	ip, r0
b000519c:	e2522001 	subs	r2, r2, #1	; 0x1
b00051a0:	3a000003 	bcc	b00051b4 <strncpy+0x1c>
b00051a4:	e4d13001 	ldrb	r3, [r1], #1
b00051a8:	e3530000 	cmp	r3, #0	; 0x0
b00051ac:	e4c03001 	strb	r3, [r0], #1
b00051b0:	1afffff9 	bne	b000519c <strncpy+0x4>
b00051b4:	e1a0000c 	mov	r0, ip
b00051b8:	e1a0f00e 	mov	pc, lr

b00051bc <strcat>:
b00051bc:	e5d03000 	ldrb	r3, [r0]
b00051c0:	e1a02000 	mov	r2, r0
b00051c4:	e3530000 	cmp	r3, #0	; 0x0
b00051c8:	15f03001 	ldrneb	r3, [r0, #1]!
b00051cc:	1afffffc 	bne	b00051c4 <strcat+0x8>
b00051d0:	e4d13001 	ldrb	r3, [r1], #1
b00051d4:	e3530000 	cmp	r3, #0	; 0x0
b00051d8:	e4c03001 	strb	r3, [r0], #1
b00051dc:	1afffffb 	bne	b00051d0 <strcat+0x14>
b00051e0:	e1a00002 	mov	r0, r2
b00051e4:	e1a0f00e 	mov	pc, lr

b00051e8 <strncat>:
b00051e8:	e3520000 	cmp	r2, #0	; 0x0
b00051ec:	e1a0c000 	mov	ip, r0
b00051f0:	0a00000a 	beq	b0005220 <strncat+0x38>
b00051f4:	e5d03000 	ldrb	r3, [r0]
b00051f8:	e3530000 	cmp	r3, #0	; 0x0
b00051fc:	15f03001 	ldrneb	r3, [r0, #1]!
b0005200:	1afffffc 	bne	b00051f8 <strncat+0x10>
b0005204:	e4d13001 	ldrb	r3, [r1], #1
b0005208:	e3530000 	cmp	r3, #0	; 0x0
b000520c:	e4c03001 	strb	r3, [r0], #1
b0005210:	0a000002 	beq	b0005220 <strncat+0x38>
b0005214:	e2522001 	subs	r2, r2, #1	; 0x1
b0005218:	1afffff9 	bne	b0005204 <strncat+0x1c>
b000521c:	e5c02000 	strb	r2, [r0]
b0005220:	e1a0000c 	mov	r0, ip
b0005224:	e1a0f00e 	mov	pc, lr

b0005228 <strcmp>:
b0005228:	e5d02000 	ldrb	r2, [r0]
b000522c:	e4d13001 	ldrb	r3, [r1], #1
b0005230:	e0633002 	rsb	r3, r3, r2
b0005234:	e1b0cc03 	movs	ip, r3, lsl #24
b0005238:	e2800001 	add	r0, r0, #1	; 0x1
b000523c:	e20330ff 	and	r3, r3, #255	; 0xff
b0005240:	1a000001 	bne	b000524c <strcmp+0x24>
b0005244:	e3520000 	cmp	r2, #0	; 0x0
b0005248:	1afffff6 	bne	b0005228 <strcmp>
b000524c:	e1a00c03 	mov	r0, r3, lsl #24
b0005250:	e1a00c40 	mov	r0, r0, asr #24
b0005254:	e1a0f00e 	mov	pc, lr

b0005258 <strncmp>:
b0005258:	e3520000 	cmp	r2, #0	; 0x0
b000525c:	e52de004 	str	lr, [sp, #-4]!
b0005260:	e3a03000 	mov	r3, #0	; 0x0
b0005264:	0a00000a 	beq	b0005294 <strncmp+0x3c>
b0005268:	e5d0c000 	ldrb	ip, [r0]
b000526c:	e4d13001 	ldrb	r3, [r1], #1
b0005270:	e063300c 	rsb	r3, r3, ip
b0005274:	e1b0ec03 	movs	lr, r3, lsl #24
b0005278:	e2800001 	add	r0, r0, #1	; 0x1
b000527c:	e20330ff 	and	r3, r3, #255	; 0xff
b0005280:	1a000003 	bne	b0005294 <strncmp+0x3c>
b0005284:	e35c0000 	cmp	ip, #0	; 0x0
b0005288:	0a000001 	beq	b0005294 <strncmp+0x3c>
b000528c:	e2522001 	subs	r2, r2, #1	; 0x1
b0005290:	1afffff4 	bne	b0005268 <strncmp+0x10>
b0005294:	e1a00c03 	mov	r0, r3, lsl #24
b0005298:	e1a00c40 	mov	r0, r0, asr #24
b000529c:	e49df004 	ldr	pc, [sp], #4

b00052a0 <strchr>:
b00052a0:	e5d03000 	ldrb	r3, [r0]
b00052a4:	e1a02000 	mov	r2, r0
b00052a8:	e20110ff 	and	r1, r1, #255	; 0xff
b00052ac:	e1530001 	cmp	r3, r1
b00052b0:	0a000004 	beq	b00052c8 <strchr+0x28>
b00052b4:	e20300ff 	and	r0, r3, #255	; 0xff
b00052b8:	e3500000 	cmp	r0, #0	; 0x0
b00052bc:	01a0f00e 	moveq	pc, lr
b00052c0:	e5f23001 	ldrb	r3, [r2, #1]!
b00052c4:	eafffff8 	b	b00052ac <strchr+0xc>
b00052c8:	e1a00002 	mov	r0, r2
b00052cc:	e1a0f00e 	mov	pc, lr

b00052d0 <strlen>:
b00052d0:	e5d03000 	ldrb	r3, [r0]
b00052d4:	e1a02000 	mov	r2, r0
b00052d8:	e3530000 	cmp	r3, #0	; 0x0
b00052dc:	0a000002 	beq	b00052ec <strlen+0x1c>
b00052e0:	e5f03001 	ldrb	r3, [r0, #1]!
b00052e4:	e3530000 	cmp	r3, #0	; 0x0
b00052e8:	eafffffb 	b	b00052dc <strlen+0xc>
b00052ec:	e0620000 	rsb	r0, r2, r0
b00052f0:	e1a0f00e 	mov	pc, lr

b00052f4 <strrchr>:
b00052f4:	e92d4030 	stmdb	sp!, {r4, r5, lr}
b00052f8:	e1a04000 	mov	r4, r0
b00052fc:	e1a05001 	mov	r5, r1
b0005300:	ebfffff2 	bl	b00052d0 <strlen>
b0005304:	e0840000 	add	r0, r4, r0
b0005308:	e5d02000 	ldrb	r2, [r0]
b000530c:	e20530ff 	and	r3, r5, #255	; 0xff
b0005310:	e1520003 	cmp	r2, r3
b0005314:	08bd8030 	ldmeqia	sp!, {r4, r5, pc}
b0005318:	e2400001 	sub	r0, r0, #1	; 0x1
b000531c:	e1500004 	cmp	r0, r4
b0005320:	2afffff8 	bcs	b0005308 <strrchr+0x14>
b0005324:	e3a00000 	mov	r0, #0	; 0x0
b0005328:	e8bd8030 	ldmia	sp!, {r4, r5, pc}

b000532c <strnlen>:
b000532c:	e2411001 	sub	r1, r1, #1	; 0x1
b0005330:	e3710001 	cmn	r1, #1	; 0x1
b0005334:	e1a02000 	mov	r2, r0
b0005338:	0a000007 	beq	b000535c <strnlen+0x30>
b000533c:	e5d23000 	ldrb	r3, [r2]
b0005340:	e3530000 	cmp	r3, #0	; 0x0
b0005344:	0a000004 	beq	b000535c <strnlen+0x30>
b0005348:	e2411001 	sub	r1, r1, #1	; 0x1
b000534c:	e3710001 	cmn	r1, #1	; 0x1
b0005350:	e2800001 	add	r0, r0, #1	; 0x1
b0005354:	15d03000 	ldrneb	r3, [r0]
b0005358:	1afffff8 	bne	b0005340 <strnlen+0x14>
b000535c:	e0620000 	rsb	r0, r2, r0
b0005360:	e1a0f00e 	mov	pc, lr

b0005364 <strspn>:
b0005364:	e52de004 	str	lr, [sp, #-4]!
b0005368:	e3a0e000 	mov	lr, #0	; 0x0
b000536c:	e5d03000 	ldrb	r3, [r0]
b0005370:	e3530000 	cmp	r3, #0	; 0x0
b0005374:	0a000010 	beq	b00053bc <strspn+0x58>
b0005378:	e5d12000 	ldrb	r2, [r1]
b000537c:	e3520000 	cmp	r2, #0	; 0x0
b0005380:	e1a0c001 	mov	ip, r1
b0005384:	0a00000c 	beq	b00053bc <strspn+0x58>
b0005388:	e5d03000 	ldrb	r3, [r0]
b000538c:	e1530002 	cmp	r3, r2
b0005390:	0a000002 	beq	b00053a0 <strspn+0x3c>
b0005394:	e5fc2001 	ldrb	r2, [ip, #1]!
b0005398:	e3520000 	cmp	r2, #0	; 0x0
b000539c:	1afffff9 	bne	b0005388 <strspn+0x24>
b00053a0:	e5dc3000 	ldrb	r3, [ip]
b00053a4:	e3530000 	cmp	r3, #0	; 0x0
b00053a8:	0a000003 	beq	b00053bc <strspn+0x58>
b00053ac:	e5f03001 	ldrb	r3, [r0, #1]!
b00053b0:	e28ee001 	add	lr, lr, #1	; 0x1
b00053b4:	e3530000 	cmp	r3, #0	; 0x0
b00053b8:	eaffffed 	b	b0005374 <strspn+0x10>
b00053bc:	e1a0000e 	mov	r0, lr
b00053c0:	e49df004 	ldr	pc, [sp], #4

b00053c4 <strpbrk>:
b00053c4:	e5d03000 	ldrb	r3, [r0]
b00053c8:	e3530000 	cmp	r3, #0	; 0x0
b00053cc:	0a00000a 	beq	b00053fc <strpbrk+0x38>
b00053d0:	e5d12000 	ldrb	r2, [r1]
b00053d4:	e1a0c001 	mov	ip, r1
b00053d8:	e3520000 	cmp	r2, #0	; 0x0
b00053dc:	0a000004 	beq	b00053f4 <strpbrk+0x30>
b00053e0:	e5d03000 	ldrb	r3, [r0]
b00053e4:	e1530002 	cmp	r3, r2
b00053e8:	01a0f00e 	moveq	pc, lr
b00053ec:	e5fc2001 	ldrb	r2, [ip, #1]!
b00053f0:	eafffff8 	b	b00053d8 <strpbrk+0x14>
b00053f4:	e5f03001 	ldrb	r3, [r0, #1]!
b00053f8:	eafffff2 	b	b00053c8 <strpbrk+0x4>
b00053fc:	e3a00000 	mov	r0, #0	; 0x0
b0005400:	e1a0f00e 	mov	pc, lr

b0005404 <strtok>:
b0005404:	e92d4030 	stmdb	sp!, {r4, r5, lr}
b0005408:	e2504000 	subs	r4, r0, #0	; 0x0
b000540c:	e1a05001 	mov	r5, r1
b0005410:	1a000004 	bne	b0005428 <strtok+0x24>
b0005414:	e59f3068 	ldr	r3, [pc, #104]	; b0005484 <.text+0x5484>
b0005418:	e5934000 	ldr	r4, [r3]
b000541c:	e3540000 	cmp	r4, #0	; 0x0
b0005420:	e1a0c004 	mov	ip, r4
b0005424:	0a000014 	beq	b000547c <strtok+0x78>
b0005428:	e1a00004 	mov	r0, r4
b000542c:	ebffffcc 	bl	b0005364 <strspn>
b0005430:	e7f43000 	ldrb	r3, [r4, r0]!
b0005434:	e20320ff 	and	r2, r3, #255	; 0xff
b0005438:	e3520000 	cmp	r2, #0	; 0x0
b000543c:	059f3040 	ldreq	r3, [pc, #64]	; b0005484 <.text+0x5484>
b0005440:	e1a01005 	mov	r1, r5
b0005444:	e1a00004 	mov	r0, r4
b0005448:	e1a0c002 	mov	ip, r2
b000544c:	05832000 	streq	r2, [r3]
b0005450:	0a000009 	beq	b000547c <strtok+0x78>
b0005454:	ebffffda 	bl	b00053c4 <strpbrk>
b0005458:	e3500000 	cmp	r0, #0	; 0x0
b000545c:	0a000003 	beq	b0005470 <strtok+0x6c>
b0005460:	e5d03000 	ldrb	r3, [r0]
b0005464:	e3530000 	cmp	r3, #0	; 0x0
b0005468:	13a03000 	movne	r3, #0	; 0x0
b000546c:	14c03001 	strneb	r3, [r0], #1
b0005470:	e59f300c 	ldr	r3, [pc, #12]	; b0005484 <.text+0x5484>
b0005474:	e5830000 	str	r0, [r3]
b0005478:	e1a0c004 	mov	ip, r4
b000547c:	e1a0000c 	mov	r0, ip
b0005480:	e8bd8030 	ldmia	sp!, {r4, r5, pc}
b0005484:	b000bc3c 	andlt	fp, r0, ip, lsr ip

b0005488 <strsep>:
b0005488:	e92d4030 	stmdb	sp!, {r4, r5, lr}
b000548c:	e1a05000 	mov	r5, r0
b0005490:	e5904000 	ldr	r4, [r0]
b0005494:	e2540000 	subs	r0, r4, #0	; 0x0
b0005498:	e1a03004 	mov	r3, r4
b000549c:	0a000005 	beq	b00054b8 <strsep+0x30>
b00054a0:	ebffffc7 	bl	b00053c4 <strpbrk>
b00054a4:	e3500000 	cmp	r0, #0	; 0x0
b00054a8:	13a03000 	movne	r3, #0	; 0x0
b00054ac:	14c03001 	strneb	r3, [r0], #1
b00054b0:	e1a03004 	mov	r3, r4
b00054b4:	e5850000 	str	r0, [r5]
b00054b8:	e1a00003 	mov	r0, r3
b00054bc:	e8bd8030 	ldmia	sp!, {r4, r5, pc}

b00054c0 <memset>:
b00054c0:	e2422001 	sub	r2, r2, #1	; 0x1
b00054c4:	e3720001 	cmn	r2, #1	; 0x1
b00054c8:	e1a03000 	mov	r3, r0
b00054cc:	01a0f00e 	moveq	pc, lr
b00054d0:	e2422001 	sub	r2, r2, #1	; 0x1
b00054d4:	e3720001 	cmn	r2, #1	; 0x1
b00054d8:	e4c31001 	strb	r1, [r3], #1
b00054dc:	1afffffb 	bne	b00054d0 <memset+0x10>
b00054e0:	e1a0f00e 	mov	pc, lr

b00054e4 <bcopy>:
b00054e4:	e2522001 	subs	r2, r2, #1	; 0x1
b00054e8:	31a0f00e 	movcc	pc, lr
b00054ec:	e2422001 	sub	r2, r2, #1	; 0x1
b00054f0:	e4d03001 	ldrb	r3, [r0], #1
b00054f4:	e3720001 	cmn	r2, #1	; 0x1
b00054f8:	e4c13001 	strb	r3, [r1], #1
b00054fc:	1afffffa 	bne	b00054ec <bcopy+0x8>
b0005500:	e1a0f00e 	mov	pc, lr

b0005504 <memcpy>:
b0005504:	e2422001 	sub	r2, r2, #1	; 0x1
b0005508:	e3720001 	cmn	r2, #1	; 0x1
b000550c:	e1a0c000 	mov	ip, r0
b0005510:	01a0f00e 	moveq	pc, lr
b0005514:	e2422001 	sub	r2, r2, #1	; 0x1
b0005518:	e4d13001 	ldrb	r3, [r1], #1
b000551c:	e3720001 	cmn	r2, #1	; 0x1
b0005520:	e4cc3001 	strb	r3, [ip], #1
b0005524:	1afffffa 	bne	b0005514 <memcpy+0x10>
b0005528:	e1a0f00e 	mov	pc, lr

b000552c <memmove>:
b000552c:	e1500001 	cmp	r0, r1
b0005530:	e2423001 	sub	r3, r2, #1	; 0x1
b0005534:	8a000009 	bhi	b0005560 <memmove+0x34>
b0005538:	e3730001 	cmn	r3, #1	; 0x1
b000553c:	e1a02003 	mov	r2, r3
b0005540:	e1a0c000 	mov	ip, r0
b0005544:	01a0f00e 	moveq	pc, lr
b0005548:	e2422001 	sub	r2, r2, #1	; 0x1
b000554c:	e4d13001 	ldrb	r3, [r1], #1
b0005550:	e3720001 	cmn	r2, #1	; 0x1
b0005554:	e4cc3001 	strb	r3, [ip], #1
b0005558:	1afffffa 	bne	b0005548 <memmove+0x1c>
b000555c:	e1a0f00e 	mov	pc, lr
b0005560:	e3730001 	cmn	r3, #1	; 0x1
b0005564:	e0811002 	add	r1, r1, r2
b0005568:	e080c002 	add	ip, r0, r2
b000556c:	e1a02003 	mov	r2, r3
b0005570:	01a0f00e 	moveq	pc, lr
b0005574:	e2422001 	sub	r2, r2, #1	; 0x1
b0005578:	e5713001 	ldrb	r3, [r1, #-1]!
b000557c:	e3720001 	cmn	r2, #1	; 0x1
b0005580:	e56c3001 	strb	r3, [ip, #-1]!
b0005584:	1afffffa 	bne	b0005574 <memmove+0x48>
b0005588:	e1a0f00e 	mov	pc, lr

b000558c <memcmp>:
b000558c:	e252c000 	subs	ip, r2, #0	; 0x0
b0005590:	e3a02000 	mov	r2, #0	; 0x0
b0005594:	0a000007 	beq	b00055b8 <memcmp+0x2c>
b0005598:	e5d02000 	ldrb	r2, [r0]
b000559c:	e5d13000 	ldrb	r3, [r1]
b00055a0:	e0522003 	subs	r2, r2, r3
b00055a4:	e2800001 	add	r0, r0, #1	; 0x1
b00055a8:	e2811001 	add	r1, r1, #1	; 0x1
b00055ac:	1a000001 	bne	b00055b8 <memcmp+0x2c>
b00055b0:	e25cc001 	subs	ip, ip, #1	; 0x1
b00055b4:	1afffff7 	bne	b0005598 <memcmp+0xc>
b00055b8:	e1a00002 	mov	r0, r2
b00055bc:	e1a0f00e 	mov	pc, lr

b00055c0 <memscan>:
b00055c0:	e3520000 	cmp	r2, #0	; 0x0
b00055c4:	01a0f00e 	moveq	pc, lr
b00055c8:	e5d03000 	ldrb	r3, [r0]
b00055cc:	e1530001 	cmp	r3, r1
b00055d0:	01a0f00e 	moveq	pc, lr
b00055d4:	e2522001 	subs	r2, r2, #1	; 0x1
b00055d8:	e2800001 	add	r0, r0, #1	; 0x1
b00055dc:	1afffff9 	bne	b00055c8 <memscan+0x8>
b00055e0:	e1a0f00e 	mov	pc, lr

b00055e4 <strstr>:
b00055e4:	e92d40f0 	stmdb	sp!, {r4, r5, r6, r7, lr}
b00055e8:	e1a05000 	mov	r5, r0
b00055ec:	e1a00001 	mov	r0, r1
b00055f0:	e1a07001 	mov	r7, r1
b00055f4:	ebffff35 	bl	b00052d0 <strlen>
b00055f8:	e2506000 	subs	r6, r0, #0	; 0x0
b00055fc:	1a000001 	bne	b0005608 <strstr+0x24>
b0005600:	e1a00005 	mov	r0, r5
b0005604:	e8bd80f0 	ldmia	sp!, {r4, r5, r6, r7, pc}
b0005608:	e1a00005 	mov	r0, r5
b000560c:	ebffff2f 	bl	b00052d0 <strlen>
b0005610:	e1a04000 	mov	r4, r0
b0005614:	e1500006 	cmp	r0, r6
b0005618:	ba000009 	blt	b0005644 <strstr+0x60>
b000561c:	e1a00005 	mov	r0, r5
b0005620:	e1a01007 	mov	r1, r7
b0005624:	e1a02006 	mov	r2, r6
b0005628:	ebffffd7 	bl	b000558c <memcmp>
b000562c:	e3500000 	cmp	r0, #0	; 0x0
b0005630:	e2444001 	sub	r4, r4, #1	; 0x1
b0005634:	0afffff1 	beq	b0005600 <strstr+0x1c>
b0005638:	e1540006 	cmp	r4, r6
b000563c:	e2855001 	add	r5, r5, #1	; 0x1
b0005640:	eafffff4 	b	b0005618 <strstr+0x34>
b0005644:	e3a00000 	mov	r0, #0	; 0x0
b0005648:	e8bd80f0 	ldmia	sp!, {r4, r5, r6, r7, pc}

b000564c <memchr>:
b000564c:	e252c001 	subs	ip, r2, #1	; 0x1
b0005650:	3a000007 	bcc	b0005674 <memchr+0x28>
b0005654:	e2400001 	sub	r0, r0, #1	; 0x1
b0005658:	e5f02001 	ldrb	r2, [r0, #1]!
b000565c:	e20130ff 	and	r3, r1, #255	; 0xff
b0005660:	e1520003 	cmp	r2, r3
b0005664:	e24cc001 	sub	ip, ip, #1	; 0x1
b0005668:	01a0f00e 	moveq	pc, lr
b000566c:	e37c0001 	cmn	ip, #1	; 0x1
b0005670:	1afffff8 	bne	b0005658 <memchr+0xc>
b0005674:	e3a00000 	mov	r0, #0	; 0x0
b0005678:	e1a0f00e 	mov	pc, lr

b000567c <simple_strtoul>:
b000567c:	e92d4030 	stmdb	sp!, {r4, r5, lr}
b0005680:	e2524000 	subs	r4, r2, #0	; 0x0
b0005684:	e1a05001 	mov	r5, r1
b0005688:	e3a01000 	mov	r1, #0	; 0x0
b000568c:	1a000012 	bne	b00056dc <simple_strtoul+0x60>
b0005690:	e5d03000 	ldrb	r3, [r0]
b0005694:	e3530030 	cmp	r3, #48	; 0x30
b0005698:	e3a0400a 	mov	r4, #10	; 0xa
b000569c:	1a00001e 	bne	b000571c <simple_strtoul+0xa0>
b00056a0:	e5f0c001 	ldrb	ip, [r0, #1]!
b00056a4:	e59f20bc 	ldr	r2, [pc, #188]	; b0005768 <.text+0x5768>
b00056a8:	e7d2300c 	ldrb	r3, [r2, ip]
b00056ac:	e3130002 	tst	r3, #2	; 0x2
b00056b0:	124c3020 	subne	r3, ip, #32	; 0x20
b00056b4:	1203c0ff 	andne	ip, r3, #255	; 0xff
b00056b8:	e35c0058 	cmp	ip, #88	; 0x58
b00056bc:	e2444002 	sub	r4, r4, #2	; 0x2
b00056c0:	1a000015 	bne	b000571c <simple_strtoul+0xa0>
b00056c4:	e5d03001 	ldrb	r3, [r0, #1]
b00056c8:	e7d23003 	ldrb	r3, [r2, r3]
b00056cc:	e3130044 	tst	r3, #68	; 0x44
b00056d0:	12800001 	addne	r0, r0, #1	; 0x1
b00056d4:	13a04010 	movne	r4, #16	; 0x10
b00056d8:	ea00000f 	b	b000571c <simple_strtoul+0xa0>
b00056dc:	e3540010 	cmp	r4, #16	; 0x10
b00056e0:	1a00000d 	bne	b000571c <simple_strtoul+0xa0>
b00056e4:	e5d03000 	ldrb	r3, [r0]
b00056e8:	e3530030 	cmp	r3, #48	; 0x30
b00056ec:	1a00000a 	bne	b000571c <simple_strtoul+0xa0>
b00056f0:	e5d0c001 	ldrb	ip, [r0, #1]
b00056f4:	e59f306c 	ldr	r3, [pc, #108]	; b0005768 <.text+0x5768>
b00056f8:	e7d3300c 	ldrb	r3, [r3, ip]
b00056fc:	e3130002 	tst	r3, #2	; 0x2
b0005700:	124c3020 	subne	r3, ip, #32	; 0x20
b0005704:	1203c0ff 	andne	ip, r3, #255	; 0xff
b0005708:	e35c0058 	cmp	ip, #88	; 0x58
b000570c:	02800002 	addeq	r0, r0, #2	; 0x2
b0005710:	ea000001 	b	b000571c <simple_strtoul+0xa0>
b0005714:	e0212194 	mla	r1, r4, r1, r2
b0005718:	e2800001 	add	r0, r0, #1	; 0x1
b000571c:	e5d0c000 	ldrb	ip, [r0]
b0005720:	e59f3040 	ldr	r3, [pc, #64]	; b0005768 <.text+0x5768>
b0005724:	e7d3e00c 	ldrb	lr, [r3, ip]
b0005728:	e31e0044 	tst	lr, #68	; 0x44
b000572c:	e24c2030 	sub	r2, ip, #48	; 0x30
b0005730:	0a000008 	beq	b0005758 <simple_strtoul+0xdc>
b0005734:	e31e0004 	tst	lr, #4	; 0x4
b0005738:	e1a0300c 	mov	r3, ip
b000573c:	1a000003 	bne	b0005750 <simple_strtoul+0xd4>
b0005740:	e31e0002 	tst	lr, #2	; 0x2
b0005744:	e24cc020 	sub	ip, ip, #32	; 0x20
b0005748:	120c30ff 	andne	r3, ip, #255	; 0xff
b000574c:	e2432037 	sub	r2, r3, #55	; 0x37
b0005750:	e1520004 	cmp	r2, r4
b0005754:	3affffee 	bcc	b0005714 <simple_strtoul+0x98>
b0005758:	e3550000 	cmp	r5, #0	; 0x0
b000575c:	15850000 	strne	r0, [r5]
b0005760:	e1a00001 	mov	r0, r1
b0005764:	e8bd8030 	ldmia	sp!, {r4, r5, pc}
b0005768:	b000912c 	andlt	r9, r0, ip, lsr #2

b000576c <simple_strtol>:
b000576c:	e52de004 	str	lr, [sp, #-4]!
b0005770:	e5d03000 	ldrb	r3, [r0]
b0005774:	e353002d 	cmp	r3, #45	; 0x2d
b0005778:	0a000001 	beq	b0005784 <simple_strtol+0x18>
b000577c:	e49de004 	ldr	lr, [sp], #4
b0005780:	eaffffbd 	b	b000567c <simple_strtoul>
b0005784:	e2800001 	add	r0, r0, #1	; 0x1
b0005788:	ebffffbb 	bl	b000567c <simple_strtoul>
b000578c:	e2600000 	rsb	r0, r0, #0	; 0x0
b0005790:	e49df004 	ldr	pc, [sp], #4

b0005794 <simple_strtoull>:
b0005794:	e92d47f0 	stmdb	sp!, {r4, r5, r6, r7, r8, r9, sl, lr}
b0005798:	e3a04000 	mov	r4, #0	; 0x0
b000579c:	e3a03000 	mov	r3, #0	; 0x0
b00057a0:	e252a000 	subs	sl, r2, #0	; 0x0
b00057a4:	e1a08000 	mov	r8, r0
b00057a8:	e1a09001 	mov	r9, r1
b00057ac:	e24dd008 	sub	sp, sp, #8	; 0x8
b00057b0:	e88d0018 	stmia	sp, {r3, r4}
b00057b4:	1a000012 	bne	b0005804 <simple_strtoull+0x70>
b00057b8:	e5d03000 	ldrb	r3, [r0]
b00057bc:	e3530030 	cmp	r3, #48	; 0x30
b00057c0:	e3a0a00a 	mov	sl, #10	; 0xa
b00057c4:	1a000021 	bne	b0005850 <simple_strtoull+0xbc>
b00057c8:	e5f82001 	ldrb	r2, [r8, #1]!
b00057cc:	e59f10f4 	ldr	r1, [pc, #244]	; b00058c8 <.text+0x58c8>
b00057d0:	e7d13002 	ldrb	r3, [r1, r2]
b00057d4:	e3130002 	tst	r3, #2	; 0x2
b00057d8:	12423020 	subne	r3, r2, #32	; 0x20
b00057dc:	120320ff 	andne	r2, r3, #255	; 0xff
b00057e0:	e3520058 	cmp	r2, #88	; 0x58
b00057e4:	e24aa002 	sub	sl, sl, #2	; 0x2
b00057e8:	1a000018 	bne	b0005850 <simple_strtoull+0xbc>
b00057ec:	e5d83001 	ldrb	r3, [r8, #1]
b00057f0:	e7d13003 	ldrb	r3, [r1, r3]
b00057f4:	e3130044 	tst	r3, #68	; 0x44
b00057f8:	12888001 	addne	r8, r8, #1	; 0x1
b00057fc:	13a0a010 	movne	sl, #16	; 0x10
b0005800:	ea000012 	b	b0005850 <simple_strtoull+0xbc>
b0005804:	e35a0010 	cmp	sl, #16	; 0x10
b0005808:	1a000010 	bne	b0005850 <simple_strtoull+0xbc>
b000580c:	e5d03000 	ldrb	r3, [r0]
b0005810:	e3530030 	cmp	r3, #48	; 0x30
b0005814:	1a00000d 	bne	b0005850 <simple_strtoull+0xbc>
b0005818:	e5d02001 	ldrb	r2, [r0, #1]
b000581c:	e59f30a4 	ldr	r3, [pc, #164]	; b00058c8 <.text+0x58c8>
b0005820:	e7d33002 	ldrb	r3, [r3, r2]
b0005824:	e3130002 	tst	r3, #2	; 0x2
b0005828:	12423020 	subne	r3, r2, #32	; 0x20
b000582c:	120320ff 	andne	r2, r3, #255	; 0xff
b0005830:	e3520058 	cmp	r2, #88	; 0x58
b0005834:	02808002 	addeq	r8, r0, #2	; 0x2
b0005838:	ea000004 	b	b0005850 <simple_strtoull+0xbc>
b000583c:	eb00041f 	bl	b00068c0 <__muldi3>
b0005840:	e0900004 	adds	r0, r0, r4
b0005844:	e0a11005 	adc	r1, r1, r5
b0005848:	e88d0003 	stmia	sp, {r0, r1}
b000584c:	e2888001 	add	r8, r8, #1	; 0x1
b0005850:	e5d81000 	ldrb	r1, [r8]
b0005854:	e59f306c 	ldr	r3, [pc, #108]	; b00058c8 <.text+0x58c8>
b0005858:	e7d32001 	ldrb	r2, [r3, r1]
b000585c:	e3120044 	tst	r2, #68	; 0x44
b0005860:	e241c030 	sub	ip, r1, #48	; 0x30
b0005864:	0a000012 	beq	b00058b4 <simple_strtoull+0x120>
b0005868:	e3120004 	tst	r2, #4	; 0x4
b000586c:	e1a0600a 	mov	r6, sl
b0005870:	e3a07000 	mov	r7, #0	; 0x0
b0005874:	1a000004 	bne	b000588c <simple_strtoull+0xf8>
b0005878:	e2413020 	sub	r3, r1, #32	; 0x20
b000587c:	e20330ff 	and	r3, r3, #255	; 0xff
b0005880:	e3120002 	tst	r2, #2	; 0x2
b0005884:	e243c037 	sub	ip, r3, #55	; 0x37
b0005888:	0241c037 	subeq	ip, r1, #55	; 0x37
b000588c:	e1a0400c 	mov	r4, ip
b0005890:	e1a05fc4 	mov	r5, r4, asr #31
b0005894:	e1570005 	cmp	r7, r5
b0005898:	e89d0003 	ldmia	sp, {r0, r1}
b000589c:	e1a03007 	mov	r3, r7
b00058a0:	e1a02006 	mov	r2, r6
b00058a4:	8affffe4 	bhi	b000583c <simple_strtoull+0xa8>
b00058a8:	1a000001 	bne	b00058b4 <simple_strtoull+0x120>
b00058ac:	e1560004 	cmp	r6, r4
b00058b0:	8affffe1 	bhi	b000583c <simple_strtoull+0xa8>
b00058b4:	e89d0003 	ldmia	sp, {r0, r1}
b00058b8:	e3590000 	cmp	r9, #0	; 0x0
b00058bc:	15898000 	strne	r8, [r9]
b00058c0:	e28dd008 	add	sp, sp, #8	; 0x8
b00058c4:	e8bd87f0 	ldmia	sp!, {r4, r5, r6, r7, r8, r9, sl, pc}
b00058c8:	b000912c 	andlt	r9, r0, ip, lsr #2

b00058cc <simple_strtoll>:
b00058cc:	e52de004 	str	lr, [sp, #-4]!
b00058d0:	e5d03000 	ldrb	r3, [r0]
b00058d4:	e353002d 	cmp	r3, #45	; 0x2d
b00058d8:	0a000001 	beq	b00058e4 <simple_strtoll+0x18>
b00058dc:	e49de004 	ldr	lr, [sp], #4
b00058e0:	eaffffab 	b	b0005794 <simple_strtoull>
b00058e4:	e2800001 	add	r0, r0, #1	; 0x1
b00058e8:	ebffffa9 	bl	b0005794 <simple_strtoull>
b00058ec:	e2700000 	rsbs	r0, r0, #0	; 0x0
b00058f0:	e2e11000 	rsc	r1, r1, #0	; 0x0
b00058f4:	e49df004 	ldr	pc, [sp], #4

b00058f8 <skip_atoi>:
b00058f8:	e52de004 	str	lr, [sp, #-4]!
b00058fc:	e59fe040 	ldr	lr, [pc, #64]	; b0005944 <.text+0x5944>
b0005900:	e1a0c000 	mov	ip, r0
b0005904:	e5901000 	ldr	r1, [r0]
b0005908:	e5d13000 	ldrb	r3, [r1]
b000590c:	e7de3003 	ldrb	r3, [lr, r3]
b0005910:	e3130004 	tst	r3, #4	; 0x4
b0005914:	e3a00000 	mov	r0, #0	; 0x0
b0005918:	049df004 	ldreq	pc, [sp], #4
b000591c:	e4d12001 	ldrb	r2, [r1], #1
b0005920:	e58c1000 	str	r1, [ip]
b0005924:	e0803100 	add	r3, r0, r0, lsl #2
b0005928:	e0822083 	add	r2, r2, r3, lsl #1
b000592c:	e2420030 	sub	r0, r2, #48	; 0x30
b0005930:	e5d13000 	ldrb	r3, [r1]
b0005934:	e7de3003 	ldrb	r3, [lr, r3]
b0005938:	e3130004 	tst	r3, #4	; 0x4
b000593c:	1afffff6 	bne	b000591c <skip_atoi+0x24>
b0005940:	e49df004 	ldr	pc, [sp], #4
b0005944:	b000912c 	andlt	r9, r0, ip, lsr #2

b0005948 <number>:
b0005948:	e92d4ff0 	stmdb	sp!, {r4, r5, r6, r7, r8, r9, sl, fp, lr}
b000594c:	e59fc2ac 	ldr	ip, [pc, #684]	; b0005c00 <.text+0x5c00>
b0005950:	e59fe2ac 	ldr	lr, [pc, #684]	; b0005c04 <.text+0x5c04>
b0005954:	e1a0b001 	mov	fp, r1
b0005958:	e1a05003 	mov	r5, r3
b000595c:	e1a04002 	mov	r4, r2
b0005960:	e1a06000 	mov	r6, r0
b0005964:	e24dd054 	sub	sp, sp, #84	; 0x54
b0005968:	e59d8084 	ldr	r8, [sp, #132]
b000596c:	e59d1078 	ldr	r1, [sp, #120]
b0005970:	e3180040 	tst	r8, #64	; 0x40
b0005974:	11a0e00c 	movne	lr, ip
b0005978:	e2413002 	sub	r3, r1, #2	; 0x2
b000597c:	e3180010 	tst	r8, #16	; 0x10
b0005980:	13c88001 	bicne	r8, r8, #1	; 0x1
b0005984:	e3530022 	cmp	r3, #34	; 0x22
b0005988:	e58de004 	str	lr, [sp, #4]
b000598c:	e28d707c 	add	r7, sp, #124	; 0x7c
b0005990:	e8970480 	ldmia	r7, {r7, sl}
b0005994:	83a00000 	movhi	r0, #0	; 0x0
b0005998:	8a000096 	bhi	b0005bf8 <number+0x2b0>
b000599c:	e3180001 	tst	r8, #1	; 0x1
b00059a0:	03a02020 	moveq	r2, #32	; 0x20
b00059a4:	13a02030 	movne	r2, #48	; 0x30
b00059a8:	e3a03000 	mov	r3, #0	; 0x0
b00059ac:	e3180002 	tst	r8, #2	; 0x2
b00059b0:	e58d200c 	str	r2, [sp, #12]
b00059b4:	e58d3008 	str	r3, [sp, #8]
b00059b8:	0a000010 	beq	b0005a00 <number+0xb8>
b00059bc:	e1550003 	cmp	r5, r3
b00059c0:	aa000005 	bge	b00059dc <number+0x94>
b00059c4:	e3a0102d 	mov	r1, #45	; 0x2d
b00059c8:	e2744000 	rsbs	r4, r4, #0	; 0x0
b00059cc:	e2e55000 	rsc	r5, r5, #0	; 0x0
b00059d0:	e2477001 	sub	r7, r7, #1	; 0x1
b00059d4:	e58d1008 	str	r1, [sp, #8]
b00059d8:	ea000008 	b	b0005a00 <number+0xb8>
b00059dc:	e3180004 	tst	r8, #4	; 0x4
b00059e0:	13a0202b 	movne	r2, #43	; 0x2b
b00059e4:	12477001 	subne	r7, r7, #1	; 0x1
b00059e8:	158d2008 	strne	r2, [sp, #8]
b00059ec:	1a000003 	bne	b0005a00 <number+0xb8>
b00059f0:	e3180008 	tst	r8, #8	; 0x8
b00059f4:	13a03020 	movne	r3, #32	; 0x20
b00059f8:	158d3008 	strne	r3, [sp, #8]
b00059fc:	12477001 	subne	r7, r7, #1	; 0x1
b0005a00:	e2181020 	ands	r1, r8, #32	; 0x20
b0005a04:	e58d1000 	str	r1, [sp]
b0005a08:	0a000006 	beq	b0005a28 <number+0xe0>
b0005a0c:	e59d2078 	ldr	r2, [sp, #120]
b0005a10:	e3520010 	cmp	r2, #16	; 0x10
b0005a14:	02477002 	subeq	r7, r7, #2	; 0x2
b0005a18:	0a000002 	beq	b0005a28 <number+0xe0>
b0005a1c:	e59d3078 	ldr	r3, [sp, #120]
b0005a20:	e3530008 	cmp	r3, #8	; 0x8
b0005a24:	02477001 	subeq	r7, r7, #1	; 0x1
b0005a28:	e1941005 	orrs	r1, r4, r5
b0005a2c:	e3a09000 	mov	r9, #0	; 0x0
b0005a30:	03a03030 	moveq	r3, #48	; 0x30
b0005a34:	02899001 	addeq	r9, r9, #1	; 0x1
b0005a38:	05cd3010 	streqb	r3, [sp, #16]
b0005a3c:	0a00000d 	beq	b0005a78 <number+0x130>
b0005a40:	e1a01005 	mov	r1, r5
b0005a44:	e1a00004 	mov	r0, r4
b0005a48:	e59d4078 	ldr	r4, [sp, #120]
b0005a4c:	eb00034f 	bl	b0006790 <__do_div64>
b0005a50:	e1a05003 	mov	r5, r3
b0005a54:	e1a04002 	mov	r4, r2
b0005a58:	e59d3004 	ldr	r3, [sp, #4]
b0005a5c:	e7d32001 	ldrb	r2, [r3, r1]
b0005a60:	e1941005 	orrs	r1, r4, r5
b0005a64:	e28d1054 	add	r1, sp, #84	; 0x54
b0005a68:	e0893001 	add	r3, r9, r1
b0005a6c:	e5432044 	strb	r2, [r3, #-68]
b0005a70:	e2899001 	add	r9, r9, #1	; 0x1
b0005a74:	1afffff1 	bne	b0005a40 <number+0xf8>
b0005a78:	e15a0009 	cmp	sl, r9
b0005a7c:	b1a0a009 	movlt	sl, r9
b0005a80:	e3180011 	tst	r8, #17	; 0x11
b0005a84:	e06a7007 	rsb	r7, sl, r7
b0005a88:	1a00000a 	bne	b0005ab8 <number+0x170>
b0005a8c:	e3570000 	cmp	r7, #0	; 0x0
b0005a90:	e2477001 	sub	r7, r7, #1	; 0x1
b0005a94:	da000007 	ble	b0005ab8 <number+0x170>
b0005a98:	e156000b 	cmp	r6, fp
b0005a9c:	e1a02007 	mov	r2, r7
b0005aa0:	93a03020 	movls	r3, #32	; 0x20
b0005aa4:	95c63000 	strlsb	r3, [r6]
b0005aa8:	e2477001 	sub	r7, r7, #1	; 0x1
b0005aac:	e3520000 	cmp	r2, #0	; 0x0
b0005ab0:	e2866001 	add	r6, r6, #1	; 0x1
b0005ab4:	eafffff6 	b	b0005a94 <number+0x14c>
b0005ab8:	e59d2008 	ldr	r2, [sp, #8]
b0005abc:	e3520000 	cmp	r2, #0	; 0x0
b0005ac0:	0a000002 	beq	b0005ad0 <number+0x188>
b0005ac4:	e156000b 	cmp	r6, fp
b0005ac8:	95c62000 	strlsb	r2, [r6]
b0005acc:	e2866001 	add	r6, r6, #1	; 0x1
b0005ad0:	e59d3000 	ldr	r3, [sp]
b0005ad4:	e3530000 	cmp	r3, #0	; 0x0
b0005ad8:	0a000013 	beq	b0005b2c <number+0x1e4>
b0005adc:	e59d1078 	ldr	r1, [sp, #120]
b0005ae0:	e3510008 	cmp	r1, #8	; 0x8
b0005ae4:	1a000003 	bne	b0005af8 <number+0x1b0>
b0005ae8:	e156000b 	cmp	r6, fp
b0005aec:	93a03030 	movls	r3, #48	; 0x30
b0005af0:	9a00000b 	bls	b0005b24 <number+0x1dc>
b0005af4:	ea00000b 	b	b0005b28 <number+0x1e0>
b0005af8:	e59d2078 	ldr	r2, [sp, #120]
b0005afc:	e3520010 	cmp	r2, #16	; 0x10
b0005b00:	1a000009 	bne	b0005b2c <number+0x1e4>
b0005b04:	e156000b 	cmp	r6, fp
b0005b08:	93a03030 	movls	r3, #48	; 0x30
b0005b0c:	95c63000 	strlsb	r3, [r6]
b0005b10:	e2866001 	add	r6, r6, #1	; 0x1
b0005b14:	e156000b 	cmp	r6, fp
b0005b18:	8a000002 	bhi	b0005b28 <number+0x1e0>
b0005b1c:	e59d1004 	ldr	r1, [sp, #4]
b0005b20:	e5d13021 	ldrb	r3, [r1, #33]
b0005b24:	e5c63000 	strb	r3, [r6]
b0005b28:	e2866001 	add	r6, r6, #1	; 0x1
b0005b2c:	e3180010 	tst	r8, #16	; 0x10
b0005b30:	1a00000a 	bne	b0005b60 <number+0x218>
b0005b34:	e3570000 	cmp	r7, #0	; 0x0
b0005b38:	e2477001 	sub	r7, r7, #1	; 0x1
b0005b3c:	da000007 	ble	b0005b60 <number+0x218>
b0005b40:	e156000b 	cmp	r6, fp
b0005b44:	959d200c 	ldrls	r2, [sp, #12]
b0005b48:	e1a03007 	mov	r3, r7
b0005b4c:	95c62000 	strlsb	r2, [r6]
b0005b50:	e2477001 	sub	r7, r7, #1	; 0x1
b0005b54:	e3530000 	cmp	r3, #0	; 0x0
b0005b58:	e2866001 	add	r6, r6, #1	; 0x1
b0005b5c:	eafffff6 	b	b0005b3c <number+0x1f4>
b0005b60:	e15a0009 	cmp	sl, r9
b0005b64:	e24aa001 	sub	sl, sl, #1	; 0x1
b0005b68:	da000007 	ble	b0005b8c <number+0x244>
b0005b6c:	e156000b 	cmp	r6, fp
b0005b70:	e1a0200a 	mov	r2, sl
b0005b74:	93a03030 	movls	r3, #48	; 0x30
b0005b78:	95c63000 	strlsb	r3, [r6]
b0005b7c:	e24aa001 	sub	sl, sl, #1	; 0x1
b0005b80:	e1520009 	cmp	r2, r9
b0005b84:	e2866001 	add	r6, r6, #1	; 0x1
b0005b88:	eafffff6 	b	b0005b68 <number+0x220>
b0005b8c:	e3590000 	cmp	r9, #0	; 0x0
b0005b90:	e2499001 	sub	r9, r9, #1	; 0x1
b0005b94:	da00000b 	ble	b0005bc8 <number+0x280>
b0005b98:	e28d1054 	add	r1, sp, #84	; 0x54
b0005b9c:	e0893001 	add	r3, r9, r1
b0005ba0:	e2432044 	sub	r2, r3, #68	; 0x44
b0005ba4:	e156000b 	cmp	r6, fp
b0005ba8:	95d23000 	ldrlsb	r3, [r2]
b0005bac:	e1a01009 	mov	r1, r9
b0005bb0:	95c63000 	strlsb	r3, [r6]
b0005bb4:	e3510000 	cmp	r1, #0	; 0x0
b0005bb8:	e2499001 	sub	r9, r9, #1	; 0x1
b0005bbc:	e2866001 	add	r6, r6, #1	; 0x1
b0005bc0:	e2422001 	sub	r2, r2, #1	; 0x1
b0005bc4:	cafffff6 	bgt	b0005ba4 <number+0x25c>
b0005bc8:	e3570000 	cmp	r7, #0	; 0x0
b0005bcc:	e2477001 	sub	r7, r7, #1	; 0x1
b0005bd0:	da000007 	ble	b0005bf4 <number+0x2ac>
b0005bd4:	e156000b 	cmp	r6, fp
b0005bd8:	e1a02007 	mov	r2, r7
b0005bdc:	93a03020 	movls	r3, #32	; 0x20
b0005be0:	95c63000 	strlsb	r3, [r6]
b0005be4:	e2477001 	sub	r7, r7, #1	; 0x1
b0005be8:	e3520000 	cmp	r2, #0	; 0x0
b0005bec:	e2866001 	add	r6, r6, #1	; 0x1
b0005bf0:	eafffff6 	b	b0005bd0 <number+0x288>
b0005bf4:	e1a00006 	mov	r0, r6
b0005bf8:	e28dd054 	add	sp, sp, #84	; 0x54
b0005bfc:	e8bd8ff0 	ldmia	sp!, {r4, r5, r6, r7, r8, r9, sl, fp, pc}
b0005c00:	b0008904 	andlt	r8, r0, r4, lsl #18
b0005c04:	b00088dc 	ldrltd	r8, [r0], -ip

b0005c08 <vsnprintf>:
b0005c08:	e92d4ff0 	stmdb	sp!, {r4, r5, r6, r7, r8, r9, sl, fp, lr}
b0005c0c:	e251b000 	subs	fp, r1, #0	; 0x0
b0005c10:	e1a07003 	mov	r7, r3
b0005c14:	b59f34f4 	ldrlt	r3, [pc, #1268]	; b0006110 <.text+0x6110>
b0005c18:	e1a09000 	mov	r9, r0
b0005c1c:	e24dd014 	sub	sp, sp, #20	; 0x14
b0005c20:	e58d2010 	str	r2, [sp, #16]
b0005c24:	b3a02000 	movlt	r2, #0	; 0x0
b0005c28:	b1a00002 	movlt	r0, r2
b0005c2c:	b5832000 	strlt	r2, [r3]
b0005c30:	ba000134 	blt	b0006108 <vsnprintf+0x500>
b0005c34:	e089300b 	add	r3, r9, fp
b0005c38:	e243a001 	sub	sl, r3, #1	; 0x1
b0005c3c:	e2493001 	sub	r3, r9, #1	; 0x1
b0005c40:	e15a0003 	cmp	sl, r3
b0005c44:	e5d23000 	ldrb	r3, [r2]
b0005c48:	e1a04009 	mov	r4, r9
b0005c4c:	33e0a000 	mvncc	sl, #0	; 0x0
b0005c50:	3269b000 	rsbcc	fp, r9, #0	; 0x0
b0005c54:	e1a01002 	mov	r1, r2
b0005c58:	e3530000 	cmp	r3, #0	; 0x0
b0005c5c:	0a000121 	beq	b00060e8 <vsnprintf+0x4e0>
b0005c60:	e5d12000 	ldrb	r2, [r1]
b0005c64:	e3520025 	cmp	r2, #37	; 0x25
b0005c68:	03a08000 	moveq	r8, #0	; 0x0
b0005c6c:	1a0000e3 	bne	b0006000 <vsnprintf+0x3f8>
b0005c70:	e59d3010 	ldr	r3, [sp, #16]
b0005c74:	e2831001 	add	r1, r3, #1	; 0x1
b0005c78:	e58d1010 	str	r1, [sp, #16]
b0005c7c:	e5d33001 	ldrb	r3, [r3, #1]
b0005c80:	e353002b 	cmp	r3, #43	; 0x2b
b0005c84:	0a00000c 	beq	b0005cbc <vsnprintf+0xb4>
b0005c88:	ca000004 	bgt	b0005ca0 <vsnprintf+0x98>
b0005c8c:	e3530020 	cmp	r3, #32	; 0x20
b0005c90:	0a00000b 	beq	b0005cc4 <vsnprintf+0xbc>
b0005c94:	e3530023 	cmp	r3, #35	; 0x23
b0005c98:	0a00000b 	beq	b0005ccc <vsnprintf+0xc4>
b0005c9c:	ea00000e 	b	b0005cdc <vsnprintf+0xd4>
b0005ca0:	e353002d 	cmp	r3, #45	; 0x2d
b0005ca4:	0a000002 	beq	b0005cb4 <vsnprintf+0xac>
b0005ca8:	e3530030 	cmp	r3, #48	; 0x30
b0005cac:	0a000008 	beq	b0005cd4 <vsnprintf+0xcc>
b0005cb0:	ea000009 	b	b0005cdc <vsnprintf+0xd4>
b0005cb4:	e3888010 	orr	r8, r8, #16	; 0x10
b0005cb8:	eaffffec 	b	b0005c70 <vsnprintf+0x68>
b0005cbc:	e3888004 	orr	r8, r8, #4	; 0x4
b0005cc0:	eaffffea 	b	b0005c70 <vsnprintf+0x68>
b0005cc4:	e3888008 	orr	r8, r8, #8	; 0x8
b0005cc8:	eaffffe8 	b	b0005c70 <vsnprintf+0x68>
b0005ccc:	e3888020 	orr	r8, r8, #32	; 0x20
b0005cd0:	eaffffe6 	b	b0005c70 <vsnprintf+0x68>
b0005cd4:	e3888001 	orr	r8, r8, #1	; 0x1
b0005cd8:	eaffffe4 	b	b0005c70 <vsnprintf+0x68>
b0005cdc:	e59f5430 	ldr	r5, [pc, #1072]	; b0006114 <.text+0x6114>
b0005ce0:	e5d12000 	ldrb	r2, [r1]
b0005ce4:	e7d53002 	ldrb	r3, [r5, r2]
b0005ce8:	e3130004 	tst	r3, #4	; 0x4
b0005cec:	e3e06000 	mvn	r6, #0	; 0x0
b0005cf0:	0a000003 	beq	b0005d04 <vsnprintf+0xfc>
b0005cf4:	e28d0010 	add	r0, sp, #16	; 0x10
b0005cf8:	ebfffefe 	bl	b00058f8 <skip_atoi>
b0005cfc:	e1a06000 	mov	r6, r0
b0005d00:	ea000007 	b	b0005d24 <vsnprintf+0x11c>
b0005d04:	e352002a 	cmp	r2, #42	; 0x2a
b0005d08:	1a000005 	bne	b0005d24 <vsnprintf+0x11c>
b0005d0c:	e2813001 	add	r3, r1, #1	; 0x1
b0005d10:	e58d3010 	str	r3, [sp, #16]
b0005d14:	e4976004 	ldr	r6, [r7], #4
b0005d18:	e3560000 	cmp	r6, #0	; 0x0
b0005d1c:	b2666000 	rsblt	r6, r6, #0	; 0x0
b0005d20:	b3888010 	orrlt	r8, r8, #16	; 0x10
b0005d24:	e59d2010 	ldr	r2, [sp, #16]
b0005d28:	e5d23000 	ldrb	r3, [r2]
b0005d2c:	e353002e 	cmp	r3, #46	; 0x2e
b0005d30:	e3e0e000 	mvn	lr, #0	; 0x0
b0005d34:	1a000011 	bne	b0005d80 <vsnprintf+0x178>
b0005d38:	e2821001 	add	r1, r2, #1	; 0x1
b0005d3c:	e58d1010 	str	r1, [sp, #16]
b0005d40:	e5d22001 	ldrb	r2, [r2, #1]
b0005d44:	e7d53002 	ldrb	r3, [r5, r2]
b0005d48:	e3130004 	tst	r3, #4	; 0x4
b0005d4c:	0a000003 	beq	b0005d60 <vsnprintf+0x158>
b0005d50:	e28d0010 	add	r0, sp, #16	; 0x10
b0005d54:	ebfffee7 	bl	b00058f8 <skip_atoi>
b0005d58:	e1a0e000 	mov	lr, r0
b0005d5c:	ea000004 	b	b0005d74 <vsnprintf+0x16c>
b0005d60:	e352002a 	cmp	r2, #42	; 0x2a
b0005d64:	1a000004 	bne	b0005d7c <vsnprintf+0x174>
b0005d68:	e2813001 	add	r3, r1, #1	; 0x1
b0005d6c:	e58d3010 	str	r3, [sp, #16]
b0005d70:	e497e004 	ldr	lr, [r7], #4
b0005d74:	e35e0000 	cmp	lr, #0	; 0x0
b0005d78:	aa000000 	bge	b0005d80 <vsnprintf+0x178>
b0005d7c:	e3a0e000 	mov	lr, #0	; 0x0
b0005d80:	e59d1010 	ldr	r1, [sp, #16]
b0005d84:	e5d13000 	ldrb	r3, [r1]
b0005d88:	e353006c 	cmp	r3, #108	; 0x6c
b0005d8c:	13530068 	cmpne	r3, #104	; 0x68
b0005d90:	e3e00000 	mvn	r0, #0	; 0x0
b0005d94:	0a000005 	beq	b0005db0 <vsnprintf+0x1a8>
b0005d98:	e353004c 	cmp	r3, #76	; 0x4c
b0005d9c:	0a000003 	beq	b0005db0 <vsnprintf+0x1a8>
b0005da0:	e353005a 	cmp	r3, #90	; 0x5a
b0005da4:	0a000001 	beq	b0005db0 <vsnprintf+0x1a8>
b0005da8:	e353007a 	cmp	r3, #122	; 0x7a
b0005dac:	1a000009 	bne	b0005dd8 <vsnprintf+0x1d0>
b0005db0:	e1a02001 	mov	r2, r1
b0005db4:	e4d20001 	ldrb	r0, [r2], #1
b0005db8:	e350006c 	cmp	r0, #108	; 0x6c
b0005dbc:	e58d2010 	str	r2, [sp, #16]
b0005dc0:	1a000004 	bne	b0005dd8 <vsnprintf+0x1d0>
b0005dc4:	e5d13001 	ldrb	r3, [r1, #1]
b0005dc8:	e353006c 	cmp	r3, #108	; 0x6c
b0005dcc:	02823001 	addeq	r3, r2, #1	; 0x1
b0005dd0:	058d3010 	streq	r3, [sp, #16]
b0005dd4:	02400020 	subeq	r0, r0, #32	; 0x20
b0005dd8:	e59d3010 	ldr	r3, [sp, #16]
b0005ddc:	e5d33000 	ldrb	r3, [r3]
b0005de0:	e353006e 	cmp	r3, #110	; 0x6e
b0005de4:	e3a0c00a 	mov	ip, #10	; 0xa
b0005de8:	0a000066 	beq	b0005f88 <vsnprintf+0x380>
b0005dec:	ca00000c 	bgt	b0005e24 <vsnprintf+0x21c>
b0005df0:	e3530063 	cmp	r3, #99	; 0x63
b0005df4:	0a000017 	beq	b0005e58 <vsnprintf+0x250>
b0005df8:	ca000004 	bgt	b0005e10 <vsnprintf+0x208>
b0005dfc:	e3530025 	cmp	r3, #37	; 0x25
b0005e00:	0a00006a 	beq	b0005fb0 <vsnprintf+0x3a8>
b0005e04:	e3530058 	cmp	r3, #88	; 0x58
b0005e08:	0a00006d 	beq	b0005fc4 <vsnprintf+0x3bc>
b0005e0c:	ea000071 	b	b0005fd8 <vsnprintf+0x3d0>
b0005e10:	e3530064 	cmp	r3, #100	; 0x64
b0005e14:	0a00006d 	beq	b0005fd0 <vsnprintf+0x3c8>
b0005e18:	e3530069 	cmp	r3, #105	; 0x69
b0005e1c:	0a00006b 	beq	b0005fd0 <vsnprintf+0x3c8>
b0005e20:	ea00006c 	b	b0005fd8 <vsnprintf+0x3d0>
b0005e24:	e3530073 	cmp	r3, #115	; 0x73
b0005e28:	0a000023 	beq	b0005ebc <vsnprintf+0x2b4>
b0005e2c:	ca000004 	bgt	b0005e44 <vsnprintf+0x23c>
b0005e30:	e353006f 	cmp	r3, #111	; 0x6f
b0005e34:	0a000060 	beq	b0005fbc <vsnprintf+0x3b4>
b0005e38:	e3530070 	cmp	r3, #112	; 0x70
b0005e3c:	0a000048 	beq	b0005f64 <vsnprintf+0x35c>
b0005e40:	ea000064 	b	b0005fd8 <vsnprintf+0x3d0>
b0005e44:	e3530075 	cmp	r3, #117	; 0x75
b0005e48:	0a000070 	beq	b0006010 <vsnprintf+0x408>
b0005e4c:	e3530078 	cmp	r3, #120	; 0x78
b0005e50:	0a00005c 	beq	b0005fc8 <vsnprintf+0x3c0>
b0005e54:	ea00005f 	b	b0005fd8 <vsnprintf+0x3d0>
b0005e58:	e3180010 	tst	r8, #16	; 0x10
b0005e5c:	1a000009 	bne	b0005e88 <vsnprintf+0x280>
b0005e60:	e2466001 	sub	r6, r6, #1	; 0x1
b0005e64:	e3560000 	cmp	r6, #0	; 0x0
b0005e68:	da000006 	ble	b0005e88 <vsnprintf+0x280>
b0005e6c:	e154000a 	cmp	r4, sl
b0005e70:	93a03020 	movls	r3, #32	; 0x20
b0005e74:	e2466001 	sub	r6, r6, #1	; 0x1
b0005e78:	95c43000 	strlsb	r3, [r4]
b0005e7c:	e3560000 	cmp	r6, #0	; 0x0
b0005e80:	e2844001 	add	r4, r4, #1	; 0x1
b0005e84:	eafffff7 	b	b0005e68 <vsnprintf+0x260>
b0005e88:	e4973004 	ldr	r3, [r7], #4
b0005e8c:	e154000a 	cmp	r4, sl
b0005e90:	e20330ff 	and	r3, r3, #255	; 0xff
b0005e94:	95c43000 	strlsb	r3, [r4]
b0005e98:	e2466001 	sub	r6, r6, #1	; 0x1
b0005e9c:	e3560000 	cmp	r6, #0	; 0x0
b0005ea0:	e2844001 	add	r4, r4, #1	; 0x1
b0005ea4:	da000089 	ble	b00060d0 <vsnprintf+0x4c8>
b0005ea8:	e154000a 	cmp	r4, sl
b0005eac:	93a03020 	movls	r3, #32	; 0x20
b0005eb0:	e2466001 	sub	r6, r6, #1	; 0x1
b0005eb4:	95c43000 	strlsb	r3, [r4]
b0005eb8:	eafffff7 	b	b0005e9c <vsnprintf+0x294>
b0005ebc:	e4975004 	ldr	r5, [r7], #4
b0005ec0:	e59f3250 	ldr	r3, [pc, #592]	; b0006118 <.text+0x6118>
b0005ec4:	e3550b01 	cmp	r5, #1024	; 0x400
b0005ec8:	31a05003 	movcc	r5, r3
b0005ecc:	e1a0100e 	mov	r1, lr
b0005ed0:	e1a00005 	mov	r0, r5
b0005ed4:	ebfffd14 	bl	b000532c <strnlen>
b0005ed8:	e3180010 	tst	r8, #16	; 0x10
b0005edc:	1a00000a 	bne	b0005f0c <vsnprintf+0x304>
b0005ee0:	e1560000 	cmp	r6, r0
b0005ee4:	e2466001 	sub	r6, r6, #1	; 0x1
b0005ee8:	da000007 	ble	b0005f0c <vsnprintf+0x304>
b0005eec:	e154000a 	cmp	r4, sl
b0005ef0:	e1a02006 	mov	r2, r6
b0005ef4:	93a03020 	movls	r3, #32	; 0x20
b0005ef8:	95c43000 	strlsb	r3, [r4]
b0005efc:	e2466001 	sub	r6, r6, #1	; 0x1
b0005f00:	e1520000 	cmp	r2, r0
b0005f04:	e2844001 	add	r4, r4, #1	; 0x1
b0005f08:	eafffff6 	b	b0005ee8 <vsnprintf+0x2e0>
b0005f0c:	e3a02000 	mov	r2, #0	; 0x0
b0005f10:	e1520000 	cmp	r2, r0
b0005f14:	aa000007 	bge	b0005f38 <vsnprintf+0x330>
b0005f18:	e154000a 	cmp	r4, sl
b0005f1c:	95d53000 	ldrlsb	r3, [r5]
b0005f20:	e2822001 	add	r2, r2, #1	; 0x1
b0005f24:	95c43000 	strlsb	r3, [r4]
b0005f28:	e2855001 	add	r5, r5, #1	; 0x1
b0005f2c:	e1520000 	cmp	r2, r0
b0005f30:	e2844001 	add	r4, r4, #1	; 0x1
b0005f34:	eafffff6 	b	b0005f14 <vsnprintf+0x30c>
b0005f38:	e1560000 	cmp	r6, r0
b0005f3c:	e2466001 	sub	r6, r6, #1	; 0x1
b0005f40:	da000062 	ble	b00060d0 <vsnprintf+0x4c8>
b0005f44:	e154000a 	cmp	r4, sl
b0005f48:	e1a02006 	mov	r2, r6
b0005f4c:	93a03020 	movls	r3, #32	; 0x20
b0005f50:	95c43000 	strlsb	r3, [r4]
b0005f54:	e2466001 	sub	r6, r6, #1	; 0x1
b0005f58:	e1520000 	cmp	r2, r0
b0005f5c:	e2844001 	add	r4, r4, #1	; 0x1
b0005f60:	eafffff6 	b	b0005f40 <vsnprintf+0x338>
b0005f64:	e4972004 	ldr	r2, [r7], #4
b0005f68:	e3760001 	cmn	r6, #1	; 0x1
b0005f6c:	03888001 	orreq	r8, r8, #1	; 0x1
b0005f70:	02866009 	addeq	r6, r6, #9	; 0x9
b0005f74:	e1a00004 	mov	r0, r4
b0005f78:	e3a03000 	mov	r3, #0	; 0x0
b0005f7c:	e1a0100a 	mov	r1, sl
b0005f80:	e3a0c010 	mov	ip, #16	; 0x10
b0005f84:	ea00004c 	b	b00060bc <vsnprintf+0x4b4>
b0005f88:	e350006c 	cmp	r0, #108	; 0x6c
b0005f8c:	12873004 	addne	r3, r7, #4	; 0x4
b0005f90:	11a07003 	movne	r7, r3
b0005f94:	04972004 	ldreq	r2, [r7], #4
b0005f98:	15173004 	ldrne	r3, [r7, #-4]
b0005f9c:	00693004 	rsbeq	r3, r9, r4
b0005fa0:	10692004 	rsbne	r2, r9, r4
b0005fa4:	05823000 	streq	r3, [r2]
b0005fa8:	15832000 	strne	r2, [r3]
b0005fac:	ea000047 	b	b00060d0 <vsnprintf+0x4c8>
b0005fb0:	e154000a 	cmp	r4, sl
b0005fb4:	95c43000 	strlsb	r3, [r4]
b0005fb8:	ea000012 	b	b0006008 <vsnprintf+0x400>
b0005fbc:	e3a0c008 	mov	ip, #8	; 0x8
b0005fc0:	ea000012 	b	b0006010 <vsnprintf+0x408>
b0005fc4:	e3888040 	orr	r8, r8, #64	; 0x40
b0005fc8:	e3a0c010 	mov	ip, #16	; 0x10
b0005fcc:	ea00000f 	b	b0006010 <vsnprintf+0x408>
b0005fd0:	e3888002 	orr	r8, r8, #2	; 0x2
b0005fd4:	ea00000d 	b	b0006010 <vsnprintf+0x408>
b0005fd8:	e154000a 	cmp	r4, sl
b0005fdc:	93a03025 	movls	r3, #37	; 0x25
b0005fe0:	95c43000 	strlsb	r3, [r4]
b0005fe4:	e2844001 	add	r4, r4, #1	; 0x1
b0005fe8:	e59d3010 	ldr	r3, [sp, #16]
b0005fec:	e5d32000 	ldrb	r2, [r3]
b0005ff0:	e3520000 	cmp	r2, #0	; 0x0
b0005ff4:	02433001 	subeq	r3, r3, #1	; 0x1
b0005ff8:	058d3010 	streq	r3, [sp, #16]
b0005ffc:	0a000033 	beq	b00060d0 <vsnprintf+0x4c8>
b0006000:	e154000a 	cmp	r4, sl
b0006004:	95c42000 	strlsb	r2, [r4]
b0006008:	e2844001 	add	r4, r4, #1	; 0x1
b000600c:	ea00002f 	b	b00060d0 <vsnprintf+0x4c8>
b0006010:	e350004c 	cmp	r0, #76	; 0x4c
b0006014:	08b70006 	ldmeqia	r7!, {r1, r2}
b0006018:	0a000023 	beq	b00060ac <vsnprintf+0x4a4>
b000601c:	e350006c 	cmp	r0, #108	; 0x6c
b0006020:	1a000005 	bne	b000603c <vsnprintf+0x434>
b0006024:	e4973004 	ldr	r3, [r7], #4
b0006028:	e3180002 	tst	r8, #2	; 0x2
b000602c:	e1a01003 	mov	r1, r3
b0006030:	e3a02000 	mov	r2, #0	; 0x0
b0006034:	0a00001c 	beq	b00060ac <vsnprintf+0x4a4>
b0006038:	ea00001a 	b	b00060a8 <vsnprintf+0x4a0>
b000603c:	e350007a 	cmp	r0, #122	; 0x7a
b0006040:	1350005a 	cmpne	r0, #90	; 0x5a
b0006044:	04973004 	ldreq	r3, [r7], #4
b0006048:	01a01003 	moveq	r1, r3
b000604c:	03a02000 	moveq	r2, #0	; 0x0
b0006050:	0a000015 	beq	b00060ac <vsnprintf+0x4a4>
b0006054:	e3500068 	cmp	r0, #104	; 0x68
b0006058:	e2873004 	add	r3, r7, #4	; 0x4
b000605c:	e2082002 	and	r2, r8, #2	; 0x2
b0006060:	1a00000a 	bne	b0006090 <vsnprintf+0x488>
b0006064:	e1a07003 	mov	r7, r3
b0006068:	e5133004 	ldr	r3, [r3, #-4]
b000606c:	e1a03803 	mov	r3, r3, lsl #16
b0006070:	e1a01823 	mov	r1, r3, lsr #16
b0006074:	e3520000 	cmp	r2, #0	; 0x0
b0006078:	e3a02000 	mov	r2, #0	; 0x0
b000607c:	11a03001 	movne	r3, r1
b0006080:	11a03803 	movne	r3, r3, lsl #16
b0006084:	11a01843 	movne	r1, r3, asr #16
b0006088:	1a000006 	bne	b00060a8 <vsnprintf+0x4a0>
b000608c:	ea000006 	b	b00060ac <vsnprintf+0x4a4>
b0006090:	e1a07003 	mov	r7, r3
b0006094:	e5133004 	ldr	r3, [r3, #-4]
b0006098:	e3520000 	cmp	r2, #0	; 0x0
b000609c:	e1a01003 	mov	r1, r3
b00060a0:	e3a02000 	mov	r2, #0	; 0x0
b00060a4:	0a000000 	beq	b00060ac <vsnprintf+0x4a4>
b00060a8:	e1a02fc1 	mov	r2, r1, asr #31
b00060ac:	e1a03002 	mov	r3, r2
b00060b0:	e1a02001 	mov	r2, r1
b00060b4:	e1a00004 	mov	r0, r4
b00060b8:	e1a0100a 	mov	r1, sl
b00060bc:	e58dc000 	str	ip, [sp]
b00060c0:	e98d4040 	stmib	sp, {r6, lr}
b00060c4:	e58d800c 	str	r8, [sp, #12]
b00060c8:	ebfffe1e 	bl	b0005948 <number>
b00060cc:	e1a04000 	mov	r4, r0
b00060d0:	e59d2010 	ldr	r2, [sp, #16]
b00060d4:	e2823001 	add	r3, r2, #1	; 0x1
b00060d8:	e58d3010 	str	r3, [sp, #16]
b00060dc:	e1a01003 	mov	r1, r3
b00060e0:	e5d23001 	ldrb	r3, [r2, #1]
b00060e4:	eafffedb 	b	b0005c58 <vsnprintf+0x50>
b00060e8:	e154000a 	cmp	r4, sl
b00060ec:	93a03000 	movls	r3, #0	; 0x0
b00060f0:	95c43000 	strlsb	r3, [r4]
b00060f4:	9a000002 	bls	b0006104 <vsnprintf+0x4fc>
b00060f8:	e35b0000 	cmp	fp, #0	; 0x0
b00060fc:	13a03000 	movne	r3, #0	; 0x0
b0006100:	15ca3000 	strneb	r3, [sl]
b0006104:	e0690004 	rsb	r0, r9, r4
b0006108:	e28dd014 	add	sp, sp, #20	; 0x14
b000610c:	e8bd8ff0 	ldmia	sp!, {r4, r5, r6, r7, r8, r9, sl, fp, pc}
b0006110:	b0009128 	andlt	r9, r0, r8, lsr #2
b0006114:	b000912c 	andlt	r9, r0, ip, lsr #2
b0006118:	b0008fc0 	andlt	r8, r0, r0, asr #31

b000611c <vscnprintf>:
b000611c:	e92d4010 	stmdb	sp!, {r4, lr}
b0006120:	e1a04001 	mov	r4, r1
b0006124:	ebfffeb7 	bl	b0005c08 <vsnprintf>
b0006128:	e1500004 	cmp	r0, r4
b000612c:	e2444001 	sub	r4, r4, #1	; 0x1
b0006130:	31a04000 	movcc	r4, r0
b0006134:	e1a00004 	mov	r0, r4
b0006138:	e8bd8010 	ldmia	sp!, {r4, pc}

b000613c <snprintf>:
b000613c:	e92d000c 	stmdb	sp!, {r2, r3}
b0006140:	e52de004 	str	lr, [sp, #-4]!
b0006144:	e59d2004 	ldr	r2, [sp, #4]
b0006148:	e28d3008 	add	r3, sp, #8	; 0x8
b000614c:	ebfffead 	bl	b0005c08 <vsnprintf>
b0006150:	e49de004 	ldr	lr, [sp], #4
b0006154:	e28dd008 	add	sp, sp, #8	; 0x8
b0006158:	e1a0f00e 	mov	pc, lr

b000615c <scnprintf>:
b000615c:	e92d000c 	stmdb	sp!, {r2, r3}
b0006160:	e92d4010 	stmdb	sp!, {r4, lr}
b0006164:	e59d2008 	ldr	r2, [sp, #8]
b0006168:	e1a04001 	mov	r4, r1
b000616c:	e28d300c 	add	r3, sp, #12	; 0xc
b0006170:	ebfffea4 	bl	b0005c08 <vsnprintf>
b0006174:	e1500004 	cmp	r0, r4
b0006178:	e2444001 	sub	r4, r4, #1	; 0x1
b000617c:	31a04000 	movcc	r4, r0
b0006180:	e1a00004 	mov	r0, r4
b0006184:	e8bd4010 	ldmia	sp!, {r4, lr}
b0006188:	e28dd008 	add	sp, sp, #8	; 0x8
b000618c:	e1a0f00e 	mov	pc, lr

b0006190 <vsprintf>:
b0006190:	e1a03002 	mov	r3, r2
b0006194:	e1a02001 	mov	r2, r1
b0006198:	e3e01102 	mvn	r1, #-2147483648	; 0x80000000
b000619c:	eafffe99 	b	b0005c08 <vsnprintf>

b00061a0 <sprintf>:
b00061a0:	e92d000e 	stmdb	sp!, {r1, r2, r3}
b00061a4:	e52de004 	str	lr, [sp, #-4]!
b00061a8:	e59d1004 	ldr	r1, [sp, #4]
b00061ac:	e28d2008 	add	r2, sp, #8	; 0x8
b00061b0:	ebfffff6 	bl	b0006190 <vsprintf>
b00061b4:	e49de004 	ldr	lr, [sp], #4
b00061b8:	e28dd00c 	add	sp, sp, #12	; 0xc
b00061bc:	e1a0f00e 	mov	pc, lr

b00061c0 <vsscanf>:
b00061c0:	e92d47f0 	stmdb	sp!, {r4, r5, r6, r7, r8, r9, sl, lr}
b00061c4:	e3a0a000 	mov	sl, #0	; 0x0
b00061c8:	e1a09000 	mov	r9, r0
b00061cc:	e1a05002 	mov	r5, r2
b00061d0:	e1a04000 	mov	r4, r0
b00061d4:	e24dd008 	sub	sp, sp, #8	; 0x8
b00061d8:	e58d1004 	str	r1, [sp, #4]
b00061dc:	e5d13000 	ldrb	r3, [r1]
b00061e0:	e153000a 	cmp	r3, sl
b00061e4:	0a00015a 	beq	b0006754 <vsscanf+0x594>
b00061e8:	e5d03000 	ldrb	r3, [r0]
b00061ec:	e153000a 	cmp	r3, sl
b00061f0:	0a000157 	beq	b0006754 <vsscanf+0x594>
b00061f4:	e59d2004 	ldr	r2, [sp, #4]
b00061f8:	e59f1560 	ldr	r1, [pc, #1376]	; b0006760 <.text+0x6760>
b00061fc:	e5d23000 	ldrb	r3, [r2]
b0006200:	e7d13003 	ldrb	r3, [r1, r3]
b0006204:	e3130020 	tst	r3, #32	; 0x20
b0006208:	0a00000e 	beq	b0006248 <vsscanf+0x88>
b000620c:	e2822001 	add	r2, r2, #1	; 0x1
b0006210:	e58d2004 	str	r2, [sp, #4]
b0006214:	e4d23001 	ldrb	r3, [r2], #1
b0006218:	e7d13003 	ldrb	r3, [r1, r3]
b000621c:	e3130020 	tst	r3, #32	; 0x20
b0006220:	1afffffa 	bne	b0006210 <vsscanf+0x50>
b0006224:	e5d43000 	ldrb	r3, [r4]
b0006228:	e7d13003 	ldrb	r3, [r1, r3]
b000622c:	e59f252c 	ldr	r2, [pc, #1324]	; b0006760 <.text+0x6760>
b0006230:	e3130020 	tst	r3, #32	; 0x20
b0006234:	0a000003 	beq	b0006248 <vsscanf+0x88>
b0006238:	e5f43001 	ldrb	r3, [r4, #1]!
b000623c:	e7d23003 	ldrb	r3, [r2, r3]
b0006240:	e3130020 	tst	r3, #32	; 0x20
b0006244:	eafffffa 	b	b0006234 <vsscanf+0x74>
b0006248:	e59d1004 	ldr	r1, [sp, #4]
b000624c:	e5d12000 	ldrb	r2, [r1]
b0006250:	e3520025 	cmp	r2, #37	; 0x25
b0006254:	13520000 	cmpne	r2, #0	; 0x0
b0006258:	0a000004 	beq	b0006270 <vsscanf+0xb0>
b000625c:	e4d43001 	ldrb	r3, [r4], #1
b0006260:	e1520003 	cmp	r2, r3
b0006264:	e2813001 	add	r3, r1, #1	; 0x1
b0006268:	e58d3004 	str	r3, [sp, #4]
b000626c:	ea0000a1 	b	b00064f8 <vsscanf+0x338>
b0006270:	e3520000 	cmp	r2, #0	; 0x0
b0006274:	0a000136 	beq	b0006754 <vsscanf+0x594>
b0006278:	e2812001 	add	r2, r1, #1	; 0x1
b000627c:	e58d2004 	str	r2, [sp, #4]
b0006280:	e59f04d8 	ldr	r0, [pc, #1240]	; b0006760 <.text+0x6760>
b0006284:	e5d13001 	ldrb	r3, [r1, #1]
b0006288:	e353002a 	cmp	r3, #42	; 0x2a
b000628c:	1a000015 	bne	b00062e8 <vsscanf+0x128>
b0006290:	e7d03003 	ldrb	r3, [r0, r3]
b0006294:	e3130020 	tst	r3, #32	; 0x20
b0006298:	1a000007 	bne	b00062bc <vsscanf+0xfc>
b000629c:	e2822001 	add	r2, r2, #1	; 0x1
b00062a0:	e58d2004 	str	r2, [sp, #4]
b00062a4:	e4d21001 	ldrb	r1, [r2], #1
b00062a8:	e7d03001 	ldrb	r3, [r0, r1]
b00062ac:	e3130020 	tst	r3, #32	; 0x20
b00062b0:	1a000001 	bne	b00062bc <vsscanf+0xfc>
b00062b4:	e3510000 	cmp	r1, #0	; 0x0
b00062b8:	1afffff8 	bne	b00062a0 <vsscanf+0xe0>
b00062bc:	e5d42000 	ldrb	r2, [r4]
b00062c0:	e7d03002 	ldrb	r3, [r0, r2]
b00062c4:	e59f1494 	ldr	r1, [pc, #1172]	; b0006760 <.text+0x6760>
b00062c8:	e3130020 	tst	r3, #32	; 0x20
b00062cc:	1a000119 	bne	b0006738 <vsscanf+0x578>
b00062d0:	e3520000 	cmp	r2, #0	; 0x0
b00062d4:	0a000117 	beq	b0006738 <vsscanf+0x578>
b00062d8:	e5f42001 	ldrb	r2, [r4, #1]!
b00062dc:	e7d13002 	ldrb	r3, [r1, r2]
b00062e0:	e3130020 	tst	r3, #32	; 0x20
b00062e4:	eafffff8 	b	b00062cc <vsscanf+0x10c>
b00062e8:	e7d03003 	ldrb	r3, [r0, r3]
b00062ec:	e3130004 	tst	r3, #4	; 0x4
b00062f0:	e1a08000 	mov	r8, r0
b00062f4:	e3e00000 	mvn	r0, #0	; 0x0
b00062f8:	128d0004 	addne	r0, sp, #4	; 0x4
b00062fc:	1bfffd7d 	blne	b00058f8 <skip_atoi>
b0006300:	e59d1004 	ldr	r1, [sp, #4]
b0006304:	e5d13000 	ldrb	r3, [r1]
b0006308:	e353006c 	cmp	r3, #108	; 0x6c
b000630c:	13530068 	cmpne	r3, #104	; 0x68
b0006310:	e3e06000 	mvn	r6, #0	; 0x0
b0006314:	0a000005 	beq	b0006330 <vsscanf+0x170>
b0006318:	e353004c 	cmp	r3, #76	; 0x4c
b000631c:	0a000003 	beq	b0006330 <vsscanf+0x170>
b0006320:	e353005a 	cmp	r3, #90	; 0x5a
b0006324:	0a000001 	beq	b0006330 <vsscanf+0x170>
b0006328:	e353007a 	cmp	r3, #122	; 0x7a
b000632c:	1a00000e 	bne	b000636c <vsscanf+0x1ac>
b0006330:	e1a02001 	mov	r2, r1
b0006334:	e4d26001 	ldrb	r6, [r2], #1
b0006338:	e58d2004 	str	r2, [sp, #4]
b000633c:	e5d13001 	ldrb	r3, [r1, #1]
b0006340:	e1560003 	cmp	r6, r3
b0006344:	1a000008 	bne	b000636c <vsscanf+0x1ac>
b0006348:	e3560068 	cmp	r6, #104	; 0x68
b000634c:	02823001 	addeq	r3, r2, #1	; 0x1
b0006350:	02466020 	subeq	r6, r6, #32	; 0x20
b0006354:	058d3004 	streq	r3, [sp, #4]
b0006358:	0a000003 	beq	b000636c <vsscanf+0x1ac>
b000635c:	e356006c 	cmp	r6, #108	; 0x6c
b0006360:	02823001 	addeq	r3, r2, #1	; 0x1
b0006364:	058d3004 	streq	r3, [sp, #4]
b0006368:	02466020 	subeq	r6, r6, #32	; 0x20
b000636c:	e59dc004 	ldr	ip, [sp, #4]
b0006370:	e5dc1000 	ldrb	r1, [ip]
b0006374:	e3510000 	cmp	r1, #0	; 0x0
b0006378:	e3a0e00a 	mov	lr, #10	; 0xa
b000637c:	e3a07000 	mov	r7, #0	; 0x0
b0006380:	0a0000f3 	beq	b0006754 <vsscanf+0x594>
b0006384:	e5d43000 	ldrb	r3, [r4]
b0006388:	e1530007 	cmp	r3, r7
b000638c:	0a0000f0 	beq	b0006754 <vsscanf+0x594>
b0006390:	e28c3001 	add	r3, ip, #1	; 0x1
b0006394:	e351006e 	cmp	r1, #110	; 0x6e
b0006398:	e58d3004 	str	r3, [sp, #4]
b000639c:	0a000048 	beq	b00064c4 <vsscanf+0x304>
b00063a0:	ca00000b 	bgt	b00063d4 <vsscanf+0x214>
b00063a4:	e3510063 	cmp	r1, #99	; 0x63
b00063a8:	0a000014 	beq	b0006400 <vsscanf+0x240>
b00063ac:	ca000003 	bgt	b00063c0 <vsscanf+0x200>
b00063b0:	e3510025 	cmp	r1, #37	; 0x25
b00063b4:	0a00004d 	beq	b00064f0 <vsscanf+0x330>
b00063b8:	e3510058 	cmp	r1, #88	; 0x58
b00063bc:	ea00000d 	b	b00063f8 <vsscanf+0x238>
b00063c0:	e3510064 	cmp	r1, #100	; 0x64
b00063c4:	0a000047 	beq	b00064e8 <vsscanf+0x328>
b00063c8:	e3510069 	cmp	r1, #105	; 0x69
b00063cc:	0a000044 	beq	b00064e4 <vsscanf+0x324>
b00063d0:	ea0000df 	b	b0006754 <vsscanf+0x594>
b00063d4:	e3510073 	cmp	r1, #115	; 0x73
b00063d8:	0a000015 	beq	b0006434 <vsscanf+0x274>
b00063dc:	ca000002 	bgt	b00063ec <vsscanf+0x22c>
b00063e0:	e351006f 	cmp	r1, #111	; 0x6f
b00063e4:	0a00003a 	beq	b00064d4 <vsscanf+0x314>
b00063e8:	ea0000d9 	b	b0006754 <vsscanf+0x594>
b00063ec:	e3510075 	cmp	r1, #117	; 0x75
b00063f0:	0a000042 	beq	b0006500 <vsscanf+0x340>
b00063f4:	e3510078 	cmp	r1, #120	; 0x78
b00063f8:	0a000037 	beq	b00064dc <vsscanf+0x31c>
b00063fc:	ea0000d4 	b	b0006754 <vsscanf+0x594>
b0006400:	e3700001 	cmn	r0, #1	; 0x1
b0006404:	e4952004 	ldr	r2, [r5], #4
b0006408:	03a00001 	moveq	r0, #1	; 0x1
b000640c:	e2400001 	sub	r0, r0, #1	; 0x1
b0006410:	e4d43001 	ldrb	r3, [r4], #1
b0006414:	e3500000 	cmp	r0, #0	; 0x0
b0006418:	e4c23001 	strb	r3, [r2], #1
b000641c:	da000002 	ble	b000642c <vsscanf+0x26c>
b0006420:	e5d43000 	ldrb	r3, [r4]
b0006424:	e3530000 	cmp	r3, #0	; 0x0
b0006428:	1afffff7 	bne	b000640c <vsscanf+0x24c>
b000642c:	e28aa001 	add	sl, sl, #1	; 0x1
b0006430:	ea0000c0 	b	b0006738 <vsscanf+0x578>
b0006434:	e5d43000 	ldrb	r3, [r4]
b0006438:	e7d83003 	ldrb	r3, [r8, r3]
b000643c:	e3700001 	cmn	r0, #1	; 0x1
b0006440:	e4951004 	ldr	r1, [r5], #4
b0006444:	e59f2314 	ldr	r2, [pc, #788]	; b0006760 <.text+0x6760>
b0006448:	03e00102 	mvneq	r0, #-2147483648	; 0x80000000
b000644c:	e3130020 	tst	r3, #32	; 0x20
b0006450:	0a000003 	beq	b0006464 <vsscanf+0x2a4>
b0006454:	e5f43001 	ldrb	r3, [r4, #1]!
b0006458:	e7d23003 	ldrb	r3, [r2, r3]
b000645c:	e3130020 	tst	r3, #32	; 0x20
b0006460:	eafffffa 	b	b0006450 <vsscanf+0x290>
b0006464:	e5d42000 	ldrb	r2, [r4]
b0006468:	e20230ff 	and	r3, r2, #255	; 0xff
b000646c:	e3530000 	cmp	r3, #0	; 0x0
b0006470:	0a00000f 	beq	b00064b4 <vsscanf+0x2f4>
b0006474:	e7d83003 	ldrb	r3, [r8, r3]
b0006478:	e3130020 	tst	r3, #32	; 0x20
b000647c:	e59fc2dc 	ldr	ip, [pc, #732]	; b0006760 <.text+0x6760>
b0006480:	1a00000b 	bne	b00064b4 <vsscanf+0x2f4>
b0006484:	e2400001 	sub	r0, r0, #1	; 0x1
b0006488:	e3700001 	cmn	r0, #1	; 0x1
b000648c:	0a000008 	beq	b00064b4 <vsscanf+0x2f4>
b0006490:	e4c12001 	strb	r2, [r1], #1
b0006494:	e2400001 	sub	r0, r0, #1	; 0x1
b0006498:	e5f42001 	ldrb	r2, [r4, #1]!
b000649c:	e20230ff 	and	r3, r2, #255	; 0xff
b00064a0:	e3530000 	cmp	r3, #0	; 0x0
b00064a4:	0a000002 	beq	b00064b4 <vsscanf+0x2f4>
b00064a8:	e7dc3003 	ldrb	r3, [ip, r3]
b00064ac:	e3130020 	tst	r3, #32	; 0x20
b00064b0:	0afffff4 	beq	b0006488 <vsscanf+0x2c8>
b00064b4:	e3a03000 	mov	r3, #0	; 0x0
b00064b8:	e28aa001 	add	sl, sl, #1	; 0x1
b00064bc:	e5c13000 	strb	r3, [r1]
b00064c0:	ea00009c 	b	b0006738 <vsscanf+0x578>
b00064c4:	e4952004 	ldr	r2, [r5], #4
b00064c8:	e0693004 	rsb	r3, r9, r4
b00064cc:	e5823000 	str	r3, [r2]
b00064d0:	ea000098 	b	b0006738 <vsscanf+0x578>
b00064d4:	e3a0e008 	mov	lr, #8	; 0x8
b00064d8:	ea000008 	b	b0006500 <vsscanf+0x340>
b00064dc:	e3a0e010 	mov	lr, #16	; 0x10
b00064e0:	ea000006 	b	b0006500 <vsscanf+0x340>
b00064e4:	e1a0e007 	mov	lr, r7
b00064e8:	e3a07001 	mov	r7, #1	; 0x1
b00064ec:	ea000003 	b	b0006500 <vsscanf+0x340>
b00064f0:	e4d43001 	ldrb	r3, [r4], #1
b00064f4:	e3530025 	cmp	r3, #37	; 0x25
b00064f8:	0a00008e 	beq	b0006738 <vsscanf+0x578>
b00064fc:	ea000094 	b	b0006754 <vsscanf+0x594>
b0006500:	e5d43000 	ldrb	r3, [r4]
b0006504:	e7d83003 	ldrb	r3, [r8, r3]
b0006508:	e59f2250 	ldr	r2, [pc, #592]	; b0006760 <.text+0x6760>
b000650c:	e3130020 	tst	r3, #32	; 0x20
b0006510:	0a000003 	beq	b0006524 <vsscanf+0x364>
b0006514:	e5f43001 	ldrb	r3, [r4, #1]!
b0006518:	e7d23003 	ldrb	r3, [r2, r3]
b000651c:	e3130020 	tst	r3, #32	; 0x20
b0006520:	eafffffa 	b	b0006510 <vsscanf+0x350>
b0006524:	e5d41000 	ldrb	r1, [r4]
b0006528:	e351002d 	cmp	r1, #45	; 0x2d
b000652c:	13a03000 	movne	r3, #0	; 0x0
b0006530:	02073001 	andeq	r3, r7, #1	; 0x1
b0006534:	e3530000 	cmp	r3, #0	; 0x0
b0006538:	15d41001 	ldrneb	r1, [r4, #1]
b000653c:	e3510000 	cmp	r1, #0	; 0x0
b0006540:	0a000083 	beq	b0006754 <vsscanf+0x594>
b0006544:	e35e0010 	cmp	lr, #16	; 0x10
b0006548:	1a000003 	bne	b000655c <vsscanf+0x39c>
b000654c:	e7d83001 	ldrb	r3, [r8, r1]
b0006550:	e3130044 	tst	r3, #68	; 0x44
b0006554:	0a00007e 	beq	b0006754 <vsscanf+0x594>
b0006558:	ea000006 	b	b0006578 <vsscanf+0x3b8>
b000655c:	e35e000a 	cmp	lr, #10	; 0xa
b0006560:	1a000004 	bne	b0006578 <vsscanf+0x3b8>
b0006564:	e59f31f4 	ldr	r3, [pc, #500]	; b0006760 <.text+0x6760>
b0006568:	e7d33001 	ldrb	r3, [r3, r1]
b000656c:	e3130004 	tst	r3, #4	; 0x4
b0006570:	0a000077 	beq	b0006754 <vsscanf+0x594>
b0006574:	ea00000a 	b	b00065a4 <vsscanf+0x3e4>
b0006578:	e35e0008 	cmp	lr, #8	; 0x8
b000657c:	1a000008 	bne	b00065a4 <vsscanf+0x3e4>
b0006580:	e59f31d8 	ldr	r3, [pc, #472]	; b0006760 <.text+0x6760>
b0006584:	e7d33001 	ldrb	r3, [r3, r1]
b0006588:	e1a03123 	mov	r3, r3, lsr #2
b000658c:	e2233001 	eor	r3, r3, #1	; 0x1
b0006590:	e3510037 	cmp	r1, #55	; 0x37
b0006594:	83833001 	orrhi	r3, r3, #1	; 0x1
b0006598:	e3130001 	tst	r3, #1	; 0x1
b000659c:	1a00006c 	bne	b0006754 <vsscanf+0x594>
b00065a0:	ea000005 	b	b00065bc <vsscanf+0x3fc>
b00065a4:	e35e0000 	cmp	lr, #0	; 0x0
b00065a8:	1a000003 	bne	b00065bc <vsscanf+0x3fc>
b00065ac:	e59f31ac 	ldr	r3, [pc, #428]	; b0006760 <.text+0x6760>
b00065b0:	e7d33001 	ldrb	r3, [r3, r1]
b00065b4:	e3130004 	tst	r3, #4	; 0x4
b00065b8:	0a000065 	beq	b0006754 <vsscanf+0x594>
b00065bc:	e356005a 	cmp	r6, #90	; 0x5a
b00065c0:	0a000042 	beq	b00066d0 <vsscanf+0x510>
b00065c4:	ca000004 	bgt	b00065dc <vsscanf+0x41c>
b00065c8:	e3560048 	cmp	r6, #72	; 0x48
b00065cc:	0a00000b 	beq	b0006600 <vsscanf+0x440>
b00065d0:	e356004c 	cmp	r6, #76	; 0x4c
b00065d4:	0a00002c 	beq	b000668c <vsscanf+0x4cc>
b00065d8:	ea000041 	b	b00066e4 <vsscanf+0x524>
b00065dc:	e356006c 	cmp	r6, #108	; 0x6c
b00065e0:	0a00003f 	beq	b00066e4 <vsscanf+0x524>
b00065e4:	ca000002 	bgt	b00065f4 <vsscanf+0x434>
b00065e8:	e3560068 	cmp	r6, #104	; 0x68
b00065ec:	0a000013 	beq	b0006640 <vsscanf+0x480>
b00065f0:	ea00003b 	b	b00066e4 <vsscanf+0x524>
b00065f4:	e356007a 	cmp	r6, #122	; 0x7a
b00065f8:	0a000034 	beq	b00066d0 <vsscanf+0x510>
b00065fc:	ea000038 	b	b00066e4 <vsscanf+0x524>
b0006600:	e3570000 	cmp	r7, #0	; 0x0
b0006604:	e2852004 	add	r2, r5, #4	; 0x4
b0006608:	e1a0100d 	mov	r1, sp
b000660c:	0a000005 	beq	b0006628 <vsscanf+0x468>
b0006610:	e1a05002 	mov	r5, r2
b0006614:	e1a00004 	mov	r0, r4
b0006618:	e1a0200e 	mov	r2, lr
b000661c:	e5154004 	ldr	r4, [r5, #-4]
b0006620:	ebfffc51 	bl	b000576c <simple_strtol>
b0006624:	ea000016 	b	b0006684 <vsscanf+0x4c4>
b0006628:	e1a05002 	mov	r5, r2
b000662c:	e1a00004 	mov	r0, r4
b0006630:	e1a0200e 	mov	r2, lr
b0006634:	e5154004 	ldr	r4, [r5, #-4]
b0006638:	ebfffc0f 	bl	b000567c <simple_strtoul>
b000663c:	ea000010 	b	b0006684 <vsscanf+0x4c4>
b0006640:	e3570000 	cmp	r7, #0	; 0x0
b0006644:	e2852004 	add	r2, r5, #4	; 0x4
b0006648:	e1a0100d 	mov	r1, sp
b000664c:	0a000005 	beq	b0006668 <vsscanf+0x4a8>
b0006650:	e1a05002 	mov	r5, r2
b0006654:	e1a00004 	mov	r0, r4
b0006658:	e1a0200e 	mov	r2, lr
b000665c:	e5154004 	ldr	r4, [r5, #-4]
b0006660:	ebfffc41 	bl	b000576c <simple_strtol>
b0006664:	ea000004 	b	b000667c <vsscanf+0x4bc>
b0006668:	e1a05002 	mov	r5, r2
b000666c:	e1a00004 	mov	r0, r4
b0006670:	e1a0200e 	mov	r2, lr
b0006674:	e5154004 	ldr	r4, [r5, #-4]
b0006678:	ebfffbff 	bl	b000567c <simple_strtoul>
b000667c:	e1a03440 	mov	r3, r0, asr #8
b0006680:	e5c43001 	strb	r3, [r4, #1]
b0006684:	e5c40000 	strb	r0, [r4]
b0006688:	ea000025 	b	b0006724 <vsscanf+0x564>
b000668c:	e3570000 	cmp	r7, #0	; 0x0
b0006690:	e2852004 	add	r2, r5, #4	; 0x4
b0006694:	e1a0100d 	mov	r1, sp
b0006698:	0a000005 	beq	b00066b4 <vsscanf+0x4f4>
b000669c:	e1a05002 	mov	r5, r2
b00066a0:	e1a00004 	mov	r0, r4
b00066a4:	e1a0200e 	mov	r2, lr
b00066a8:	e5154004 	ldr	r4, [r5, #-4]
b00066ac:	ebfffc86 	bl	b00058cc <simple_strtoll>
b00066b0:	ea000004 	b	b00066c8 <vsscanf+0x508>
b00066b4:	e1a05002 	mov	r5, r2
b00066b8:	e1a00004 	mov	r0, r4
b00066bc:	e1a0200e 	mov	r2, lr
b00066c0:	e5154004 	ldr	r4, [r5, #-4]
b00066c4:	ebfffc32 	bl	b0005794 <simple_strtoull>
b00066c8:	e8840003 	stmia	r4, {r0, r1}
b00066cc:	ea000014 	b	b0006724 <vsscanf+0x564>
b00066d0:	e1a00004 	mov	r0, r4
b00066d4:	e4954004 	ldr	r4, [r5], #4
b00066d8:	e1a0200e 	mov	r2, lr
b00066dc:	e1a0100d 	mov	r1, sp
b00066e0:	ea00000d 	b	b000671c <vsscanf+0x55c>
b00066e4:	e3570000 	cmp	r7, #0	; 0x0
b00066e8:	e2852004 	add	r2, r5, #4	; 0x4
b00066ec:	01a05002 	moveq	r5, r2
b00066f0:	01a00004 	moveq	r0, r4
b00066f4:	e1a0100d 	mov	r1, sp
b00066f8:	01a0200e 	moveq	r2, lr
b00066fc:	05154004 	ldreq	r4, [r5, #-4]
b0006700:	0a000005 	beq	b000671c <vsscanf+0x55c>
b0006704:	e1a05002 	mov	r5, r2
b0006708:	e1a00004 	mov	r0, r4
b000670c:	e1a0200e 	mov	r2, lr
b0006710:	e5154004 	ldr	r4, [r5, #-4]
b0006714:	ebfffc14 	bl	b000576c <simple_strtol>
b0006718:	ea000000 	b	b0006720 <vsscanf+0x560>
b000671c:	ebfffbd6 	bl	b000567c <simple_strtoul>
b0006720:	e5840000 	str	r0, [r4]
b0006724:	e59d0000 	ldr	r0, [sp]
b0006728:	e3500000 	cmp	r0, #0	; 0x0
b000672c:	e28aa001 	add	sl, sl, #1	; 0x1
b0006730:	0a000007 	beq	b0006754 <vsscanf+0x594>
b0006734:	e1a04000 	mov	r4, r0
b0006738:	e59d3004 	ldr	r3, [sp, #4]
b000673c:	e5d33000 	ldrb	r3, [r3]
b0006740:	e3530000 	cmp	r3, #0	; 0x0
b0006744:	0a000002 	beq	b0006754 <vsscanf+0x594>
b0006748:	e5d43000 	ldrb	r3, [r4]
b000674c:	e3530000 	cmp	r3, #0	; 0x0
b0006750:	eafffea6 	b	b00061f0 <vsscanf+0x30>
b0006754:	e1a0000a 	mov	r0, sl
b0006758:	e28dd008 	add	sp, sp, #8	; 0x8
b000675c:	e8bd87f0 	ldmia	sp!, {r4, r5, r6, r7, r8, r9, sl, pc}
b0006760:	b000912c 	andlt	r9, r0, ip, lsr #2

b0006764 <sscanf>:
b0006764:	e92d000e 	stmdb	sp!, {r1, r2, r3}
b0006768:	e52de004 	str	lr, [sp, #-4]!
b000676c:	e59d1004 	ldr	r1, [sp, #4]
b0006770:	e28d2008 	add	r2, sp, #8	; 0x8
b0006774:	ebfffe91 	bl	b00061c0 <vsscanf>
b0006778:	e49de004 	ldr	lr, [sp], #4
b000677c:	e28dd00c 	add	sp, sp, #12	; 0xc
b0006780:	e1a0f00e 	mov	pc, lr
	...

b0006790 <__do_div64>:
b0006790:	e254c001 	subs	ip, r4, #1	; 0x1
b0006794:	9a00003f 	bls	b0006898 <__do_div64+0x108>
b0006798:	e11c0004 	tst	ip, r4
b000679c:	0a000028 	beq	b0006844 <__do_div64+0xb4>
b00067a0:	e1510004 	cmp	r1, r4
b00067a4:	e3a03000 	mov	r3, #0	; 0x0
b00067a8:	3a00000c 	bcc	b00067e0 <__do_div64+0x50>
b00067ac:	e1a02004 	mov	r2, r4
b00067b0:	e3a0c001 	mov	ip, #1	; 0x1
b00067b4:	e3520102 	cmp	r2, #-2147483648	; 0x80000000
b00067b8:	31520001 	cmpcc	r2, r1
b00067bc:	31a02082 	movcc	r2, r2, lsl #1
b00067c0:	31a0c08c 	movcc	ip, ip, lsl #1
b00067c4:	3afffffa 	bcc	b00067b4 <__do_div64+0x24>
b00067c8:	e1510002 	cmp	r1, r2
b00067cc:	2183300c 	orrcs	r3, r3, ip
b00067d0:	20511002 	subcss	r1, r1, r2
b00067d4:	11b0c0ac 	movnes	ip, ip, lsr #1
b00067d8:	e1a020a2 	mov	r2, r2, lsr #1
b00067dc:	1afffff9 	bne	b00067c8 <__do_div64+0x38>
b00067e0:	e3510000 	cmp	r1, #0	; 0x0
b00067e4:	e3a02000 	mov	r2, #0	; 0x0
b00067e8:	01500004 	cmpeq	r0, r4
b00067ec:	31a01000 	movcc	r1, r0
b00067f0:	31a0f00e 	movcc	pc, lr
b00067f4:	e3a0c102 	mov	ip, #-2147483648	; 0x80000000
b00067f8:	e1b00080 	movs	r0, r0, lsl #1
b00067fc:	e0b11001 	adcs	r1, r1, r1
b0006800:	0a000005 	beq	b000681c <__do_div64+0x8c>
b0006804:	31510004 	cmpcc	r1, r4
b0006808:	2182200c 	orrcs	r2, r2, ip
b000680c:	20411004 	subcs	r1, r1, r4
b0006810:	e1b0c0ac 	movs	ip, ip, lsr #1
b0006814:	1afffff7 	bne	b00067f8 <__do_div64+0x68>
b0006818:	e1a0f00e 	mov	pc, lr
b000681c:	2afffff9 	bcs	b0006808 <__do_div64+0x78>
b0006820:	e3500000 	cmp	r0, #0	; 0x0
b0006824:	01a0f00e 	moveq	pc, lr
b0006828:	e1b00080 	movs	r0, r0, lsl #1
b000682c:	e1a0c0ac 	mov	ip, ip, lsr #1
b0006830:	3afffffc 	bcc	b0006828 <__do_div64+0x98>
b0006834:	e1b0c0ac 	movs	ip, ip, lsr #1
b0006838:	e3a01001 	mov	r1, #1	; 0x1
b000683c:	1affffed 	bne	b00067f8 <__do_div64+0x68>
b0006840:	e1a0f00e 	mov	pc, lr
b0006844:	e1a02004 	mov	r2, r4
b0006848:	e3540801 	cmp	r4, #65536	; 0x10000
b000684c:	e3a0c000 	mov	ip, #0	; 0x0
b0006850:	21a02822 	movcs	r2, r2, lsr #16
b0006854:	23a0c010 	movcs	ip, #16	; 0x10
b0006858:	e3520c01 	cmp	r2, #256	; 0x100
b000685c:	21a02422 	movcs	r2, r2, lsr #8
b0006860:	228cc008 	addcs	ip, ip, #8	; 0x8
b0006864:	e3520010 	cmp	r2, #16	; 0x10
b0006868:	21a02222 	movcs	r2, r2, lsr #4
b000686c:	228cc004 	addcs	ip, ip, #4	; 0x4
b0006870:	e3520004 	cmp	r2, #4	; 0x4
b0006874:	828cc003 	addhi	ip, ip, #3	; 0x3
b0006878:	908cc0a2 	addls	ip, ip, r2, lsr #1
b000687c:	e1a03c31 	mov	r3, r1, lsr ip
b0006880:	e1a02c30 	mov	r2, r0, lsr ip
b0006884:	e26cc020 	rsb	ip, ip, #32	; 0x20
b0006888:	e1822c11 	orr	r2, r2, r1, lsl ip
b000688c:	e1a01c10 	mov	r1, r0, lsl ip
b0006890:	e1a01c31 	mov	r1, r1, lsr ip
b0006894:	e1a0f00e 	mov	pc, lr
b0006898:	01a02000 	moveq	r2, r0
b000689c:	01a03001 	moveq	r3, r1
b00068a0:	03a01000 	moveq	r1, #0	; 0x0
b00068a4:	01a0f00e 	moveq	pc, lr
b00068a8:	e52de004 	str	lr, [sp, #-4]!
b00068ac:	e3a02000 	mov	r2, #0	; 0x0
b00068b0:	e3a03000 	mov	r3, #0	; 0x0
b00068b4:	e3a01000 	mov	r1, #0	; 0x0
b00068b8:	e49df004 	ldr	pc, [sp], #4
b00068bc:	e1a00000 	nop			(mov r0,r0)

b00068c0 <__muldi3>:
b00068c0:	e00c0192 	mul	ip, r2, r1
b00068c4:	e02cc093 	mla	ip, r3, r0, ip
b00068c8:	e92d4030 	stmdb	sp!, {r4, r5, lr}
b00068cc:	e1a0e820 	mov	lr, r0, lsr #16
b00068d0:	e1a05822 	mov	r5, r2, lsr #16
b00068d4:	e1c0180e 	bic	r1, r0, lr, lsl #16
b00068d8:	e1c22805 	bic	r2, r2, r5, lsl #16
b00068dc:	e0030291 	mul	r3, r1, r2
b00068e0:	e002029e 	mul	r2, lr, r2
b00068e4:	e0010195 	mul	r1, r5, r1
b00068e8:	e005059e 	mul	r5, lr, r5
b00068ec:	e0921001 	adds	r1, r2, r1
b00068f0:	22855801 	addcs	r5, r5, #65536	; 0x10000
b00068f4:	e0933801 	adds	r3, r3, r1, lsl #16
b00068f8:	e0a55821 	adc	r5, r5, r1, lsr #16
b00068fc:	e1a04003 	mov	r4, r3
b0006900:	e1a01005 	mov	r1, r5
b0006904:	e1a00004 	mov	r0, r4
b0006908:	e08c1005 	add	r1, ip, r5
b000690c:	e8bd8030 	ldmia	sp!, {r4, r5, pc}

b0006910 <__subdf3>:
b0006910:	e2222102 	eor	r2, r2, #-2147483648	; 0x80000000

b0006914 <__adddf3>:
b0006914:	e1310003 	teq	r1, r3
b0006918:	0020c002 	eoreq	ip, r0, r2
b000691c:	033c0102 	teqeq	ip, #-2147483648	; 0x80000000
b0006920:	0a00009e 	beq	b0006ba0 <__adddf3+0x28c>
b0006924:	e191c080 	orrs	ip, r1, r0, lsl #1
b0006928:	01a01003 	moveq	r1, r3
b000692c:	01a00002 	moveq	r0, r2
b0006930:	1193c082 	orrnes	ip, r3, r2, lsl #1
b0006934:	01a0f00e 	moveq	pc, lr
b0006938:	e92d4030 	stmdb	sp!, {r4, r5, lr}
b000693c:	e3a0c47f 	mov	ip, #2130706432	; 0x7f000000
b0006940:	e38cc60f 	orr	ip, ip, #15728640	; 0xf00000
b0006944:	e000400c 	and	r4, r0, ip
b0006948:	e002500c 	and	r5, r2, ip
b000694c:	e134000c 	teq	r4, ip
b0006950:	1135000c 	teqne	r5, ip
b0006954:	0a00009c 	beq	b0006bcc <__adddf3+0x2b8>
b0006958:	e0555004 	subs	r5, r5, r4
b000695c:	b2655000 	rsblt	r5, r5, #0	; 0x0
b0006960:	da000006 	ble	b0006980 <__adddf3+0x6c>
b0006964:	e0844005 	add	r4, r4, r5
b0006968:	e0213003 	eor	r3, r1, r3
b000696c:	e0202002 	eor	r2, r0, r2
b0006970:	e0231001 	eor	r1, r3, r1
b0006974:	e0220000 	eor	r0, r2, r0
b0006978:	e0213003 	eor	r3, r1, r3
b000697c:	e0202002 	eor	r2, r0, r2
b0006980:	e3550636 	cmp	r5, #56623104	; 0x3600000
b0006984:	88bd8030 	ldmhiia	sp!, {r4, r5, pc}
b0006988:	e3100102 	tst	r0, #-2147483648	; 0x80000000
b000698c:	e1c0008c 	bic	r0, r0, ip, lsl #1
b0006990:	e3800601 	orr	r0, r0, #1048576	; 0x100000
b0006994:	0a000001 	beq	b00069a0 <__adddf3+0x8c>
b0006998:	e2711000 	rsbs	r1, r1, #0	; 0x0
b000699c:	e2e00000 	rsc	r0, r0, #0	; 0x0
b00069a0:	e3120102 	tst	r2, #-2147483648	; 0x80000000
b00069a4:	e1c2208c 	bic	r2, r2, ip, lsl #1
b00069a8:	e3822601 	orr	r2, r2, #1048576	; 0x100000
b00069ac:	0a000001 	beq	b00069b8 <__adddf3+0xa4>
b00069b0:	e2733000 	rsbs	r3, r3, #0	; 0x0
b00069b4:	e2e22000 	rsc	r2, r2, #0	; 0x0
b00069b8:	e1340005 	teq	r4, r5
b00069bc:	0a000071 	beq	b0006b88 <__adddf3+0x274>
b00069c0:	e3a0c000 	mov	ip, #0	; 0x0
b00069c4:	e1b05a25 	movs	r5, r5, lsr #20
b00069c8:	0a000013 	beq	b0006a1c <__adddf3+0x108>
b00069cc:	e3340601 	teq	r4, #1048576	; 0x100000
b00069d0:	0a000004 	beq	b00069e8 <__adddf3+0xd4>
b00069d4:	e1b01081 	movs	r1, r1, lsl #1
b00069d8:	e0ac0080 	adc	r0, ip, r0, lsl #1
b00069dc:	e2444601 	sub	r4, r4, #1048576	; 0x100000
b00069e0:	e2555001 	subs	r5, r5, #1	; 0x1
b00069e4:	0a00000c 	beq	b0006a1c <__adddf3+0x108>
b00069e8:	e275e020 	rsbs	lr, r5, #32	; 0x20
b00069ec:	ba000004 	blt	b0006a04 <__adddf3+0xf0>
b00069f0:	e1a0ce13 	mov	ip, r3, lsl lr
b00069f4:	e1a03533 	mov	r3, r3, lsr r5
b00069f8:	e1833e12 	orr	r3, r3, r2, lsl lr
b00069fc:	e1a02552 	mov	r2, r2, asr r5
b0006a00:	ea000005 	b	b0006a1c <__adddf3+0x108>
b0006a04:	e2455020 	sub	r5, r5, #32	; 0x20
b0006a08:	e28ee020 	add	lr, lr, #32	; 0x20
b0006a0c:	e3530001 	cmp	r3, #1	; 0x1
b0006a10:	e0acce12 	adc	ip, ip, r2, lsl lr
b0006a14:	e1a03552 	mov	r3, r2, asr r5
b0006a18:	e1a02042 	mov	r2, r2, asr #32
b0006a1c:	e0911003 	adds	r1, r1, r3
b0006a20:	e0a00002 	adc	r0, r0, r2
b0006a24:	e2105102 	ands	r5, r0, #-2147483648	; 0x80000000
b0006a28:	5a000002 	bpl	b0006a38 <__adddf3+0x124>
b0006a2c:	e27cc000 	rsbs	ip, ip, #0	; 0x0
b0006a30:	e2f11000 	rscs	r1, r1, #0	; 0x0
b0006a34:	e2e00000 	rsc	r0, r0, #0	; 0x0
b0006a38:	e3500601 	cmp	r0, #1048576	; 0x100000
b0006a3c:	3a000019 	bcc	b0006aa8 <__adddf3+0x194>
b0006a40:	e3500602 	cmp	r0, #2097152	; 0x200000
b0006a44:	3a00000b 	bcc	b0006a78 <__adddf3+0x164>
b0006a48:	e3500501 	cmp	r0, #4194304	; 0x400000
b0006a4c:	3a000004 	bcc	b0006a64 <__adddf3+0x150>
b0006a50:	e1b000a0 	movs	r0, r0, lsr #1
b0006a54:	e1b01061 	movs	r1, r1, rrx
b0006a58:	e1b0c06c 	movs	ip, ip, rrx
b0006a5c:	238cc001 	orrcs	ip, ip, #1	; 0x1
b0006a60:	e2844601 	add	r4, r4, #1048576	; 0x100000
b0006a64:	e1b000a0 	movs	r0, r0, lsr #1
b0006a68:	e1b01061 	movs	r1, r1, rrx
b0006a6c:	e1b0c06c 	movs	ip, ip, rrx
b0006a70:	238cc001 	orrcs	ip, ip, #1	; 0x1
b0006a74:	e2844601 	add	r4, r4, #1048576	; 0x100000
b0006a78:	e0911fac 	adds	r1, r1, ip, lsr #31
b0006a7c:	e2a00000 	adc	r0, r0, #0	; 0x0
b0006a80:	e33c0102 	teq	ip, #-2147483648	; 0x80000000
b0006a84:	03c11001 	biceq	r1, r1, #1	; 0x1
b0006a88:	e3100602 	tst	r0, #2097152	; 0x200000
b0006a8c:	12844601 	addne	r4, r4, #1048576	; 0x100000
b0006a90:	e294c601 	adds	ip, r4, #1048576	; 0x100000
b0006a94:	4a000048 	bmi	b0006bbc <__adddf3+0x2a8>
b0006a98:	e3c00603 	bic	r0, r0, #3145728	; 0x300000
b0006a9c:	e1800004 	orr	r0, r0, r4
b0006aa0:	e1800005 	orr	r0, r0, r5
b0006aa4:	e8bd8030 	ldmia	sp!, {r4, r5, pc}
b0006aa8:	e3300000 	teq	r0, #0	; 0x0
b0006aac:	13e0300a 	mvnne	r3, #10	; 0xa
b0006ab0:	03a03015 	moveq	r3, #21	; 0x15
b0006ab4:	01a00001 	moveq	r0, r1
b0006ab8:	03a01000 	moveq	r1, #0	; 0x0
b0006abc:	e1a02000 	mov	r2, r0
b0006ac0:	e1b0c820 	movs	ip, r0, lsr #16
b0006ac4:	01a02802 	moveq	r2, r2, lsl #16
b0006ac8:	02833010 	addeq	r3, r3, #16	; 0x10
b0006acc:	e31204ff 	tst	r2, #-16777216	; 0xff000000
b0006ad0:	01a02402 	moveq	r2, r2, lsl #8
b0006ad4:	02833008 	addeq	r3, r3, #8	; 0x8
b0006ad8:	e312020f 	tst	r2, #-268435456	; 0xf0000000
b0006adc:	01a02202 	moveq	r2, r2, lsl #4
b0006ae0:	02833004 	addeq	r3, r3, #4	; 0x4
b0006ae4:	e3120103 	tst	r2, #-1073741824	; 0xc0000000
b0006ae8:	01a02102 	moveq	r2, r2, lsl #2
b0006aec:	02833002 	addeq	r3, r3, #2	; 0x2
b0006af0:	e3120102 	tst	r2, #-2147483648	; 0x80000000
b0006af4:	02833001 	addeq	r3, r3, #1	; 0x1
b0006af8:	e2532020 	subs	r2, r3, #32	; 0x20
b0006afc:	aa000007 	bge	b0006b20 <__adddf3+0x20c>
b0006b00:	e292200c 	adds	r2, r2, #12	; 0xc
b0006b04:	da000004 	ble	b0006b1c <__adddf3+0x208>
b0006b08:	e282c014 	add	ip, r2, #20	; 0x14
b0006b0c:	e262200c 	rsb	r2, r2, #12	; 0xc
b0006b10:	e1a01c10 	mov	r1, r0, lsl ip
b0006b14:	e1a00230 	mov	r0, r0, lsr r2
b0006b18:	ea000004 	b	b0006b30 <__adddf3+0x21c>
b0006b1c:	e2822014 	add	r2, r2, #20	; 0x14
b0006b20:	d262c020 	rsble	ip, r2, #32	; 0x20
b0006b24:	e1a00210 	mov	r0, r0, lsl r2
b0006b28:	d1800c31 	orrle	r0, r0, r1, lsr ip
b0006b2c:	d1a01211 	movle	r1, r1, lsl r2
b0006b30:	e0544a03 	subs	r4, r4, r3, lsl #20
b0006b34:	caffffd7 	bgt	b0006a98 <__adddf3+0x184>
b0006b38:	e1e04a44 	mvn	r4, r4, asr #20
b0006b3c:	e254401e 	subs	r4, r4, #30	; 0x1e
b0006b40:	aa00000d 	bge	b0006b7c <__adddf3+0x268>
b0006b44:	e294400c 	adds	r4, r4, #12	; 0xc
b0006b48:	ca000005 	bgt	b0006b64 <__adddf3+0x250>
b0006b4c:	e2844014 	add	r4, r4, #20	; 0x14
b0006b50:	e2642020 	rsb	r2, r4, #32	; 0x20
b0006b54:	e1a01431 	mov	r1, r1, lsr r4
b0006b58:	e1811210 	orr	r1, r1, r0, lsl r2
b0006b5c:	e1850430 	orr	r0, r5, r0, lsr r4
b0006b60:	e8bd8030 	ldmia	sp!, {r4, r5, pc}
b0006b64:	e264400c 	rsb	r4, r4, #12	; 0xc
b0006b68:	e2642020 	rsb	r2, r4, #32	; 0x20
b0006b6c:	e1a01231 	mov	r1, r1, lsr r2
b0006b70:	e1811410 	orr	r1, r1, r0, lsl r4
b0006b74:	e1a00005 	mov	r0, r5
b0006b78:	e8bd8030 	ldmia	sp!, {r4, r5, pc}
b0006b7c:	e1a01430 	mov	r1, r0, lsr r4
b0006b80:	e1a00005 	mov	r0, r5
b0006b84:	e8bd8030 	ldmia	sp!, {r4, r5, pc}
b0006b88:	e3340000 	teq	r4, #0	; 0x0
b0006b8c:	02200601 	eoreq	r0, r0, #1048576	; 0x100000
b0006b90:	02844601 	addeq	r4, r4, #1048576	; 0x100000
b0006b94:	e2222601 	eor	r2, r2, #1048576	; 0x100000
b0006b98:	12455601 	subne	r5, r5, #1048576	; 0x100000
b0006b9c:	eaffff87 	b	b00069c0 <__adddf3+0xac>
b0006ba0:	e24cc601 	sub	ip, ip, #1048576	; 0x100000
b0006ba4:	e000200c 	and	r2, r0, ip
b0006ba8:	e132000c 	teq	r2, ip
b0006bac:	038c0702 	orreq	r0, ip, #524288	; 0x80000
b0006bb0:	13a00000 	movne	r0, #0	; 0x0
b0006bb4:	e3a01000 	mov	r1, #0	; 0x0
b0006bb8:	e1a0f00e 	mov	pc, lr
b0006bbc:	e385047f 	orr	r0, r5, #2130706432	; 0x7f000000
b0006bc0:	e380060f 	orr	r0, r0, #15728640	; 0xf00000
b0006bc4:	e3a01000 	mov	r1, #0	; 0x0
b0006bc8:	e8bd8030 	ldmia	sp!, {r4, r5, pc}
b0006bcc:	e134000c 	teq	r4, ip
b0006bd0:	11a00002 	movne	r0, r2
b0006bd4:	11a01003 	movne	r1, r3
b0006bd8:	0135000c 	teqeq	r5, ip
b0006bdc:	18bd8030 	ldmneia	sp!, {r4, r5, pc}
b0006be0:	e1914600 	orrs	r4, r1, r0, lsl #12
b0006be4:	01934602 	orreqs	r4, r3, r2, lsl #12
b0006be8:	01300002 	teqeq	r0, r2
b0006bec:	13850702 	orrne	r0, r5, #524288	; 0x80000
b0006bf0:	13a01000 	movne	r1, #0	; 0x0
b0006bf4:	e8bd8030 	ldmia	sp!, {r4, r5, pc}

b0006bf8 <__floatunsidf>:
b0006bf8:	e3300000 	teq	r0, #0	; 0x0
b0006bfc:	03a01000 	moveq	r1, #0	; 0x0
b0006c00:	01a0f00e 	moveq	pc, lr
b0006c04:	e92d4030 	stmdb	sp!, {r4, r5, lr}
b0006c08:	e3a04101 	mov	r4, #1073741824	; 0x40000000
b0006c0c:	e2844633 	add	r4, r4, #53477376	; 0x3300000
b0006c10:	e3a05000 	mov	r5, #0	; 0x0
b0006c14:	e1a01000 	mov	r1, r0
b0006c18:	e3a00000 	mov	r0, #0	; 0x0
b0006c1c:	eaffffa1 	b	b0006aa8 <__adddf3+0x194>

b0006c20 <__floatsidf>:
b0006c20:	e3300000 	teq	r0, #0	; 0x0
b0006c24:	03a01000 	moveq	r1, #0	; 0x0
b0006c28:	01a0f00e 	moveq	pc, lr
b0006c2c:	e92d4030 	stmdb	sp!, {r4, r5, lr}
b0006c30:	e3a04101 	mov	r4, #1073741824	; 0x40000000
b0006c34:	e2844633 	add	r4, r4, #53477376	; 0x3300000
b0006c38:	e2105102 	ands	r5, r0, #-2147483648	; 0x80000000
b0006c3c:	42600000 	rsbmi	r0, r0, #0	; 0x0
b0006c40:	e1a01000 	mov	r1, r0
b0006c44:	e3a00000 	mov	r0, #0	; 0x0
b0006c48:	eaffff96 	b	b0006aa8 <__adddf3+0x194>

b0006c4c <__extendsfdf2>:
b0006c4c:	e1b02080 	movs	r2, r0, lsl #1
b0006c50:	0a000007 	beq	b0006c74 <__extendsfdf2+0x28>
b0006c54:	e1a001c2 	mov	r0, r2, asr #3
b0006c58:	e1a00060 	mov	r0, r0, rrx
b0006c5c:	e1a01e02 	mov	r1, r2, lsl #28
b0006c60:	e21224ff 	ands	r2, r2, #-16777216	; 0xff000000
b0006c64:	0a000005 	beq	b0006c80 <__extendsfdf2+0x34>
b0006c68:	e33204ff 	teq	r2, #-16777216	; 0xff000000
b0006c6c:	1220030e 	eorne	r0, r0, #939524096	; 0x38000000
b0006c70:	e1a0f00e 	mov	pc, lr
b0006c74:	e1a00000 	nop			(mov r0,r0)
b0006c78:	e3a01000 	mov	r1, #0	; 0x0
b0006c7c:	e1a0f00e 	mov	pc, lr
b0006c80:	e92d4030 	stmdb	sp!, {r4, r5, lr}
b0006c84:	e3a0430e 	mov	r4, #939524096	; 0x38000000
b0006c88:	e2844601 	add	r4, r4, #1048576	; 0x100000
b0006c8c:	e2005102 	and	r5, r0, #-2147483648	; 0x80000000
b0006c90:	e3c00102 	bic	r0, r0, #-2147483648	; 0x80000000
b0006c94:	eaffff83 	b	b0006aa8 <__adddf3+0x194>

b0006c98 <__muldf3>:
b0006c98:	e92d4070 	stmdb	sp!, {r4, r5, r6, lr}
b0006c9c:	e3a0c47f 	mov	ip, #2130706432	; 0x7f000000
b0006ca0:	e38cc60f 	orr	ip, ip, #15728640	; 0xf00000
b0006ca4:	e000400c 	and	r4, r0, ip
b0006ca8:	e002500c 	and	r5, r2, ip
b0006cac:	e134000c 	teq	r4, ip
b0006cb0:	1135000c 	teqne	r5, ip
b0006cb4:	0a0000a8 	beq	b0006f5c <__muldf3+0x2c4>
b0006cb8:	e1916080 	orrs	r6, r1, r0, lsl #1
b0006cbc:	11936082 	orrnes	r6, r3, r2, lsl #1
b0006cc0:	0a00005e 	beq	b0006e40 <__muldf3+0x1a8>
b0006cc4:	e1b040a4 	movs	r4, r4, lsr #1
b0006cc8:	13350000 	teqne	r5, #0	; 0x0
b0006ccc:	0a00008e 	beq	b0006f0c <__muldf3+0x274>
b0006cd0:	e08440c5 	add	r4, r4, r5, asr #1
b0006cd4:	e1300002 	teq	r0, r2
b0006cd8:	43844902 	orrmi	r4, r4, #32768	; 0x8000
b0006cdc:	e1c0008c 	bic	r0, r0, ip, lsl #1
b0006ce0:	e1c2208c 	bic	r2, r2, ip, lsl #1
b0006ce4:	e3800601 	orr	r0, r0, #1048576	; 0x100000
b0006ce8:	e3822601 	orr	r2, r2, #1048576	; 0x100000
b0006cec:	e92d0f80 	stmdb	sp!, {r7, r8, r9, sl, fp}
b0006cf0:	e1a07821 	mov	r7, r1, lsr #16
b0006cf4:	e1a08823 	mov	r8, r3, lsr #16
b0006cf8:	e1a09820 	mov	r9, r0, lsr #16
b0006cfc:	e1a0a822 	mov	sl, r2, lsr #16
b0006d00:	e1c11807 	bic	r1, r1, r7, lsl #16
b0006d04:	e1c33808 	bic	r3, r3, r8, lsl #16
b0006d08:	e1c00809 	bic	r0, r0, r9, lsl #16
b0006d0c:	e1c2280a 	bic	r2, r2, sl, lsl #16
b0006d10:	e00c0391 	mul	ip, r1, r3
b0006d14:	e00b0891 	mul	fp, r1, r8
b0006d18:	e3a0e000 	mov	lr, #0	; 0x0
b0006d1c:	e09cc80b 	adds	ip, ip, fp, lsl #16
b0006d20:	e0aee82b 	adc	lr, lr, fp, lsr #16
b0006d24:	e00b0397 	mul	fp, r7, r3
b0006d28:	e09cc80b 	adds	ip, ip, fp, lsl #16
b0006d2c:	e0aee82b 	adc	lr, lr, fp, lsr #16
b0006d30:	e00b0a91 	mul	fp, r1, sl
b0006d34:	e3a05000 	mov	r5, #0	; 0x0
b0006d38:	e09ee80b 	adds	lr, lr, fp, lsl #16
b0006d3c:	e0a5582b 	adc	r5, r5, fp, lsr #16
b0006d40:	e00b0297 	mul	fp, r7, r2
b0006d44:	e09ee80b 	adds	lr, lr, fp, lsl #16
b0006d48:	e0a5582b 	adc	r5, r5, fp, lsr #16
b0006d4c:	e00b0890 	mul	fp, r0, r8
b0006d50:	e09ee80b 	adds	lr, lr, fp, lsl #16
b0006d54:	e0a5582b 	adc	r5, r5, fp, lsr #16
b0006d58:	e00b0399 	mul	fp, r9, r3
b0006d5c:	e09ee80b 	adds	lr, lr, fp, lsl #16
b0006d60:	e0a5582b 	adc	r5, r5, fp, lsr #16
b0006d64:	e00b0a90 	mul	fp, r0, sl
b0006d68:	e0060a99 	mul	r6, r9, sl
b0006d6c:	e095580b 	adds	r5, r5, fp, lsl #16
b0006d70:	e0a6682b 	adc	r6, r6, fp, lsr #16
b0006d74:	e00b0299 	mul	fp, r9, r2
b0006d78:	e095580b 	adds	r5, r5, fp, lsl #16
b0006d7c:	e0a6682b 	adc	r6, r6, fp, lsr #16
b0006d80:	e00b0291 	mul	fp, r1, r2
b0006d84:	e09ee00b 	adds	lr, lr, fp
b0006d88:	e00b0a97 	mul	fp, r7, sl
b0006d8c:	e0b5500b 	adcs	r5, r5, fp
b0006d90:	e00b0390 	mul	fp, r0, r3
b0006d94:	e2a66000 	adc	r6, r6, #0	; 0x0
b0006d98:	e09ee00b 	adds	lr, lr, fp
b0006d9c:	e00b0899 	mul	fp, r9, r8
b0006da0:	e0b5500b 	adcs	r5, r5, fp
b0006da4:	e00b0897 	mul	fp, r7, r8
b0006da8:	e2a66000 	adc	r6, r6, #0	; 0x0
b0006dac:	e09ee00b 	adds	lr, lr, fp
b0006db0:	e00b0290 	mul	fp, r0, r2
b0006db4:	e0b5500b 	adcs	r5, r5, fp
b0006db8:	e2a66000 	adc	r6, r6, #0	; 0x0
b0006dbc:	e8bd0f80 	ldmia	sp!, {r7, r8, r9, sl, fp}
b0006dc0:	e33c0000 	teq	ip, #0	; 0x0
b0006dc4:	138ee001 	orrne	lr, lr, #1	; 0x1
b0006dc8:	e1a00804 	mov	r0, r4, lsl #16
b0006dcc:	e3c44902 	bic	r4, r4, #32768	; 0x8000
b0006dd0:	e3160c02 	tst	r6, #512	; 0x200
b0006dd4:	0a000004 	beq	b0006dec <__muldf3+0x154>
b0006dd8:	e2844702 	add	r4, r4, #524288	; 0x80000
b0006ddc:	e1b060a6 	movs	r6, r6, lsr #1
b0006de0:	e1b05065 	movs	r5, r5, rrx
b0006de4:	e1b0e06e 	movs	lr, lr, rrx
b0006de8:	238ee001 	orrcs	lr, lr, #1	; 0x1
b0006dec:	e1800606 	orr	r0, r0, r6, lsl #12
b0006df0:	e1800a25 	orr	r0, r0, r5, lsr #20
b0006df4:	e1a01605 	mov	r1, r5, lsl #12
b0006df8:	e1811a2e 	orr	r1, r1, lr, lsr #20
b0006dfc:	e244473e 	sub	r4, r4, #16252928	; 0xf80000
b0006e00:	e254441f 	subs	r4, r4, #520093696	; 0x1f000000
b0006e04:	da000011 	ble	b0006e50 <__muldf3+0x1b8>
b0006e08:	e1b0e60e 	movs	lr, lr, lsl #12
b0006e0c:	5a000005 	bpl	b0006e28 <__muldf3+0x190>
b0006e10:	e2911001 	adds	r1, r1, #1	; 0x1
b0006e14:	e2a00000 	adc	r0, r0, #0	; 0x0
b0006e18:	e33e0102 	teq	lr, #-2147483648	; 0x80000000
b0006e1c:	03c11001 	biceq	r1, r1, #1	; 0x1
b0006e20:	e3100602 	tst	r0, #2097152	; 0x200000
b0006e24:	12844702 	addne	r4, r4, #524288	; 0x80000
b0006e28:	e294c702 	adds	ip, r4, #524288	; 0x80000
b0006e2c:	e31c0101 	tst	ip, #1073741824	; 0x40000000
b0006e30:	1a000055 	bne	b0006f8c <__muldf3+0x2f4>
b0006e34:	e3c00603 	bic	r0, r0, #3145728	; 0x300000
b0006e38:	e1800084 	orr	r0, r0, r4, lsl #1
b0006e3c:	e8bd8070 	ldmia	sp!, {r4, r5, r6, pc}
b0006e40:	e0200002 	eor	r0, r0, r2
b0006e44:	e2000102 	and	r0, r0, #-2147483648	; 0x80000000
b0006e48:	e3a01000 	mov	r1, #0	; 0x0
b0006e4c:	e8bd8070 	ldmia	sp!, {r4, r5, r6, pc}
b0006e50:	e374076a 	cmn	r4, #27787264	; 0x1a80000
b0006e54:	d3a01000 	movle	r1, #0	; 0x0
b0006e58:	d2000102 	andle	r0, r0, #-2147483648	; 0x80000000
b0006e5c:	d8bd8070 	ldmleia	sp!, {r4, r5, r6, pc}
b0006e60:	e1e049c4 	mvn	r4, r4, asr #19
b0006e64:	e254401e 	subs	r4, r4, #30	; 0x1e
b0006e68:	aa00001b 	bge	b0006edc <__muldf3+0x244>
b0006e6c:	e294400c 	adds	r4, r4, #12	; 0xc
b0006e70:	ca00000d 	bgt	b0006eac <__muldf3+0x214>
b0006e74:	e2844014 	add	r4, r4, #20	; 0x14
b0006e78:	e2645020 	rsb	r5, r4, #32	; 0x20
b0006e7c:	e1a03511 	mov	r3, r1, lsl r5
b0006e80:	e1a01431 	mov	r1, r1, lsr r4
b0006e84:	e1811510 	orr	r1, r1, r0, lsl r5
b0006e88:	e1b00080 	movs	r0, r0, lsl #1
b0006e8c:	e1a00430 	mov	r0, r0, lsr r4
b0006e90:	e1a00060 	mov	r0, r0, rrx
b0006e94:	e0911fa3 	adds	r1, r1, r3, lsr #31
b0006e98:	e2a00000 	adc	r0, r0, #0	; 0x0
b0006e9c:	e33e0000 	teq	lr, #0	; 0x0
b0006ea0:	03330102 	teqeq	r3, #-2147483648	; 0x80000000
b0006ea4:	03c11001 	biceq	r1, r1, #1	; 0x1
b0006ea8:	e8bd8070 	ldmia	sp!, {r4, r5, r6, pc}
b0006eac:	e264400c 	rsb	r4, r4, #12	; 0xc
b0006eb0:	e2645020 	rsb	r5, r4, #32	; 0x20
b0006eb4:	e1a03411 	mov	r3, r1, lsl r4
b0006eb8:	e1a01531 	mov	r1, r1, lsr r5
b0006ebc:	e1811410 	orr	r1, r1, r0, lsl r4
b0006ec0:	e2000102 	and	r0, r0, #-2147483648	; 0x80000000
b0006ec4:	e0911fa3 	adds	r1, r1, r3, lsr #31
b0006ec8:	e2a00000 	adc	r0, r0, #0	; 0x0
b0006ecc:	e33e0000 	teq	lr, #0	; 0x0
b0006ed0:	03330102 	teqeq	r3, #-2147483648	; 0x80000000
b0006ed4:	03c11001 	biceq	r1, r1, #1	; 0x1
b0006ed8:	e8bd8070 	ldmia	sp!, {r4, r5, r6, pc}
b0006edc:	e2645020 	rsb	r5, r4, #32	; 0x20
b0006ee0:	e1a06511 	mov	r6, r1, lsl r5
b0006ee4:	e1a03431 	mov	r3, r1, lsr r4
b0006ee8:	e1833510 	orr	r3, r3, r0, lsl r5
b0006eec:	e1a01430 	mov	r1, r0, lsr r4
b0006ef0:	e2000102 	and	r0, r0, #-2147483648	; 0x80000000
b0006ef4:	e1c11430 	bic	r1, r1, r0, lsr r4
b0006ef8:	e0811fa3 	add	r1, r1, r3, lsr #31
b0006efc:	e196600e 	orrs	r6, r6, lr
b0006f00:	03330102 	teqeq	r3, #-2147483648	; 0x80000000
b0006f04:	03c11001 	biceq	r1, r1, #1	; 0x1
b0006f08:	e8bd8070 	ldmia	sp!, {r4, r5, r6, pc}
b0006f0c:	e3a0e000 	mov	lr, #0	; 0x0
b0006f10:	e3340000 	teq	r4, #0	; 0x0
b0006f14:	1a000008 	bne	b0006f3c <__muldf3+0x2a4>
b0006f18:	e2006102 	and	r6, r0, #-2147483648	; 0x80000000
b0006f1c:	e1b01081 	movs	r1, r1, lsl #1
b0006f20:	e0ae0080 	adc	r0, lr, r0, lsl #1
b0006f24:	e3100601 	tst	r0, #1048576	; 0x100000
b0006f28:	02444702 	subeq	r4, r4, #524288	; 0x80000
b0006f2c:	0afffffa 	beq	b0006f1c <__muldf3+0x284>
b0006f30:	e1800006 	orr	r0, r0, r6
b0006f34:	e3350000 	teq	r5, #0	; 0x0
b0006f38:	1affff64 	bne	b0006cd0 <__muldf3+0x38>
b0006f3c:	e2026102 	and	r6, r2, #-2147483648	; 0x80000000
b0006f40:	e1b03083 	movs	r3, r3, lsl #1
b0006f44:	e0ae2082 	adc	r2, lr, r2, lsl #1
b0006f48:	e3120601 	tst	r2, #1048576	; 0x100000
b0006f4c:	02455601 	subeq	r5, r5, #1048576	; 0x100000
b0006f50:	0afffffa 	beq	b0006f40 <__muldf3+0x2a8>
b0006f54:	e1822006 	orr	r2, r2, r6
b0006f58:	eaffff5c 	b	b0006cd0 <__muldf3+0x38>
b0006f5c:	e1916080 	orrs	r6, r1, r0, lsl #1
b0006f60:	11936082 	orrnes	r6, r3, r2, lsl #1
b0006f64:	0a00000d 	beq	b0006fa0 <__muldf3+0x308>
b0006f68:	e134000c 	teq	r4, ip
b0006f6c:	1a000001 	bne	b0006f78 <__muldf3+0x2e0>
b0006f70:	e1916600 	orrs	r6, r1, r0, lsl #12
b0006f74:	1a000009 	bne	b0006fa0 <__muldf3+0x308>
b0006f78:	e135000c 	teq	r5, ip
b0006f7c:	1a000001 	bne	b0006f88 <__muldf3+0x2f0>
b0006f80:	e1936602 	orrs	r6, r3, r2, lsl #12
b0006f84:	1a000005 	bne	b0006fa0 <__muldf3+0x308>
b0006f88:	e0200002 	eor	r0, r0, r2
b0006f8c:	e2000102 	and	r0, r0, #-2147483648	; 0x80000000
b0006f90:	e380047f 	orr	r0, r0, #2130706432	; 0x7f000000
b0006f94:	e380060f 	orr	r0, r0, #15728640	; 0xf00000
b0006f98:	e3a01000 	mov	r1, #0	; 0x0
b0006f9c:	e8bd8070 	ldmia	sp!, {r4, r5, r6, pc}
b0006fa0:	e3a0047f 	mov	r0, #2130706432	; 0x7f000000
b0006fa4:	e380073e 	orr	r0, r0, #16252928	; 0xf80000
b0006fa8:	e8bd8070 	ldmia	sp!, {r4, r5, r6, pc}

b0006fac <__divdf3>:
b0006fac:	e92d4070 	stmdb	sp!, {r4, r5, r6, lr}
b0006fb0:	e3a0c47f 	mov	ip, #2130706432	; 0x7f000000
b0006fb4:	e38cc60f 	orr	ip, ip, #15728640	; 0xf00000
b0006fb8:	e000400c 	and	r4, r0, ip
b0006fbc:	e002500c 	and	r5, r2, ip
b0006fc0:	e134000c 	teq	r4, ip
b0006fc4:	1135000c 	teqne	r5, ip
b0006fc8:	11916080 	orrnes	r6, r1, r0, lsl #1
b0006fcc:	11936082 	orrnes	r6, r3, r2, lsl #1
b0006fd0:	0a00007e 	beq	b00071d0 <__divdf3+0x224>
b0006fd4:	e1b040a4 	movs	r4, r4, lsr #1
b0006fd8:	13350000 	teqne	r5, #0	; 0x0
b0006fdc:	0a000067 	beq	b0007180 <__divdf3+0x1d4>
b0006fe0:	e04440c5 	sub	r4, r4, r5, asr #1
b0006fe4:	e020e002 	eor	lr, r0, r2
b0006fe8:	e3a05201 	mov	r5, #268435456	; 0x10000000
b0006fec:	e1a02602 	mov	r2, r2, lsl #12
b0006ff0:	e1852222 	orr	r2, r5, r2, lsr #4
b0006ff4:	e1822c23 	orr	r2, r2, r3, lsr #24
b0006ff8:	e1b03403 	movs	r3, r3, lsl #8
b0006ffc:	e1a00600 	mov	r0, r0, lsl #12
b0007000:	01320005 	teqeq	r2, r5
b0007004:	0a00004d 	beq	b0007140 <__divdf3+0x194>
b0007008:	e1855220 	orr	r5, r5, r0, lsr #4
b000700c:	e1855c21 	orr	r5, r5, r1, lsr #24
b0007010:	e1a06401 	mov	r6, r1, lsl #8
b0007014:	e20e0102 	and	r0, lr, #-2147483648	; 0x80000000
b0007018:	e1550002 	cmp	r5, r2
b000701c:	01560003 	cmpeq	r6, r3
b0007020:	2a000002 	bcs	b0007030 <__divdf3+0x84>
b0007024:	e2444702 	sub	r4, r4, #524288	; 0x80000
b0007028:	e1b020a2 	movs	r2, r2, lsr #1
b000702c:	e1a03063 	mov	r3, r3, rrx
b0007030:	e284441f 	add	r4, r4, #520093696	; 0x1f000000
b0007034:	e284473e 	add	r4, r4, #16252928	; 0xf80000
b0007038:	e374076a 	cmn	r4, #27787264	; 0x1a80000
b000703c:	daffff80 	ble	b0006e44 <__muldf3+0x1ac>
b0007040:	e15400ac 	cmp	r4, ip, lsr #1
b0007044:	aaffffd0 	bge	b0006f8c <__muldf3+0x2f4>
b0007048:	e0566003 	subs	r6, r6, r3
b000704c:	e0c55002 	sbc	r5, r5, r2
b0007050:	e1b020a2 	movs	r2, r2, lsr #1
b0007054:	e1a03063 	mov	r3, r3, rrx
b0007058:	e3a01601 	mov	r1, #1048576	; 0x100000
b000705c:	e3a0c702 	mov	ip, #524288	; 0x80000
b0007060:	e056e003 	subs	lr, r6, r3
b0007064:	e0d5e002 	sbcs	lr, r5, r2
b0007068:	20466003 	subcs	r6, r6, r3
b000706c:	21a0500e 	movcs	r5, lr
b0007070:	2181100c 	orrcs	r1, r1, ip
b0007074:	e1b020a2 	movs	r2, r2, lsr #1
b0007078:	e1a03063 	mov	r3, r3, rrx
b000707c:	e056e003 	subs	lr, r6, r3
b0007080:	e0d5e002 	sbcs	lr, r5, r2
b0007084:	20466003 	subcs	r6, r6, r3
b0007088:	21a0500e 	movcs	r5, lr
b000708c:	218110ac 	orrcs	r1, r1, ip, lsr #1
b0007090:	e1b020a2 	movs	r2, r2, lsr #1
b0007094:	e1a03063 	mov	r3, r3, rrx
b0007098:	e056e003 	subs	lr, r6, r3
b000709c:	e0d5e002 	sbcs	lr, r5, r2
b00070a0:	20466003 	subcs	r6, r6, r3
b00070a4:	21a0500e 	movcs	r5, lr
b00070a8:	2181112c 	orrcs	r1, r1, ip, lsr #2
b00070ac:	e1b020a2 	movs	r2, r2, lsr #1
b00070b0:	e1a03063 	mov	r3, r3, rrx
b00070b4:	e056e003 	subs	lr, r6, r3
b00070b8:	e0d5e002 	sbcs	lr, r5, r2
b00070bc:	20466003 	subcs	r6, r6, r3
b00070c0:	21a0500e 	movcs	r5, lr
b00070c4:	218111ac 	orrcs	r1, r1, ip, lsr #3
b00070c8:	e195e006 	orrs	lr, r5, r6
b00070cc:	0a00000d 	beq	b0007108 <__divdf3+0x15c>
b00070d0:	e1a05205 	mov	r5, r5, lsl #4
b00070d4:	e1855e26 	orr	r5, r5, r6, lsr #28
b00070d8:	e1a06206 	mov	r6, r6, lsl #4
b00070dc:	e1a02182 	mov	r2, r2, lsl #3
b00070e0:	e1822ea3 	orr	r2, r2, r3, lsr #29
b00070e4:	e1a03183 	mov	r3, r3, lsl #3
b00070e8:	e1b0c22c 	movs	ip, ip, lsr #4
b00070ec:	1affffdb 	bne	b0007060 <__divdf3+0xb4>
b00070f0:	e3100601 	tst	r0, #1048576	; 0x100000
b00070f4:	1a000006 	bne	b0007114 <__divdf3+0x168>
b00070f8:	e1800001 	orr	r0, r0, r1
b00070fc:	e3a01000 	mov	r1, #0	; 0x0
b0007100:	e3a0c102 	mov	ip, #-2147483648	; 0x80000000
b0007104:	eaffffd5 	b	b0007060 <__divdf3+0xb4>
b0007108:	e3100601 	tst	r0, #1048576	; 0x100000
b000710c:	01800001 	orreq	r0, r0, r1
b0007110:	03a01000 	moveq	r1, #0	; 0x0
b0007114:	e3540000 	cmp	r4, #0	; 0x0
b0007118:	da000016 	ble	b0007178 <__divdf3+0x1cc>
b000711c:	e055c002 	subs	ip, r5, r2
b0007120:	0056c003 	subeqs	ip, r6, r3
b0007124:	e2b11000 	adcs	r1, r1, #0	; 0x0
b0007128:	e2a00000 	adc	r0, r0, #0	; 0x0
b000712c:	e33c0000 	teq	ip, #0	; 0x0
b0007130:	03c11001 	biceq	r1, r1, #1	; 0x1
b0007134:	e3c00601 	bic	r0, r0, #1048576	; 0x100000
b0007138:	e1800084 	orr	r0, r0, r4, lsl #1
b000713c:	e8bd8070 	ldmia	sp!, {r4, r5, r6, pc}
b0007140:	e20ee102 	and	lr, lr, #-2147483648	; 0x80000000
b0007144:	e18e0620 	orr	r0, lr, r0, lsr #12
b0007148:	e284441f 	add	r4, r4, #520093696	; 0x1f000000
b000714c:	e284473e 	add	r4, r4, #16252928	; 0xf80000
b0007150:	e15400ac 	cmp	r4, ip, lsr #1
b0007154:	aaffff8c 	bge	b0006f8c <__muldf3+0x2f4>
b0007158:	e3540000 	cmp	r4, #0	; 0x0
b000715c:	c1800084 	orrgt	r0, r0, r4, lsl #1
b0007160:	c8bd8070 	ldmgtia	sp!, {r4, r5, r6, pc}
b0007164:	e374076a 	cmn	r4, #27787264	; 0x1a80000
b0007168:	daffff35 	ble	b0006e44 <__muldf3+0x1ac>
b000716c:	e3800601 	orr	r0, r0, #1048576	; 0x100000
b0007170:	e3a0e000 	mov	lr, #0	; 0x0
b0007174:	eaffff39 	b	b0006e60 <__muldf3+0x1c8>
b0007178:	e185e006 	orr	lr, r5, r6
b000717c:	eaffff37 	b	b0006e60 <__muldf3+0x1c8>
b0007180:	e3a0e000 	mov	lr, #0	; 0x0
b0007184:	e3340000 	teq	r4, #0	; 0x0
b0007188:	1a000008 	bne	b00071b0 <__divdf3+0x204>
b000718c:	e2006102 	and	r6, r0, #-2147483648	; 0x80000000
b0007190:	e1b01081 	movs	r1, r1, lsl #1
b0007194:	e0ae0080 	adc	r0, lr, r0, lsl #1
b0007198:	e3100601 	tst	r0, #1048576	; 0x100000
b000719c:	02444702 	subeq	r4, r4, #524288	; 0x80000
b00071a0:	0afffffa 	beq	b0007190 <__divdf3+0x1e4>
b00071a4:	e1800006 	orr	r0, r0, r6
b00071a8:	e3350000 	teq	r5, #0	; 0x0
b00071ac:	1affff8b 	bne	b0006fe0 <__divdf3+0x34>
b00071b0:	e2026102 	and	r6, r2, #-2147483648	; 0x80000000
b00071b4:	e1b03083 	movs	r3, r3, lsl #1
b00071b8:	e0ae2082 	adc	r2, lr, r2, lsl #1
b00071bc:	e3120601 	tst	r2, #1048576	; 0x100000
b00071c0:	02455601 	subeq	r5, r5, #1048576	; 0x100000
b00071c4:	0afffffa 	beq	b00071b4 <__divdf3+0x208>
b00071c8:	e1822006 	orr	r2, r2, r6
b00071cc:	eaffff83 	b	b0006fe0 <__divdf3+0x34>
b00071d0:	e134000c 	teq	r4, ip
b00071d4:	0135000c 	teqeq	r5, ip
b00071d8:	0affff70 	beq	b0006fa0 <__muldf3+0x308>
b00071dc:	e134000c 	teq	r4, ip
b00071e0:	1a000002 	bne	b00071f0 <__divdf3+0x244>
b00071e4:	e1914600 	orrs	r4, r1, r0, lsl #12
b00071e8:	1affff6c 	bne	b0006fa0 <__muldf3+0x308>
b00071ec:	eaffff65 	b	b0006f88 <__muldf3+0x2f0>
b00071f0:	e135000c 	teq	r5, ip
b00071f4:	1a000002 	bne	b0007204 <__divdf3+0x258>
b00071f8:	e1935602 	orrs	r5, r3, r2, lsl #12
b00071fc:	1affff67 	bne	b0006fa0 <__muldf3+0x308>
b0007200:	eaffff0e 	b	b0006e40 <__muldf3+0x1a8>
b0007204:	e1914080 	orrs	r4, r1, r0, lsl #1
b0007208:	1affff5e 	bne	b0006f88 <__muldf3+0x2f0>
b000720c:	e1935082 	orrs	r5, r3, r2, lsl #1
b0007210:	1affff0a 	bne	b0006e40 <__muldf3+0x1a8>
b0007214:	eaffff61 	b	b0006fa0 <__muldf3+0x308>

b0007218 <__fixdfsi>:
b0007218:	e191c080 	orrs	ip, r1, r0, lsl #1
b000721c:	0a000014 	beq	b0007274 <__fixdfsi+0x5c>
b0007220:	e1a03063 	mov	r3, r3, rrx
b0007224:	e3a0c47f 	mov	ip, #2130706432	; 0x7f000000
b0007228:	e38cc60f 	orr	ip, ip, #15728640	; 0xf00000
b000722c:	e000200c 	and	r2, r0, ip
b0007230:	e132000c 	teq	r2, ip
b0007234:	0a000010 	beq	b000727c <__fixdfsi+0x64>
b0007238:	e3ccc101 	bic	ip, ip, #1073741824	; 0x40000000
b000723c:	e152000c 	cmp	r2, ip
b0007240:	3a00000b 	bcc	b0007274 <__fixdfsi+0x5c>
b0007244:	e28cc61f 	add	ip, ip, #32505856	; 0x1f00000
b0007248:	e152000c 	cmp	r2, ip
b000724c:	2a00000c 	bcs	b0007284 <__fixdfsi+0x6c>
b0007250:	e062200c 	rsb	r2, r2, ip
b0007254:	e1a0c580 	mov	ip, r0, lsl #11
b0007258:	e38cc102 	orr	ip, ip, #-2147483648	; 0x80000000
b000725c:	e18ccaa1 	orr	ip, ip, r1, lsr #21
b0007260:	e1a02a22 	mov	r2, r2, lsr #20
b0007264:	e3130102 	tst	r3, #-2147483648	; 0x80000000
b0007268:	e1a0023c 	mov	r0, ip, lsr r2
b000726c:	12600000 	rsbne	r0, r0, #0	; 0x0
b0007270:	e1a0f00e 	mov	pc, lr
b0007274:	e3a00000 	mov	r0, #0	; 0x0
b0007278:	e1a0f00e 	mov	pc, lr
b000727c:	e1911600 	orrs	r1, r1, r0, lsl #12
b0007280:	1a000002 	bne	b0007290 <__fixdfsi+0x78>
b0007284:	e2130102 	ands	r0, r3, #-2147483648	; 0x80000000
b0007288:	03e00102 	mvneq	r0, #-2147483648	; 0x80000000
b000728c:	e1a0f00e 	mov	pc, lr
b0007290:	e3a00000 	mov	r0, #0	; 0x0
b0007294:	e1a0f00e 	mov	pc, lr

b0007298 <__subsf3>:
b0007298:	e2211102 	eor	r1, r1, #-2147483648	; 0x80000000

b000729c <__addsf3>:
b000729c:	e0202001 	eor	r2, r0, r1
b00072a0:	e3320102 	teq	r2, #-2147483648	; 0x80000000
b00072a4:	0a00005a 	beq	b0007414 <__addsf3+0x178>
b00072a8:	e3d02102 	bics	r2, r0, #-2147483648	; 0x80000000
b00072ac:	01a00001 	moveq	r0, r1
b00072b0:	13d12102 	bicnes	r2, r1, #-2147483648	; 0x80000000
b00072b4:	01a0f00e 	moveq	pc, lr
b00072b8:	e3a0c4ff 	mov	ip, #-16777216	; 0xff000000
b00072bc:	e00020ac 	and	r2, r0, ip, lsr #1
b00072c0:	e00130ac 	and	r3, r1, ip, lsr #1
b00072c4:	e13200ac 	teq	r2, ip, lsr #1
b00072c8:	113300ac 	teqne	r3, ip, lsr #1
b00072cc:	0a000059 	beq	b0007438 <__addsf3+0x19c>
b00072d0:	e0533002 	subs	r3, r3, r2
b00072d4:	c0822003 	addgt	r2, r2, r3
b00072d8:	c0201001 	eorgt	r1, r0, r1
b00072dc:	c0210000 	eorgt	r0, r1, r0
b00072e0:	c0201001 	eorgt	r1, r0, r1
b00072e4:	b2633000 	rsblt	r3, r3, #0	; 0x0
b00072e8:	e3530532 	cmp	r3, #209715200	; 0xc800000
b00072ec:	81a0f00e 	movhi	pc, lr
b00072f0:	e3100102 	tst	r0, #-2147483648	; 0x80000000
b00072f4:	e3800502 	orr	r0, r0, #8388608	; 0x800000
b00072f8:	e3c004ff 	bic	r0, r0, #-16777216	; 0xff000000
b00072fc:	12600000 	rsbne	r0, r0, #0	; 0x0
b0007300:	e3110102 	tst	r1, #-2147483648	; 0x80000000
b0007304:	e3811502 	orr	r1, r1, #8388608	; 0x800000
b0007308:	e3c114ff 	bic	r1, r1, #-16777216	; 0xff000000
b000730c:	12611000 	rsbne	r1, r1, #0	; 0x0
b0007310:	e1320003 	teq	r2, r3
b0007314:	0a000038 	beq	b00073fc <__addsf3+0x160>
b0007318:	e1b03ba3 	movs	r3, r3, lsr #23
b000731c:	13320502 	teqne	r2, #8388608	; 0x800000
b0007320:	11a00080 	movne	r0, r0, lsl #1
b0007324:	12422502 	subne	r2, r2, #8388608	; 0x800000
b0007328:	12433001 	subne	r3, r3, #1	; 0x1
b000732c:	e1a0c351 	mov	ip, r1, asr r3
b0007330:	e2633020 	rsb	r3, r3, #32	; 0x20
b0007334:	e1a01311 	mov	r1, r1, lsl r3
b0007338:	e080000c 	add	r0, r0, ip
b000733c:	e2103102 	ands	r3, r0, #-2147483648	; 0x80000000
b0007340:	5a000001 	bpl	b000734c <__addsf3+0xb0>
b0007344:	e2711000 	rsbs	r1, r1, #0	; 0x0
b0007348:	e2e00000 	rsc	r0, r0, #0	; 0x0
b000734c:	e3500502 	cmp	r0, #8388608	; 0x800000
b0007350:	3a000014 	bcc	b00073a8 <__addsf3+0x10c>
b0007354:	e3500401 	cmp	r0, #16777216	; 0x1000000
b0007358:	3a000007 	bcc	b000737c <__addsf3+0xe0>
b000735c:	e3500402 	cmp	r0, #33554432	; 0x2000000
b0007360:	3a000002 	bcc	b0007370 <__addsf3+0xd4>
b0007364:	e1b000a0 	movs	r0, r0, lsr #1
b0007368:	e1a01061 	mov	r1, r1, rrx
b000736c:	e2822502 	add	r2, r2, #8388608	; 0x800000
b0007370:	e1b000a0 	movs	r0, r0, lsr #1
b0007374:	e1a01061 	mov	r1, r1, rrx
b0007378:	e2822502 	add	r2, r2, #8388608	; 0x800000
b000737c:	e0800fa1 	add	r0, r0, r1, lsr #31
b0007380:	e3310102 	teq	r1, #-2147483648	; 0x80000000
b0007384:	03c00001 	biceq	r0, r0, #1	; 0x1
b0007388:	e3100401 	tst	r0, #16777216	; 0x1000000
b000738c:	12822502 	addne	r2, r2, #8388608	; 0x800000
b0007390:	e352047f 	cmp	r2, #2130706432	; 0x7f000000
b0007394:	8a000024 	bhi	b000742c <__addsf3+0x190>
b0007398:	e3c00506 	bic	r0, r0, #25165824	; 0x1800000
b000739c:	e1800002 	orr	r0, r0, r2
b00073a0:	e1800003 	orr	r0, r0, r3
b00073a4:	e1a0f00e 	mov	pc, lr
b00073a8:	e1b0c620 	movs	ip, r0, lsr #12
b00073ac:	01a00600 	moveq	r0, r0, lsl #12
b00073b0:	02422406 	subeq	r2, r2, #100663296	; 0x6000000
b00073b4:	e31008ff 	tst	r0, #16711680	; 0xff0000
b00073b8:	01a00400 	moveq	r0, r0, lsl #8
b00073bc:	02422301 	subeq	r2, r2, #67108864	; 0x4000000
b00073c0:	e310060f 	tst	r0, #15728640	; 0xf00000
b00073c4:	01a00200 	moveq	r0, r0, lsl #4
b00073c8:	02422402 	subeq	r2, r2, #33554432	; 0x2000000
b00073cc:	e3100503 	tst	r0, #12582912	; 0xc00000
b00073d0:	01a00100 	moveq	r0, r0, lsl #2
b00073d4:	02422401 	subeq	r2, r2, #16777216	; 0x1000000
b00073d8:	e3100502 	tst	r0, #8388608	; 0x800000
b00073dc:	01a00080 	moveq	r0, r0, lsl #1
b00073e0:	02422502 	subeq	r2, r2, #8388608	; 0x800000
b00073e4:	e3520000 	cmp	r2, #0	; 0x0
b00073e8:	caffffea 	bgt	b0007398 <__addsf3+0xfc>
b00073ec:	e1e02bc2 	mvn	r2, r2, asr #23
b00073f0:	e2822002 	add	r2, r2, #2	; 0x2
b00073f4:	e1830230 	orr	r0, r3, r0, lsr r2
b00073f8:	e1a0f00e 	mov	pc, lr
b00073fc:	e3320000 	teq	r2, #0	; 0x0
b0007400:	02200502 	eoreq	r0, r0, #8388608	; 0x800000
b0007404:	02822502 	addeq	r2, r2, #8388608	; 0x800000
b0007408:	e2211502 	eor	r1, r1, #8388608	; 0x800000
b000740c:	12433502 	subne	r3, r3, #8388608	; 0x800000
b0007410:	eaffffc0 	b	b0007318 <__addsf3+0x7c>
b0007414:	e3a0c4ff 	mov	ip, #-16777216	; 0xff000000
b0007418:	e00020ac 	and	r2, r0, ip, lsr #1
b000741c:	e13200ac 	teq	r2, ip, lsr #1
b0007420:	01a0014c 	moveq	r0, ip, asr #2
b0007424:	13a00000 	movne	r0, #0	; 0x0
b0007428:	e1a0f00e 	mov	pc, lr
b000742c:	e383047f 	orr	r0, r3, #2130706432	; 0x7f000000
b0007430:	e3800502 	orr	r0, r0, #8388608	; 0x800000
b0007434:	e1a0f00e 	mov	pc, lr
b0007438:	e13200ac 	teq	r2, ip, lsr #1
b000743c:	11a00001 	movne	r0, r1
b0007440:	013300ac 	teqeq	r3, ip, lsr #1
b0007444:	11a0f00e 	movne	pc, lr
b0007448:	e1b02480 	movs	r2, r0, lsl #9
b000744c:	01b02481 	moveqs	r2, r1, lsl #9
b0007450:	01300001 	teqeq	r0, r1
b0007454:	13830501 	orrne	r0, r3, #4194304	; 0x400000
b0007458:	e1a0f00e 	mov	pc, lr

b000745c <__floatunsisf>:
b000745c:	e3a03000 	mov	r3, #0	; 0x0
b0007460:	ea000001 	b	b000746c <__floatsisf+0x8>

b0007464 <__floatsisf>:
b0007464:	e2103102 	ands	r3, r0, #-2147483648	; 0x80000000
b0007468:	42600000 	rsbmi	r0, r0, #0	; 0x0
b000746c:	e3300000 	teq	r0, #0	; 0x0
b0007470:	01a0f00e 	moveq	pc, lr
b0007474:	e3a01000 	mov	r1, #0	; 0x0
b0007478:	e3a0244b 	mov	r2, #1258291200	; 0x4b000000
b000747c:	e310033f 	tst	r0, #-67108864	; 0xfc000000
b0007480:	0affffb1 	beq	b000734c <__addsf3+0xb0>
b0007484:	e310020f 	tst	r0, #-268435456	; 0xf0000000
b0007488:	11a01e00 	movne	r1, r0, lsl #28
b000748c:	11a00220 	movne	r0, r0, lsr #4
b0007490:	12822402 	addne	r2, r2, #33554432	; 0x2000000
b0007494:	e3100303 	tst	r0, #201326592	; 0xc000000
b0007498:	0affffab 	beq	b000734c <__addsf3+0xb0>
b000749c:	e1a01121 	mov	r1, r1, lsr #2
b00074a0:	e1811f00 	orr	r1, r1, r0, lsl #30
b00074a4:	e1a00120 	mov	r0, r0, lsr #2
b00074a8:	e2822401 	add	r2, r2, #16777216	; 0x1000000
b00074ac:	eaffffa6 	b	b000734c <__addsf3+0xb0>

b00074b0 <__mulsf3>:
b00074b0:	e3a0c4ff 	mov	ip, #-16777216	; 0xff000000
b00074b4:	e00020ac 	and	r2, r0, ip, lsr #1
b00074b8:	e00130ac 	and	r3, r1, ip, lsr #1
b00074bc:	e13200ac 	teq	r2, ip, lsr #1
b00074c0:	113300ac 	teqne	r3, ip, lsr #1
b00074c4:	0a000053 	beq	b0007618 <__mulsf3+0x168>
b00074c8:	e3d0c102 	bics	ip, r0, #-2147483648	; 0x80000000
b00074cc:	13d1c102 	bicnes	ip, r1, #-2147483648	; 0x80000000
b00074d0:	0a000029 	beq	b000757c <__mulsf3+0xcc>
b00074d4:	e1b020a2 	movs	r2, r2, lsr #1
b00074d8:	13330000 	teqne	r3, #0	; 0x0
b00074dc:	0a00003e 	beq	b00075dc <__mulsf3+0x12c>
b00074e0:	e08220c3 	add	r2, r2, r3, asr #1
b00074e4:	e1300001 	teq	r0, r1
b00074e8:	43822902 	orrmi	r2, r2, #32768	; 0x8000
b00074ec:	e3c004ff 	bic	r0, r0, #-16777216	; 0xff000000
b00074f0:	e3c114ff 	bic	r1, r1, #-16777216	; 0xff000000
b00074f4:	e3800502 	orr	r0, r0, #8388608	; 0x800000
b00074f8:	e3811502 	orr	r1, r1, #8388608	; 0x800000
b00074fc:	e92d0030 	stmdb	sp!, {r4, r5}
b0007500:	e1a04820 	mov	r4, r0, lsr #16
b0007504:	e1a05821 	mov	r5, r1, lsr #16
b0007508:	e3c008ff 	bic	r0, r0, #16711680	; 0xff0000
b000750c:	e3c118ff 	bic	r1, r1, #16711680	; 0xff0000
b0007510:	e00c0594 	mul	ip, r4, r5
b0007514:	e0030190 	mul	r3, r0, r1
b0007518:	e0000095 	mul	r0, r5, r0
b000751c:	e0200194 	mla	r0, r4, r1, r0
b0007520:	e0933800 	adds	r3, r3, r0, lsl #16
b0007524:	e0acc820 	adc	ip, ip, r0, lsr #16
b0007528:	e8bd0030 	ldmia	sp!, {r4, r5}
b000752c:	e1a00802 	mov	r0, r2, lsl #16
b0007530:	e3c22902 	bic	r2, r2, #32768	; 0x8000
b0007534:	e31c0902 	tst	ip, #32768	; 0x8000
b0007538:	12822501 	addne	r2, r2, #4194304	; 0x400000
b000753c:	11b0c0ac 	movnes	ip, ip, lsr #1
b0007540:	11a03063 	movne	r3, r3, rrx
b0007544:	e252257f 	subs	r2, r2, #532676608	; 0x1fc00000
b0007548:	da00000e 	ble	b0007588 <__mulsf3+0xd8>
b000754c:	e1900ba3 	orrs	r0, r0, r3, lsr #23
b0007550:	e0a0048c 	adc	r0, r0, ip, lsl #9
b0007554:	e1a03483 	mov	r3, r3, lsl #9
b0007558:	e3330102 	teq	r3, #-2147483648	; 0x80000000
b000755c:	03c00001 	biceq	r0, r0, #1	; 0x1
b0007560:	e3100401 	tst	r0, #16777216	; 0x1000000
b0007564:	12822501 	addne	r2, r2, #4194304	; 0x400000
b0007568:	e35205ff 	cmp	r2, #1069547520	; 0x3fc00000
b000756c:	aa000037 	bge	b0007650 <__mulsf3+0x1a0>
b0007570:	e3c00506 	bic	r0, r0, #25165824	; 0x1800000
b0007574:	e1800082 	orr	r0, r0, r2, lsl #1
b0007578:	e1a0f00e 	mov	pc, lr
b000757c:	e0200001 	eor	r0, r0, r1
b0007580:	e2000102 	and	r0, r0, #-2147483648	; 0x80000000
b0007584:	e1a0f00e 	mov	pc, lr
b0007588:	e3720406 	cmn	r2, #100663296	; 0x6000000
b000758c:	d1a0f00e 	movle	pc, lr
b0007590:	e1e01b42 	mvn	r1, r2, asr #22
b0007594:	e2511007 	subs	r1, r1, #7	; 0x7
b0007598:	ca000007 	bgt	b00075bc <__mulsf3+0x10c>
b000759c:	e2811020 	add	r1, r1, #32	; 0x20
b00075a0:	e1900133 	orrs	r0, r0, r3, lsr r1
b00075a4:	e2611020 	rsb	r1, r1, #32	; 0x20
b00075a8:	e0a0011c 	adc	r0, r0, ip, lsl r1
b00075ac:	e1a0c113 	mov	ip, r3, lsl r1
b00075b0:	e33c0102 	teq	ip, #-2147483648	; 0x80000000
b00075b4:	03c00001 	biceq	r0, r0, #1	; 0x1
b00075b8:	e1a0f00e 	mov	pc, lr
b00075bc:	e190013c 	orrs	r0, r0, ip, lsr r1
b00075c0:	e2a00000 	adc	r0, r0, #0	; 0x0
b00075c4:	e2611020 	rsb	r1, r1, #32	; 0x20
b00075c8:	e1a0c11c 	mov	ip, ip, lsl r1
b00075cc:	e3330000 	teq	r3, #0	; 0x0
b00075d0:	033c0102 	teqeq	ip, #-2147483648	; 0x80000000
b00075d4:	03c00001 	biceq	r0, r0, #1	; 0x1
b00075d8:	e1a0f00e 	mov	pc, lr
b00075dc:	e3320000 	teq	r2, #0	; 0x0
b00075e0:	e200c102 	and	ip, r0, #-2147483648	; 0x80000000
b00075e4:	01a00080 	moveq	r0, r0, lsl #1
b00075e8:	03100502 	tsteq	r0, #8388608	; 0x800000
b00075ec:	02422501 	subeq	r2, r2, #4194304	; 0x400000
b00075f0:	0afffffb 	beq	b00075e4 <__mulsf3+0x134>
b00075f4:	e180000c 	orr	r0, r0, ip
b00075f8:	e3330000 	teq	r3, #0	; 0x0
b00075fc:	e201c102 	and	ip, r1, #-2147483648	; 0x80000000
b0007600:	01a01081 	moveq	r1, r1, lsl #1
b0007604:	03110502 	tsteq	r1, #8388608	; 0x800000
b0007608:	02433502 	subeq	r3, r3, #8388608	; 0x800000
b000760c:	0afffffb 	beq	b0007600 <__mulsf3+0x150>
b0007610:	e181100c 	orr	r1, r1, ip
b0007614:	eaffffb1 	b	b00074e0 <__mulsf3+0x30>
b0007618:	e3300000 	teq	r0, #0	; 0x0
b000761c:	13310000 	teqne	r1, #0	; 0x0
b0007620:	13300102 	teqne	r0, #-2147483648	; 0x80000000
b0007624:	13310102 	teqne	r1, #-2147483648	; 0x80000000
b0007628:	0a00000c 	beq	b0007660 <__mulsf3+0x1b0>
b000762c:	e13200ac 	teq	r2, ip, lsr #1
b0007630:	1a000001 	bne	b000763c <__mulsf3+0x18c>
b0007634:	e1b02480 	movs	r2, r0, lsl #9
b0007638:	1a000008 	bne	b0007660 <__mulsf3+0x1b0>
b000763c:	e13300ac 	teq	r3, ip, lsr #1
b0007640:	1a000001 	bne	b000764c <__mulsf3+0x19c>
b0007644:	e1b03481 	movs	r3, r1, lsl #9
b0007648:	1a000004 	bne	b0007660 <__mulsf3+0x1b0>
b000764c:	e0200001 	eor	r0, r0, r1
b0007650:	e2000102 	and	r0, r0, #-2147483648	; 0x80000000
b0007654:	e380047f 	orr	r0, r0, #2130706432	; 0x7f000000
b0007658:	e3800502 	orr	r0, r0, #8388608	; 0x800000
b000765c:	e1a0f00e 	mov	pc, lr
b0007660:	e3a0047f 	mov	r0, #2130706432	; 0x7f000000
b0007664:	e3800503 	orr	r0, r0, #12582912	; 0xc00000
b0007668:	e1a0f00e 	mov	pc, lr

b000766c <__divsf3>:
b000766c:	e3a0c4ff 	mov	ip, #-16777216	; 0xff000000
b0007670:	e00020ac 	and	r2, r0, ip, lsr #1
b0007674:	e00130ac 	and	r3, r1, ip, lsr #1
b0007678:	e13200ac 	teq	r2, ip, lsr #1
b000767c:	113300ac 	teqne	r3, ip, lsr #1
b0007680:	13d0c102 	bicnes	ip, r0, #-2147483648	; 0x80000000
b0007684:	13d1c102 	bicnes	ip, r1, #-2147483648	; 0x80000000
b0007688:	0a00004c 	beq	b00077c0 <__divsf3+0x154>
b000768c:	e1b020a2 	movs	r2, r2, lsr #1
b0007690:	13330000 	teqne	r3, #0	; 0x0
b0007694:	0a00003a 	beq	b0007784 <__divsf3+0x118>
b0007698:	e04220c3 	sub	r2, r2, r3, asr #1
b000769c:	e020c001 	eor	ip, r0, r1
b00076a0:	e3a03201 	mov	r3, #268435456	; 0x10000000
b00076a4:	e1b01481 	movs	r1, r1, lsl #9
b00076a8:	e1a00480 	mov	r0, r0, lsl #9
b00076ac:	0a000022 	beq	b000773c <__divsf3+0xd0>
b00076b0:	e1831221 	orr	r1, r3, r1, lsr #4
b00076b4:	e1833220 	orr	r3, r3, r0, lsr #4
b00076b8:	e20c0102 	and	r0, ip, #-2147483648	; 0x80000000
b00076bc:	e1530001 	cmp	r3, r1
b00076c0:	32422501 	subcc	r2, r2, #4194304	; 0x400000
b00076c4:	31a03083 	movcc	r3, r3, lsl #1
b00076c8:	e282257f 	add	r2, r2, #532676608	; 0x1fc00000
b00076cc:	e3720406 	cmn	r2, #100663296	; 0x6000000
b00076d0:	d1a0f00e 	movle	pc, lr
b00076d4:	e35205ff 	cmp	r2, #1069547520	; 0x3fc00000
b00076d8:	aaffffdc 	bge	b0007650 <__mulsf3+0x1a0>
b00076dc:	e3a0c502 	mov	ip, #8388608	; 0x800000
b00076e0:	e1530001 	cmp	r3, r1
b00076e4:	20433001 	subcs	r3, r3, r1
b00076e8:	2180000c 	orrcs	r0, r0, ip
b00076ec:	e15300a1 	cmp	r3, r1, lsr #1
b00076f0:	204330a1 	subcs	r3, r3, r1, lsr #1
b00076f4:	218000ac 	orrcs	r0, r0, ip, lsr #1
b00076f8:	e1530121 	cmp	r3, r1, lsr #2
b00076fc:	20433121 	subcs	r3, r3, r1, lsr #2
b0007700:	2180012c 	orrcs	r0, r0, ip, lsr #2
b0007704:	e15301a1 	cmp	r3, r1, lsr #3
b0007708:	204331a1 	subcs	r3, r3, r1, lsr #3
b000770c:	218001ac 	orrcs	r0, r0, ip, lsr #3
b0007710:	e1b03203 	movs	r3, r3, lsl #4
b0007714:	11b0c22c 	movnes	ip, ip, lsr #4
b0007718:	1afffff0 	bne	b00076e0 <__divsf3+0x74>
b000771c:	e3520000 	cmp	r2, #0	; 0x0
b0007720:	da000012 	ble	b0007770 <__divsf3+0x104>
b0007724:	e1530001 	cmp	r3, r1
b0007728:	22800001 	addcs	r0, r0, #1	; 0x1
b000772c:	03c00001 	biceq	r0, r0, #1	; 0x1
b0007730:	e3c00502 	bic	r0, r0, #8388608	; 0x800000
b0007734:	e1800082 	orr	r0, r0, r2, lsl #1
b0007738:	e1a0f00e 	mov	pc, lr
b000773c:	e20cc102 	and	ip, ip, #-2147483648	; 0x80000000
b0007740:	e18c04a0 	orr	r0, ip, r0, lsr #9
b0007744:	e282257f 	add	r2, r2, #532676608	; 0x1fc00000
b0007748:	e35205ff 	cmp	r2, #1069547520	; 0x3fc00000
b000774c:	aaffffbf 	bge	b0007650 <__mulsf3+0x1a0>
b0007750:	e3520000 	cmp	r2, #0	; 0x0
b0007754:	c1800082 	orrgt	r0, r0, r2, lsl #1
b0007758:	c1a0f00e 	movgt	pc, lr
b000775c:	e3720406 	cmn	r2, #100663296	; 0x6000000
b0007760:	d1a0000c 	movle	r0, ip
b0007764:	d1a0f00e 	movle	pc, lr
b0007768:	e3800502 	orr	r0, r0, #8388608	; 0x800000
b000776c:	e3a03000 	mov	r3, #0	; 0x0
b0007770:	e3c0c102 	bic	ip, r0, #-2147483648	; 0x80000000
b0007774:	e2000102 	and	r0, r0, #-2147483648	; 0x80000000
b0007778:	e1e01b42 	mvn	r1, r2, asr #22
b000777c:	e2811002 	add	r1, r1, #2	; 0x2
b0007780:	eaffff8d 	b	b00075bc <__mulsf3+0x10c>
b0007784:	e3320000 	teq	r2, #0	; 0x0
b0007788:	e200c102 	and	ip, r0, #-2147483648	; 0x80000000
b000778c:	01a00080 	moveq	r0, r0, lsl #1
b0007790:	03100502 	tsteq	r0, #8388608	; 0x800000
b0007794:	02422501 	subeq	r2, r2, #4194304	; 0x400000
b0007798:	0afffffb 	beq	b000778c <__divsf3+0x120>
b000779c:	e180000c 	orr	r0, r0, ip
b00077a0:	e3330000 	teq	r3, #0	; 0x0
b00077a4:	e201c102 	and	ip, r1, #-2147483648	; 0x80000000
b00077a8:	01a01081 	moveq	r1, r1, lsl #1
b00077ac:	03110502 	tsteq	r1, #8388608	; 0x800000
b00077b0:	02433502 	subeq	r3, r3, #8388608	; 0x800000
b00077b4:	0afffffb 	beq	b00077a8 <__divsf3+0x13c>
b00077b8:	e181100c 	orr	r1, r1, ip
b00077bc:	eaffffb5 	b	b0007698 <__divsf3+0x2c>
b00077c0:	e3a0c4ff 	mov	ip, #-16777216	; 0xff000000
b00077c4:	e13200ac 	teq	r2, ip, lsr #1
b00077c8:	013300ac 	teqeq	r3, ip, lsr #1
b00077cc:	0affffa3 	beq	b0007660 <__mulsf3+0x1b0>
b00077d0:	e13200ac 	teq	r2, ip, lsr #1
b00077d4:	1a000002 	bne	b00077e4 <__divsf3+0x178>
b00077d8:	e1b02480 	movs	r2, r0, lsl #9
b00077dc:	1affff9f 	bne	b0007660 <__mulsf3+0x1b0>
b00077e0:	eaffff99 	b	b000764c <__mulsf3+0x19c>
b00077e4:	e13300ac 	teq	r3, ip, lsr #1
b00077e8:	1a000002 	bne	b00077f8 <__divsf3+0x18c>
b00077ec:	e1b03481 	movs	r3, r1, lsl #9
b00077f0:	1affff9a 	bne	b0007660 <__mulsf3+0x1b0>
b00077f4:	eaffff60 	b	b000757c <__mulsf3+0xcc>
b00077f8:	e3d02102 	bics	r2, r0, #-2147483648	; 0x80000000
b00077fc:	1affff92 	bne	b000764c <__mulsf3+0x19c>
b0007800:	e3d13102 	bics	r3, r1, #-2147483648	; 0x80000000
b0007804:	1affff5c 	bne	b000757c <__mulsf3+0xcc>
b0007808:	eaffff94 	b	b0007660 <__mulsf3+0x1b0>

b000780c <__fixsfsi>:
b000780c:	e1b00080 	movs	r0, r0, lsl #1
b0007810:	01a0f00e 	moveq	pc, lr
b0007814:	e1a01061 	mov	r1, r1, rrx
b0007818:	e20024ff 	and	r2, r0, #-16777216	; 0xff000000
b000781c:	e352047f 	cmp	r2, #2130706432	; 0x7f000000
b0007820:	33a00000 	movcc	r0, #0	; 0x0
b0007824:	31a0f00e 	movcc	pc, lr
b0007828:	e352049e 	cmp	r2, #-1644167168	; 0x9e000000
b000782c:	2a000007 	bcs	b0007850 <__fixsfsi+0x44>
b0007830:	e1a00380 	mov	r0, r0, lsl #7
b0007834:	e3800102 	orr	r0, r0, #-2147483648	; 0x80000000
b0007838:	e1a02c22 	mov	r2, r2, lsr #24
b000783c:	e262209e 	rsb	r2, r2, #158	; 0x9e
b0007840:	e3110102 	tst	r1, #-2147483648	; 0x80000000
b0007844:	e1a00230 	mov	r0, r0, lsr r2
b0007848:	12600000 	rsbne	r0, r0, #0	; 0x0
b000784c:	e1a0f00e 	mov	pc, lr
b0007850:	e33204ff 	teq	r2, #-16777216	; 0xff000000
b0007854:	1a000001 	bne	b0007860 <__fixsfsi+0x54>
b0007858:	e1b00400 	movs	r0, r0, lsl #8
b000785c:	1a000002 	bne	b000786c <__fixsfsi+0x60>
b0007860:	e2110102 	ands	r0, r1, #-2147483648	; 0x80000000
b0007864:	03e00102 	mvneq	r0, #-2147483648	; 0x80000000
b0007868:	e1a0f00e 	mov	pc, lr
b000786c:	e3a00000 	mov	r0, #0	; 0x0
b0007870:	e1a0f00e 	mov	pc, lr
Disassembly of section .rodata:

b0007874 <fontdata_8x16>:
	...
b0007884:	817e0000 	cmnhi	lr, r0
b0007888:	bd8181a5 	stfltd	f0, [r1, #660]
b000788c:	7e818199 	mcrvc	1, 4, r8, cr1, cr9, {4}
b0007890:	00000000 	andeq	r0, r0, r0
b0007894:	ff7e0000 	swinv	0x007e0000
b0007898:	c3ffffdb 	mvngts	pc, #876	; 0x36c
b000789c:	7effffe7 	cdpvc	15, 15, cr15, cr15, cr7, {7}
	...
b00078a8:	fefefe6c 	cdp2	14, 15, cr15, cr14, cr12, {3}
b00078ac:	10387cfe 	ldrnesh	r7, [r8], -lr
	...
b00078b8:	fe7c3810 	mrc2	8, 3, r3, cr12, cr0, {0}
b00078bc:	0010387c 	andeqs	r3, r0, ip, ror r8
b00078c0:	00000000 	andeq	r0, r0, r0
b00078c4:	18000000 	stmneda	r0, {}
b00078c8:	e7e73c3c 	undefined
b00078cc:	3c1818e7 	ldccc	8, cr1, [r8], {231}
b00078d0:	00000000 	andeq	r0, r0, r0
b00078d4:	18000000 	stmneda	r0, {}
b00078d8:	ffff7e3c 	swinv	0x00ff7e3c
b00078dc:	3c18187e 	ldccc	8, cr1, [r8], {126}
	...
b00078e8:	3c180000 	ldccc	0, cr0, [r8], {0}
b00078ec:	0000183c 	andeq	r1, r0, ip, lsr r8
b00078f0:	00000000 	andeq	r0, r0, r0
b00078f4:	ffffffff 	swinv	0x00ffffff
b00078f8:	c3e7ffff 	mvngt	pc, #1020	; 0x3fc
b00078fc:	ffffe7c3 	swinv	0x00ffe7c3
b0007900:	ffffffff 	swinv	0x00ffffff
b0007904:	00000000 	andeq	r0, r0, r0
b0007908:	42663c00 	rsbmi	r3, r6, #0	; 0x0
b000790c:	003c6642 	eoreqs	r6, ip, r2, asr #12
b0007910:	00000000 	andeq	r0, r0, r0
b0007914:	ffffffff 	swinv	0x00ffffff
b0007918:	bd99c3ff 	ldclt	3, cr12, [r9, #1020]
b000791c:	ffc399bd 	swinv	0x00c399bd
b0007920:	ffffffff 	swinv	0x00ffffff
b0007924:	0e1e0000 	wxoreq	wr0, wr14, wr0
b0007928:	cc78321a 	lfmgt	f3, 2, [r8], #-104
b000792c:	78cccccc 	stmvcia	ip, {r2, r3, r6, r7, sl, fp, lr, pc}^
b0007930:	00000000 	andeq	r0, r0, r0
b0007934:	663c0000 	ldrvst	r0, [ip], -r0
b0007938:	3c666666 	stcccl	6, cr6, [r6], #-408
b000793c:	18187e18 	ldmneda	r8, {r3, r4, r9, sl, fp, ip, sp, lr}
b0007940:	00000000 	andeq	r0, r0, r0
b0007944:	333f0000 	teqcc	pc, #0	; 0x0
b0007948:	3030303f 	eorccs	r3, r0, pc, lsr r0
b000794c:	e0f07030 	rscs	r7, r0, r0, lsr r0
b0007950:	00000000 	andeq	r0, r0, r0
b0007954:	637f0000 	cmnvs	pc, #0	; 0x0
b0007958:	6363637f 	cmnvs	r3, #-67108863	; 0xfc000001
b000795c:	e6e76763 	strbt	r6, [r7], r3, ror #14
b0007960:	000000c0 	andeq	r0, r0, r0, asr #1
b0007964:	18000000 	stmneda	r0, {}
b0007968:	e73cdb18 	undefined
b000796c:	1818db3c 	ldmneda	r8, {r2, r3, r4, r5, r8, r9, fp, ip, lr, pc}
b0007970:	00000000 	andeq	r0, r0, r0
b0007974:	e0c08000 	sbc	r8, r0, r0
b0007978:	f8fef8f0 	ldmnvia	lr!, {r4, r5, r6, r7, fp, ip, sp, lr, pc}^
b000797c:	80c0e0f0 	strhid	lr, [r0]
b0007980:	00000000 	andeq	r0, r0, r0
b0007984:	0e060200 	cdpeq	2, 0, cr0, cr6, cr0, {0}
b0007988:	3efe3e1e 	mrccc	14, 7, r3, cr14, cr14, {0}
b000798c:	02060e1e 	andeq	r0, r6, #480	; 0x1e0
b0007990:	00000000 	andeq	r0, r0, r0
b0007994:	3c180000 	ldccc	0, cr0, [r8], {0}
b0007998:	1818187e 	ldmneda	r8, {r1, r2, r3, r4, r5, r6, fp, ip}
b000799c:	00183c7e 	andeqs	r3, r8, lr, ror ip
b00079a0:	00000000 	andeq	r0, r0, r0
b00079a4:	66660000 	strvsbt	r0, [r6], -r0
b00079a8:	66666666 	strvsbt	r6, [r6], -r6, ror #12
b00079ac:	66660066 	strvsbt	r0, [r6], -r6, rrx
b00079b0:	00000000 	andeq	r0, r0, r0
b00079b4:	db7f0000 	blle	b1fc79bc <__bss_end+0x1fbbd7c>
b00079b8:	1b7bdbdb 	blne	b1efe92c <__bss_end+0x1ef2cec>
b00079bc:	1b1b1b1b 	blne	b06ce630 <__bss_end+0x6c29f0>
b00079c0:	00000000 	andeq	r0, r0, r0
b00079c4:	60c67c00 	sbcvs	r7, r6, r0, lsl #24
b00079c8:	c6c66c38 	undefined
b00079cc:	c60c386c 	strgt	r3, [ip], -ip, ror #16
b00079d0:	0000007c 	andeq	r0, r0, ip, ror r0
	...
b00079dc:	fefefefe 	mrc2	14, 7, pc, cr14, cr14, {7}
b00079e0:	00000000 	andeq	r0, r0, r0
b00079e4:	3c180000 	ldccc	0, cr0, [r8], {0}
b00079e8:	1818187e 	ldmneda	r8, {r1, r2, r3, r4, r5, r6, fp, ip}
b00079ec:	7e183c7e 	mrcvc	12, 0, r3, cr8, cr14, {3}
b00079f0:	00000000 	andeq	r0, r0, r0
b00079f4:	3c180000 	ldccc	0, cr0, [r8], {0}
b00079f8:	1818187e 	ldmneda	r8, {r1, r2, r3, r4, r5, r6, fp, ip}
b00079fc:	18181818 	ldmneda	r8, {r3, r4, fp, ip}
b0007a00:	00000000 	andeq	r0, r0, r0
b0007a04:	18180000 	ldmneda	r8, {}
b0007a08:	18181818 	ldmneda	r8, {r3, r4, fp, ip}
b0007a0c:	183c7e18 	ldmneda	ip!, {r3, r4, r9, sl, fp, ip, sp, lr}
	...
b0007a18:	fe0c1800 	cdp2	8, 0, cr1, cr12, cr0, {0}
b0007a1c:	0000180c 	andeq	r1, r0, ip, lsl #16
	...
b0007a28:	fe603000 	cdp2	0, 6, cr3, cr0, cr0, {0}
b0007a2c:	00003060 	andeq	r3, r0, r0, rrx
	...
b0007a38:	c0c00000 	sbcgt	r0, r0, r0
b0007a3c:	0000fec0 	andeq	pc, r0, r0, asr #29
	...
b0007a48:	fe6c2800 	cdp2	8, 6, cr2, cr12, cr0, {0}
b0007a4c:	0000286c 	andeq	r2, r0, ip, ror #16
	...
b0007a58:	7c383810 	ldcvc	8, cr3, [r8], #-64
b0007a5c:	00fefe7c 	rsceqs	pc, lr, ip, ror lr
	...
b0007a68:	7c7cfefe 	ldcvcl	14, cr15, [ip], #-1016
b0007a6c:	00103838 	andeqs	r3, r0, r8, lsr r8
	...
b0007a84:	3c180000 	ldccc	0, cr0, [r8], {0}
b0007a88:	18183c3c 	ldmneda	r8, {r2, r3, r4, r5, sl, fp, ip, sp}
b0007a8c:	18180018 	ldmneda	r8, {r3, r4}
b0007a90:	00000000 	andeq	r0, r0, r0
b0007a94:	66666600 	strvsbt	r6, [r6], -r0, lsl #12
b0007a98:	00000024 	andeq	r0, r0, r4, lsr #32
	...
b0007aa4:	6c000000 	stcvs	0, cr0, [r0], {0}
b0007aa8:	6c6cfe6c 	stcvsl	14, cr15, [ip], #-432
b0007aac:	6c6cfe6c 	stcvsl	14, cr15, [ip], #-432
b0007ab0:	00000000 	andeq	r0, r0, r0
b0007ab4:	c67c1818 	undefined
b0007ab8:	067cc0c2 	ldreqbt	ip, [ip], -r2, asr #1
b0007abc:	7cc68606 	stcvcl	6, cr8, [r6], {6}
b0007ac0:	00001818 	andeq	r1, r0, r8, lsl r8
b0007ac4:	00000000 	andeq	r0, r0, r0
b0007ac8:	180cc6c2 	stmneda	ip, {r1, r6, r7, r9, sl, lr, pc}
b0007acc:	86c66030 	undefined
b0007ad0:	00000000 	andeq	r0, r0, r0
b0007ad4:	6c380000 	ldcvs	0, cr0, [r8]
b0007ad8:	dc76386c 	ldclel	8, cr3, [r6], #-432
b0007adc:	76cccccc 	strvcb	ip, [ip], ip, asr #25
b0007ae0:	00000000 	andeq	r0, r0, r0
b0007ae4:	30303000 	eorccs	r3, r0, r0
b0007ae8:	00000060 	andeq	r0, r0, r0, rrx
	...
b0007af4:	180c0000 	stmneda	ip, {}
b0007af8:	30303030 	eorccs	r3, r0, r0, lsr r0
b0007afc:	0c183030 	ldceq	0, cr3, [r8], {48}
b0007b00:	00000000 	andeq	r0, r0, r0
b0007b04:	18300000 	ldmneda	r0!, {}
b0007b08:	0c0c0c0c 	stceq	12, cr0, [ip], {12}
b0007b0c:	30180c0c 	andccs	r0, r8, ip, lsl #24
	...
b0007b18:	ff3c6600 	swinv	0x003c6600
b0007b1c:	0000663c 	andeq	r6, r0, ip, lsr r6
	...
b0007b28:	7e181800 	cdpvc	8, 1, cr1, cr8, cr0, {0}
b0007b2c:	00001818 	andeq	r1, r0, r8, lsl r8
	...
b0007b3c:	18181800 	ldmneda	r8, {fp, ip}
b0007b40:	00000030 	andeq	r0, r0, r0, lsr r0
b0007b44:	00000000 	andeq	r0, r0, r0
b0007b48:	fe000000 	cdp2	0, 0, cr0, cr0, cr0, {0}
	...
b0007b5c:	18180000 	ldmneda	r8, {}
	...
b0007b68:	180c0602 	stmneda	ip, {r1, r9, sl}
b0007b6c:	80c06030 	sbchi	r6, r0, r0, lsr r0
b0007b70:	00000000 	andeq	r0, r0, r0
b0007b74:	6c380000 	ldcvs	0, cr0, [r8]
b0007b78:	d6d6c6c6 	ldrleb	ip, [r6], r6, asr #13
b0007b7c:	386cc6c6 	stmccda	ip!, {r1, r2, r6, r7, r9, sl, lr, pc}^
b0007b80:	00000000 	andeq	r0, r0, r0
b0007b84:	38180000 	ldmccda	r8, {}
b0007b88:	18181878 	ldmneda	r8, {r3, r4, r5, r6, fp, ip}
b0007b8c:	7e181818 	mrcvc	8, 0, r1, cr8, cr8, {0}
b0007b90:	00000000 	andeq	r0, r0, r0
b0007b94:	c67c0000 	ldrgtbt	r0, [ip], -r0
b0007b98:	30180c06 	andccs	r0, r8, r6, lsl #24
b0007b9c:	fec6c060 	cdp2	0, 12, cr12, cr6, cr0, {3}
b0007ba0:	00000000 	andeq	r0, r0, r0
b0007ba4:	c67c0000 	ldrgtbt	r0, [ip], -r0
b0007ba8:	063c0606 	ldreqt	r0, [ip], -r6, lsl #12
b0007bac:	7cc60606 	stcvcl	6, cr0, [r6], {6}
b0007bb0:	00000000 	andeq	r0, r0, r0
b0007bb4:	1c0c0000 	stcne	0, cr0, [ip], {0}
b0007bb8:	fecc6c3c 	mcr2	12, 6, r6, cr12, cr12, {1}
b0007bbc:	1e0c0c0c 	cdpne	12, 0, cr0, cr12, cr12, {0}
b0007bc0:	00000000 	andeq	r0, r0, r0
b0007bc4:	c0fe0000 	rscgts	r0, lr, r0
b0007bc8:	06fcc0c0 	ldreqbt	ip, [ip], r0, asr #1
b0007bcc:	7cc60606 	stcvcl	6, cr0, [r6], {6}
b0007bd0:	00000000 	andeq	r0, r0, r0
b0007bd4:	60380000 	eorvss	r0, r8, r0
b0007bd8:	c6fcc0c0 	ldrgtbt	ip, [ip], r0, asr #1
b0007bdc:	7cc6c6c6 	stcvcl	6, cr12, [r6], {198}
b0007be0:	00000000 	andeq	r0, r0, r0
b0007be4:	c6fe0000 	ldrgtbt	r0, [lr], r0
b0007be8:	180c0606 	stmneda	ip, {r1, r2, r9, sl}
b0007bec:	30303030 	eorccs	r3, r0, r0, lsr r0
b0007bf0:	00000000 	andeq	r0, r0, r0
b0007bf4:	c67c0000 	ldrgtbt	r0, [ip], -r0
b0007bf8:	c67cc6c6 	ldrgtbt	ip, [ip], -r6, asr #13
b0007bfc:	7cc6c6c6 	stcvcl	6, cr12, [r6], {198}
b0007c00:	00000000 	andeq	r0, r0, r0
b0007c04:	c67c0000 	ldrgtbt	r0, [ip], -r0
b0007c08:	067ec6c6 	ldreqbt	ip, [lr], -r6, asr #13
b0007c0c:	780c0606 	stmvcda	ip, {r1, r2, r9, sl}
	...
b0007c18:	00001818 	andeq	r1, r0, r8, lsl r8
b0007c1c:	00181800 	andeqs	r1, r8, r0, lsl #16
	...
b0007c28:	00001818 	andeq	r1, r0, r8, lsl r8
b0007c2c:	30181800 	andccs	r1, r8, r0, lsl #16
b0007c30:	00000000 	andeq	r0, r0, r0
b0007c34:	06000000 	streq	r0, [r0], -r0
b0007c38:	6030180c 	eorvss	r1, r0, ip, lsl #16
b0007c3c:	060c1830 	undefined
	...
b0007c48:	00007e00 	andeq	r7, r0, r0, lsl #28
b0007c4c:	0000007e 	andeq	r0, r0, lr, ror r0
b0007c50:	00000000 	andeq	r0, r0, r0
b0007c54:	60000000 	andvs	r0, r0, r0
b0007c58:	060c1830 	undefined
b0007c5c:	6030180c 	eorvss	r1, r0, ip, lsl #16
b0007c60:	00000000 	andeq	r0, r0, r0
b0007c64:	c67c0000 	ldrgtbt	r0, [ip], -r0
b0007c68:	18180cc6 	ldmneda	r8, {r1, r2, r6, r7, sl, fp}
b0007c6c:	18180018 	ldmneda	r8, {r3, r4}
b0007c70:	00000000 	andeq	r0, r0, r0
b0007c74:	7c000000 	stcvc	0, cr0, [r0], {0}
b0007c78:	dedec6c6 	cdple	6, 13, cr12, cr14, cr6, {6}
b0007c7c:	7cc0dcde 	stcvcl	12, cr13, [r0], {222}
b0007c80:	00000000 	andeq	r0, r0, r0
b0007c84:	38100000 	ldmccda	r0, {}
b0007c88:	fec6c66c 	cdp2	6, 12, cr12, cr6, cr12, {3}
b0007c8c:	c6c6c6c6 	strgtb	ip, [r6], r6, asr #13
b0007c90:	00000000 	andeq	r0, r0, r0
b0007c94:	66fc0000 	ldrvsbt	r0, [ip], r0
b0007c98:	667c6666 	ldrvsbt	r6, [ip], -r6, ror #12
b0007c9c:	fc666666 	stc2l	6, cr6, [r6], #-408
b0007ca0:	00000000 	andeq	r0, r0, r0
b0007ca4:	663c0000 	ldrvst	r0, [ip], -r0
b0007ca8:	c0c0c0c2 	sbcgt	ip, r0, r2, asr #1
b0007cac:	3c66c2c0 	sfmcc	f4, 3, [r6], #-768
b0007cb0:	00000000 	andeq	r0, r0, r0
b0007cb4:	6cf80000 	ldcvsl	0, cr0, [r8]
b0007cb8:	66666666 	strvsbt	r6, [r6], -r6, ror #12
b0007cbc:	f86c6666 	stmnvda	ip!, {r1, r2, r5, r6, r9, sl, sp, lr}^
b0007cc0:	00000000 	andeq	r0, r0, r0
b0007cc4:	66fe0000 	ldrvsbt	r0, [lr], r0
b0007cc8:	68786862 	ldmvsda	r8!, {r1, r5, r6, fp, sp, lr}^
b0007ccc:	fe666260 	cdp2	2, 6, cr6, cr6, cr0, {3}
b0007cd0:	00000000 	andeq	r0, r0, r0
b0007cd4:	66fe0000 	ldrvsbt	r0, [lr], r0
b0007cd8:	68786862 	ldmvsda	r8!, {r1, r5, r6, fp, sp, lr}^
b0007cdc:	f0606060 	rsbnv	r6, r0, r0, rrx
b0007ce0:	00000000 	andeq	r0, r0, r0
b0007ce4:	663c0000 	ldrvst	r0, [ip], -r0
b0007ce8:	dec0c0c2 	cdple	0, 12, cr12, cr0, cr2, {6}
b0007cec:	3a66c6c6 	bcc	b19b980c <__bss_end+0x19adbcc>
b0007cf0:	00000000 	andeq	r0, r0, r0
b0007cf4:	c6c60000 	strgtb	r0, [r6], r0
b0007cf8:	c6fec6c6 	ldrgtbt	ip, [lr], r6, asr #13
b0007cfc:	c6c6c6c6 	strgtb	ip, [r6], r6, asr #13
b0007d00:	00000000 	andeq	r0, r0, r0
b0007d04:	183c0000 	ldmneda	ip!, {}
b0007d08:	18181818 	ldmneda	r8, {r3, r4, fp, ip}
b0007d0c:	3c181818 	ldccc	8, cr1, [r8], {24}
b0007d10:	00000000 	andeq	r0, r0, r0
b0007d14:	0c1e0000 	ldceq	0, cr0, [lr], {0}
b0007d18:	0c0c0c0c 	stceq	12, cr0, [ip], {12}
b0007d1c:	78cccccc 	stmvcia	ip, {r2, r3, r6, r7, sl, fp, lr, pc}^
b0007d20:	00000000 	andeq	r0, r0, r0
b0007d24:	66e60000 	strvsbt	r0, [r6], r0
b0007d28:	78786c66 	ldmvcda	r8!, {r1, r2, r5, r6, sl, fp, sp, lr}^
b0007d2c:	e666666c 	strbt	r6, [r6], -ip, ror #12
b0007d30:	00000000 	andeq	r0, r0, r0
b0007d34:	60f00000 	rscvss	r0, r0, r0
b0007d38:	60606060 	rsbvs	r6, r0, r0, rrx
b0007d3c:	fe666260 	cdp2	2, 6, cr6, cr6, cr0, {3}
b0007d40:	00000000 	andeq	r0, r0, r0
b0007d44:	eec60000 	cdp	0, 12, cr0, cr6, cr0, {0}
b0007d48:	c6d6fefe 	undefined
b0007d4c:	c6c6c6c6 	strgtb	ip, [r6], r6, asr #13
b0007d50:	00000000 	andeq	r0, r0, r0
b0007d54:	e6c60000 	strb	r0, [r6], r0
b0007d58:	cedefef6 	mrcgt	14, 6, pc, cr14, cr6, {7}
b0007d5c:	c6c6c6c6 	strgtb	ip, [r6], r6, asr #13
b0007d60:	00000000 	andeq	r0, r0, r0
b0007d64:	c67c0000 	ldrgtbt	r0, [ip], -r0
b0007d68:	c6c6c6c6 	strgtb	ip, [r6], r6, asr #13
b0007d6c:	7cc6c6c6 	stcvcl	6, cr12, [r6], {198}
b0007d70:	00000000 	andeq	r0, r0, r0
b0007d74:	66fc0000 	ldrvsbt	r0, [ip], r0
b0007d78:	607c6666 	rsbvss	r6, ip, r6, ror #12
b0007d7c:	f0606060 	rsbnv	r6, r0, r0, rrx
b0007d80:	00000000 	andeq	r0, r0, r0
b0007d84:	c67c0000 	ldrgtbt	r0, [ip], -r0
b0007d88:	c6c6c6c6 	strgtb	ip, [r6], r6, asr #13
b0007d8c:	7cded6c6 	ldcvcl	6, cr13, [lr], {198}
b0007d90:	00000e0c 	andeq	r0, r0, ip, lsl #28
b0007d94:	66fc0000 	ldrvsbt	r0, [ip], r0
b0007d98:	6c7c6666 	ldcvsl	6, cr6, [ip], #-408
b0007d9c:	e6666666 	strbt	r6, [r6], -r6, ror #12
b0007da0:	00000000 	andeq	r0, r0, r0
b0007da4:	c67c0000 	ldrgtbt	r0, [ip], -r0
b0007da8:	0c3860c6 	ldceq	0, cr6, [r8], #-792
b0007dac:	7cc6c606 	stcvcl	6, cr12, [r6], {6}
b0007db0:	00000000 	andeq	r0, r0, r0
b0007db4:	7e7e0000 	cdpvc	0, 7, cr0, cr14, cr0, {0}
b0007db8:	1818185a 	ldmneda	r8, {r1, r3, r4, r6, fp, ip}
b0007dbc:	3c181818 	ldccc	8, cr1, [r8], {24}
b0007dc0:	00000000 	andeq	r0, r0, r0
b0007dc4:	c6c60000 	strgtb	r0, [r6], r0
b0007dc8:	c6c6c6c6 	strgtb	ip, [r6], r6, asr #13
b0007dcc:	7cc6c6c6 	stcvcl	6, cr12, [r6], {198}
b0007dd0:	00000000 	andeq	r0, r0, r0
b0007dd4:	c6c60000 	strgtb	r0, [r6], r0
b0007dd8:	c6c6c6c6 	strgtb	ip, [r6], r6, asr #13
b0007ddc:	10386cc6 	eornes	r6, r8, r6, asr #25
b0007de0:	00000000 	andeq	r0, r0, r0
b0007de4:	c6c60000 	strgtb	r0, [r6], r0
b0007de8:	d6d6c6c6 	ldrleb	ip, [r6], r6, asr #13
b0007dec:	6ceefed6 	stcvsl	14, cr15, [lr], #856
b0007df0:	00000000 	andeq	r0, r0, r0
b0007df4:	c6c60000 	strgtb	r0, [r6], r0
b0007df8:	38387c6c 	ldmccda	r8!, {r2, r3, r5, r6, sl, fp, ip, sp, lr}
b0007dfc:	c6c66c7c 	uxtab16gt	r6, r6, ip, ROR #24
b0007e00:	00000000 	andeq	r0, r0, r0
b0007e04:	66660000 	strvsbt	r0, [r6], -r0
b0007e08:	183c6666 	ldmneda	ip!, {r1, r2, r5, r6, r9, sl, sp, lr}
b0007e0c:	3c181818 	ldccc	8, cr1, [r8], {24}
b0007e10:	00000000 	andeq	r0, r0, r0
b0007e14:	c6fe0000 	ldrgtbt	r0, [lr], r0
b0007e18:	30180c86 	andccs	r0, r8, r6, lsl #25
b0007e1c:	fec6c260 	cdp2	2, 12, cr12, cr6, cr0, {3}
b0007e20:	00000000 	andeq	r0, r0, r0
b0007e24:	303c0000 	eorccs	r0, ip, r0
b0007e28:	30303030 	eorccs	r3, r0, r0, lsr r0
b0007e2c:	3c303030 	ldccc	0, cr3, [r0], #-192
b0007e30:	00000000 	andeq	r0, r0, r0
b0007e34:	80000000 	andhi	r0, r0, r0
b0007e38:	3870e0c0 	ldmccda	r0!, {r6, r7, sp, lr, pc}^
b0007e3c:	02060e1c 	andeq	r0, r6, #448	; 0x1c0
b0007e40:	00000000 	andeq	r0, r0, r0
b0007e44:	0c3c0000 	ldceq	0, cr0, [ip]
b0007e48:	0c0c0c0c 	stceq	12, cr0, [ip], {12}
b0007e4c:	3c0c0c0c 	stccc	12, cr0, [ip], {12}
b0007e50:	00000000 	andeq	r0, r0, r0
b0007e54:	c66c3810 	undefined
	...
b0007e70:	0000ff00 	andeq	pc, r0, r0, lsl #30
b0007e74:	0c183000 	ldceq	0, cr3, [r8], {0}
	...
b0007e88:	7c0c7800 	stcvc	8, cr7, [ip], {0}
b0007e8c:	76cccccc 	strvcb	ip, [ip], ip, asr #25
b0007e90:	00000000 	andeq	r0, r0, r0
b0007e94:	60e00000 	rscvs	r0, r0, r0
b0007e98:	666c7860 	strvsbt	r7, [ip], -r0, ror #16
b0007e9c:	7c666666 	stcvcl	6, cr6, [r6], #-408
	...
b0007ea8:	c0c67c00 	sbcgt	r7, r6, r0, lsl #24
b0007eac:	7cc6c0c0 	stcvcl	0, cr12, [r6], {192}
b0007eb0:	00000000 	andeq	r0, r0, r0
b0007eb4:	0c1c0000 	ldceq	0, cr0, [ip], {0}
b0007eb8:	cc6c3c0c 	stcgtl	12, cr3, [ip], #-48
b0007ebc:	76cccccc 	strvcb	ip, [ip], ip, asr #25
	...
b0007ec8:	fec67c00 	cdp2	12, 12, cr7, cr6, cr0, {0}
b0007ecc:	7cc6c0c0 	stcvcl	0, cr12, [r6], {192}
b0007ed0:	00000000 	andeq	r0, r0, r0
b0007ed4:	361c0000 	ldrcc	r0, [ip], -r0
b0007ed8:	30783032 	rsbccs	r3, r8, r2, lsr r0
b0007edc:	78303030 	ldmvcda	r0!, {r4, r5, ip, sp}
	...
b0007ee8:	cccc7600 	stcgtl	6, cr7, [ip], {0}
b0007eec:	7ccccccc 	stcvcl	12, cr12, [ip], {204}
b0007ef0:	0078cc0c 	rsbeqs	ip, r8, ip, lsl #24
b0007ef4:	60e00000 	rscvs	r0, r0, r0
b0007ef8:	66766c60 	ldrvsbt	r6, [r6], -r0, ror #24
b0007efc:	e6666666 	strbt	r6, [r6], -r6, ror #12
b0007f00:	00000000 	andeq	r0, r0, r0
b0007f04:	18180000 	ldmneda	r8, {}
b0007f08:	18183800 	ldmneda	r8, {fp, ip, sp}
b0007f0c:	3c181818 	ldccc	8, cr1, [r8], {24}
b0007f10:	00000000 	andeq	r0, r0, r0
b0007f14:	06060000 	streq	r0, [r6], -r0
b0007f18:	06060e00 	streq	r0, [r6], -r0, lsl #28
b0007f1c:	06060606 	streq	r0, [r6], -r6, lsl #12
b0007f20:	003c6666 	eoreqs	r6, ip, r6, ror #12
b0007f24:	60e00000 	rscvs	r0, r0, r0
b0007f28:	786c6660 	stmvcda	ip!, {r5, r6, r9, sl, sp, lr}^
b0007f2c:	e6666c78 	undefined
b0007f30:	00000000 	andeq	r0, r0, r0
b0007f34:	18380000 	ldmneda	r8!, {}
b0007f38:	18181818 	ldmneda	r8, {r3, r4, fp, ip}
b0007f3c:	3c181818 	ldccc	8, cr1, [r8], {24}
	...
b0007f48:	d6feec00 	ldrlebt	lr, [lr], r0, lsl #24
b0007f4c:	c6d6d6d6 	undefined
	...
b0007f58:	6666dc00 	strvsbt	sp, [r6], -r0, lsl #24
b0007f5c:	66666666 	strvsbt	r6, [r6], -r6, ror #12
	...
b0007f68:	c6c67c00 	strgtb	r7, [r6], r0, lsl #24
b0007f6c:	7cc6c6c6 	stcvcl	6, cr12, [r6], {198}
	...
b0007f78:	6666dc00 	strvsbt	sp, [r6], -r0, lsl #24
b0007f7c:	7c666666 	stcvcl	6, cr6, [r6], #-408
b0007f80:	00f06060 	rsceqs	r6, r0, r0, rrx
b0007f84:	00000000 	andeq	r0, r0, r0
b0007f88:	cccc7600 	stcgtl	6, cr7, [ip], {0}
b0007f8c:	7ccccccc 	stcvcl	12, cr12, [ip], {204}
b0007f90:	001e0c0c 	andeqs	r0, lr, ip, lsl #24
b0007f94:	00000000 	andeq	r0, r0, r0
b0007f98:	6676dc00 	ldrvsbt	sp, [r6], -r0, lsl #24
b0007f9c:	f0606060 	rsbnv	r6, r0, r0, rrx
	...
b0007fa8:	60c67c00 	sbcvs	r7, r6, r0, lsl #24
b0007fac:	7cc60c38 	stcvcl	12, cr0, [r6], {56}
b0007fb0:	00000000 	andeq	r0, r0, r0
b0007fb4:	30100000 	andccs	r0, r0, r0
b0007fb8:	3030fc30 	eorccs	pc, r0, r0, lsr ip
b0007fbc:	1c363030 	ldcne	0, cr3, [r6], #-192
	...
b0007fc8:	cccccc00 	stcgtl	12, cr12, [ip], {0}
b0007fcc:	76cccccc 	strvcb	ip, [ip], ip, asr #25
	...
b0007fd8:	c6c6c600 	strgtb	ip, [r6], r0, lsl #12
b0007fdc:	386cc6c6 	stmccda	ip!, {r1, r2, r6, r7, r9, sl, lr, pc}^
	...
b0007fe8:	d6c6c600 	strleb	ip, [r6], r0, lsl #12
b0007fec:	6cfed6d6 	ldcvsl	6, cr13, [lr], #856
	...
b0007ff8:	386cc600 	stmccda	ip!, {r9, sl, lr, pc}^
b0007ffc:	c66c3838 	undefined
	...
b0008008:	c6c6c600 	strgtb	ip, [r6], r0, lsl #12
b000800c:	7ec6c6c6 	cdpvc	6, 12, cr12, cr6, cr6, {6}
b0008010:	00f80c06 	rsceqs	r0, r8, r6, lsl #24
b0008014:	00000000 	andeq	r0, r0, r0
b0008018:	18ccfe00 	stmneia	ip, {r9, sl, fp, ip, sp, lr, pc}^
b000801c:	fec66030 	mcr2	0, 6, r6, cr6, cr0, {1}
b0008020:	00000000 	andeq	r0, r0, r0
b0008024:	180e0000 	stmneda	lr, {}
b0008028:	18701818 	ldmneda	r0!, {r3, r4, fp, ip}^
b000802c:	0e181818 	mrceq	8, 0, r1, cr8, cr8, {0}
b0008030:	00000000 	andeq	r0, r0, r0
b0008034:	18180000 	ldmneda	r8, {}
b0008038:	18181818 	ldmneda	r8, {r3, r4, fp, ip}
b000803c:	18181818 	ldmneda	r8, {r3, r4, fp, ip}
b0008040:	00000000 	andeq	r0, r0, r0
b0008044:	18700000 	ldmneda	r0!, {}^
b0008048:	180e1818 	stmneda	lr, {r3, r4, fp, ip}
b000804c:	70181818 	andvcs	r1, r8, r8, lsl r8
b0008050:	00000000 	andeq	r0, r0, r0
b0008054:	00dc7600 	sbceqs	r7, ip, r0, lsl #12
	...
b0008068:	c66c3810 	undefined
b000806c:	00fec6c6 	rsceqs	ip, lr, r6, asr #13
b0008070:	00000000 	andeq	r0, r0, r0
b0008074:	663c0000 	ldrvst	r0, [ip], -r0
b0008078:	c0c0c0c2 	sbcgt	ip, r0, r2, asr #1
b000807c:	3c66c2c0 	sfmcc	f4, 3, [r6], #-768
b0008080:	00007018 	andeq	r7, r0, r8, lsl r0
b0008084:	00cc0000 	sbceq	r0, ip, r0
b0008088:	cccccc00 	stcgtl	12, cr12, [ip], {0}
b000808c:	76cccccc 	strvcb	ip, [ip], ip, asr #25
b0008090:	00000000 	andeq	r0, r0, r0
b0008094:	30180c00 	andccs	r0, r8, r0, lsl #24
b0008098:	fec67c00 	cdp2	12, 12, cr7, cr6, cr0, {0}
b000809c:	7cc6c0c0 	stcvcl	0, cr12, [r6], {192}
b00080a0:	00000000 	andeq	r0, r0, r0
b00080a4:	6c381000 	ldcvs	0, cr1, [r8]
b00080a8:	7c0c7800 	stcvc	8, cr7, [ip], {0}
b00080ac:	76cccccc 	strvcb	ip, [ip], ip, asr #25
b00080b0:	00000000 	andeq	r0, r0, r0
b00080b4:	00cc0000 	sbceq	r0, ip, r0
b00080b8:	7c0c7800 	stcvc	8, cr7, [ip], {0}
b00080bc:	76cccccc 	strvcb	ip, [ip], ip, asr #25
b00080c0:	00000000 	andeq	r0, r0, r0
b00080c4:	18306000 	ldmneda	r0!, {sp, lr}
b00080c8:	7c0c7800 	stcvc	8, cr7, [ip], {0}
b00080cc:	76cccccc 	strvcb	ip, [ip], ip, asr #25
b00080d0:	00000000 	andeq	r0, r0, r0
b00080d4:	386c3800 	stmccda	ip!, {fp, ip, sp}^
b00080d8:	7c0c7800 	stcvc	8, cr7, [ip], {0}
b00080dc:	76cccccc 	strvcb	ip, [ip], ip, asr #25
	...
b00080e8:	c0c67c00 	sbcgt	r7, r6, r0, lsl #24
b00080ec:	7cc6c0c0 	stcvcl	0, cr12, [r6], {192}
b00080f0:	00007018 	andeq	r7, r0, r8, lsl r0
b00080f4:	6c381000 	ldcvs	0, cr1, [r8]
b00080f8:	fec67c00 	cdp2	12, 12, cr7, cr6, cr0, {0}
b00080fc:	7cc6c0c0 	stcvcl	0, cr12, [r6], {192}
b0008100:	00000000 	andeq	r0, r0, r0
b0008104:	00c60000 	sbceq	r0, r6, r0
b0008108:	fec67c00 	cdp2	12, 12, cr7, cr6, cr0, {0}
b000810c:	7cc6c0c0 	stcvcl	0, cr12, [r6], {192}
b0008110:	00000000 	andeq	r0, r0, r0
b0008114:	18306000 	ldmneda	r0!, {sp, lr}
b0008118:	fec67c00 	cdp2	12, 12, cr7, cr6, cr0, {0}
b000811c:	7cc6c0c0 	stcvcl	0, cr12, [r6], {192}
b0008120:	00000000 	andeq	r0, r0, r0
b0008124:	00660000 	rsbeq	r0, r6, r0
b0008128:	18183800 	ldmneda	r8, {fp, ip, sp}
b000812c:	3c181818 	ldccc	8, cr1, [r8], {24}
b0008130:	00000000 	andeq	r0, r0, r0
b0008134:	663c1800 	ldrvst	r1, [ip], -r0, lsl #16
b0008138:	18183800 	ldmneda	r8, {fp, ip, sp}
b000813c:	3c181818 	ldccc	8, cr1, [r8], {24}
b0008140:	00000000 	andeq	r0, r0, r0
b0008144:	18306000 	ldmneda	r0!, {sp, lr}
b0008148:	18183800 	ldmneda	r8, {fp, ip, sp}
b000814c:	3c181818 	ldccc	8, cr1, [r8], {24}
b0008150:	00000000 	andeq	r0, r0, r0
b0008154:	1000c600 	andne	ip, r0, r0, lsl #12
b0008158:	c6c66c38 	undefined
b000815c:	c6c6c6fe 	undefined
b0008160:	00000000 	andeq	r0, r0, r0
b0008164:	10386c38 	eornes	r6, r8, r8, lsr ip
b0008168:	fec66c38 	mcr2	12, 6, r6, cr6, cr8, {1}
b000816c:	c6c6c6c6 	strgtb	ip, [r6], r6, asr #13
b0008170:	00000000 	andeq	r0, r0, r0
b0008174:	fe00180c 	cdp2	8, 0, cr1, cr0, cr12, {0}
b0008178:	78686266 	stmvcda	r8!, {r1, r2, r5, r6, r9, sp, lr}^
b000817c:	fe666268 	cdp2	2, 6, cr6, cr6, cr8, {3}
	...
b0008188:	3636ec00 	ldrcct	lr, [r6], -r0, lsl #24
b000818c:	6ed8d87e 	mrcvs	8, 6, sp, cr8, cr14, {3}
b0008190:	00000000 	andeq	r0, r0, r0
b0008194:	6c3e0000 	ldcvs	0, cr0, [lr]
b0008198:	ccfecccc 	ldcgtl	12, cr12, [lr], #816
b000819c:	cecccccc 	cdpgt	12, 12, cr12, cr12, cr12, {6}
b00081a0:	00000000 	andeq	r0, r0, r0
b00081a4:	6c381000 	ldcvs	0, cr1, [r8]
b00081a8:	c6c67c00 	strgtb	r7, [r6], r0, lsl #24
b00081ac:	7cc6c6c6 	stcvcl	6, cr12, [r6], {198}
b00081b0:	00000000 	andeq	r0, r0, r0
b00081b4:	00c60000 	sbceq	r0, r6, r0
b00081b8:	c6c67c00 	strgtb	r7, [r6], r0, lsl #24
b00081bc:	7cc6c6c6 	stcvcl	6, cr12, [r6], {198}
b00081c0:	00000000 	andeq	r0, r0, r0
b00081c4:	18306000 	ldmneda	r0!, {sp, lr}
b00081c8:	c6c67c00 	strgtb	r7, [r6], r0, lsl #24
b00081cc:	7cc6c6c6 	stcvcl	6, cr12, [r6], {198}
b00081d0:	00000000 	andeq	r0, r0, r0
b00081d4:	cc783000 	ldcgtl	0, cr3, [r8]
b00081d8:	cccccc00 	stcgtl	12, cr12, [ip], {0}
b00081dc:	76cccccc 	strvcb	ip, [ip], ip, asr #25
b00081e0:	00000000 	andeq	r0, r0, r0
b00081e4:	18306000 	ldmneda	r0!, {sp, lr}
b00081e8:	cccccc00 	stcgtl	12, cr12, [ip], {0}
b00081ec:	76cccccc 	strvcb	ip, [ip], ip, asr #25
b00081f0:	00000000 	andeq	r0, r0, r0
b00081f4:	00c60000 	sbceq	r0, r6, r0
b00081f8:	c6c6c600 	strgtb	ip, [r6], r0, lsl #12
b00081fc:	7ec6c6c6 	cdpvc	6, 12, cr12, cr6, cr6, {6}
b0008200:	00780c06 	rsbeqs	r0, r8, r6, lsl #24
b0008204:	7c00c600 	stcvc	6, cr12, [r0], {0}
b0008208:	c6c6c6c6 	strgtb	ip, [r6], r6, asr #13
b000820c:	7cc6c6c6 	stcvcl	6, cr12, [r6], {198}
b0008210:	00000000 	andeq	r0, r0, r0
b0008214:	c600c600 	strgt	ip, [r0], -r0, lsl #12
b0008218:	c6c6c6c6 	strgtb	ip, [r6], r6, asr #13
b000821c:	7cc6c6c6 	stcvcl	6, cr12, [r6], {198}
b0008220:	00000000 	andeq	r0, r0, r0
b0008224:	7c181800 	ldcvc	8, cr1, [r8], {0}
b0008228:	c0c0c0c6 	sbcgt	ip, r0, r6, asr #1
b000822c:	18187cc6 	ldmneda	r8, {r1, r2, r6, r7, sl, fp, ip, sp, lr}
b0008230:	00000000 	andeq	r0, r0, r0
b0008234:	646c3800 	strvsbt	r3, [ip], #-2048
b0008238:	6060f060 	rsbvs	pc, r0, r0, rrx
b000823c:	fce66060 	stc2l	0, cr6, [r6], #384
b0008240:	00000000 	andeq	r0, r0, r0
b0008244:	66660000 	strvsbt	r0, [r6], -r0
b0008248:	187e183c 	ldmneda	lr!, {r2, r3, r4, r5, fp, ip}^
b000824c:	1818187e 	ldmneda	r8, {r1, r2, r3, r4, r5, r6, fp, ip}
b0008250:	00000000 	andeq	r0, r0, r0
b0008254:	ccccf800 	stcgtl	8, cr15, [ip], {0}
b0008258:	deccc4f8 	mcrle	4, 6, ip, cr12, cr8, {7}
b000825c:	c6cccccc 	strgtb	ip, [ip], ip, asr #25
b0008260:	00000000 	andeq	r0, r0, r0
b0008264:	181b0e00 	ldmneda	fp, {r9, sl, fp}
b0008268:	187e1818 	ldmneda	lr!, {r3, r4, fp, ip}^
b000826c:	70d81818 	sbcvcs	r1, r8, r8, lsl r8
b0008270:	00000000 	andeq	r0, r0, r0
b0008274:	60301800 	eorvss	r1, r0, r0, lsl #16
b0008278:	7c0c7800 	stcvc	8, cr7, [ip], {0}
b000827c:	76cccccc 	strvcb	ip, [ip], ip, asr #25
b0008280:	00000000 	andeq	r0, r0, r0
b0008284:	30180c00 	andccs	r0, r8, r0, lsl #24
b0008288:	18183800 	ldmneda	r8, {fp, ip, sp}
b000828c:	3c181818 	ldccc	8, cr1, [r8], {24}
b0008290:	00000000 	andeq	r0, r0, r0
b0008294:	60301800 	eorvss	r1, r0, r0, lsl #16
b0008298:	c6c67c00 	strgtb	r7, [r6], r0, lsl #24
b000829c:	7cc6c6c6 	stcvcl	6, cr12, [r6], {198}
b00082a0:	00000000 	andeq	r0, r0, r0
b00082a4:	60301800 	eorvss	r1, r0, r0, lsl #16
b00082a8:	cccccc00 	stcgtl	12, cr12, [ip], {0}
b00082ac:	76cccccc 	strvcb	ip, [ip], ip, asr #25
b00082b0:	00000000 	andeq	r0, r0, r0
b00082b4:	dc760000 	ldclel	0, cr0, [r6]
b00082b8:	6666dc00 	strvsbt	sp, [r6], -r0, lsl #24
b00082bc:	66666666 	strvsbt	r6, [r6], -r6, ror #12
b00082c0:	00000000 	andeq	r0, r0, r0
b00082c4:	c600dc76 	undefined
b00082c8:	defef6e6 	cdple	6, 15, cr15, cr14, cr6, {7}
b00082cc:	c6c6c6ce 	strgtb	ip, [r6], lr, asr #13
b00082d0:	00000000 	andeq	r0, r0, r0
b00082d4:	6c3c0000 	ldcvs	0, cr0, [ip]
b00082d8:	7e003e6c 	cdpvc	14, 0, cr3, cr0, cr12, {3}
	...
b00082e4:	6c380000 	ldcvs	0, cr0, [r8]
b00082e8:	7c00386c 	stcvc	8, cr3, [r0], {108}
	...
b00082f4:	30300000 	eorccs	r0, r0, r0
b00082f8:	60303000 	eorvss	r3, r0, r0
b00082fc:	7cc6c6c0 	stcvcl	6, cr12, [r6], {192}
	...
b0008308:	c0fe0000 	rscgts	r0, lr, r0
b000830c:	00c0c0c0 	sbceq	ip, r0, r0, asr #1
	...
b0008318:	06fe0000 	ldreqbt	r0, [lr], r0
b000831c:	00060606 	andeq	r0, r6, r6, lsl #12
b0008320:	00000000 	andeq	r0, r0, r0
b0008324:	62e06000 	rscvs	r6, r0, #0	; 0x0
b0008328:	30186c66 	andccs	r6, r8, r6, ror #24
b000832c:	0c86dc60 	stceq	12, cr13, [r6], {96}
b0008330:	00003e18 	andeq	r3, r0, r8, lsl lr
b0008334:	62e06000 	rscvs	r6, r0, #0	; 0x0
b0008338:	30186c66 	andccs	r6, r8, r6, ror #24
b000833c:	3f9ace66 	swicc	0x009ace66
b0008340:	00000606 	andeq	r0, r0, r6, lsl #12
b0008344:	18180000 	ldmneda	r8, {}
b0008348:	18181800 	ldmneda	r8, {fp, ip}
b000834c:	183c3c3c 	ldmneda	ip!, {r2, r3, r4, r5, sl, fp, ip, sp}
	...
b0008358:	d86c3600 	stmleda	ip!, {r9, sl, ip, sp}^
b000835c:	0000366c 	andeq	r3, r0, ip, ror #12
	...
b0008368:	366cd800 	strccbt	sp, [ip], -r0, lsl #16
b000836c:	0000d86c 	andeq	sp, r0, ip, ror #16
b0008370:	00000000 	andeq	r0, r0, r0
b0008374:	44114411 	ldrmi	r4, [r1], #-1041
b0008378:	44114411 	ldrmi	r4, [r1], #-1041
b000837c:	44114411 	ldrmi	r4, [r1], #-1041
b0008380:	44114411 	ldrmi	r4, [r1], #-1041
b0008384:	aa55aa55 	bge	b1572ce0 <__bss_end+0x15670a0>
b0008388:	aa55aa55 	bge	b1572ce4 <__bss_end+0x15670a4>
b000838c:	aa55aa55 	bge	b1572ce8 <__bss_end+0x15670a8>
b0008390:	aa55aa55 	bge	b1572cec <__bss_end+0x15670ac>
b0008394:	77dd77dd 	undefined
b0008398:	77dd77dd 	undefined
b000839c:	77dd77dd 	undefined
b00083a0:	77dd77dd 	undefined
b00083a4:	18181818 	ldmneda	r8, {r3, r4, fp, ip}
b00083a8:	18181818 	ldmneda	r8, {r3, r4, fp, ip}
b00083ac:	18181818 	ldmneda	r8, {r3, r4, fp, ip}
b00083b0:	18181818 	ldmneda	r8, {r3, r4, fp, ip}
b00083b4:	18181818 	ldmneda	r8, {r3, r4, fp, ip}
b00083b8:	f8181818 	ldmnvda	r8, {r3, r4, fp, ip}
b00083bc:	18181818 	ldmneda	r8, {r3, r4, fp, ip}
b00083c0:	18181818 	ldmneda	r8, {r3, r4, fp, ip}
b00083c4:	18181818 	ldmneda	r8, {r3, r4, fp, ip}
b00083c8:	f818f818 	ldmnvda	r8, {r3, r4, fp, ip, sp, lr, pc}
b00083cc:	18181818 	ldmneda	r8, {r3, r4, fp, ip}
b00083d0:	18181818 	ldmneda	r8, {r3, r4, fp, ip}
b00083d4:	36363636 	undefined
b00083d8:	f6363636 	undefined
b00083dc:	36363636 	undefined
b00083e0:	36363636 	undefined
b00083e4:	00000000 	andeq	r0, r0, r0
b00083e8:	fe000000 	cdp2	0, 0, cr0, cr0, cr0, {0}
b00083ec:	36363636 	undefined
b00083f0:	36363636 	undefined
b00083f4:	00000000 	andeq	r0, r0, r0
b00083f8:	f818f800 	ldmnvda	r8, {fp, ip, sp, lr, pc}
b00083fc:	18181818 	ldmneda	r8, {r3, r4, fp, ip}
b0008400:	18181818 	ldmneda	r8, {r3, r4, fp, ip}
b0008404:	36363636 	undefined
b0008408:	f606f636 	undefined
b000840c:	36363636 	undefined
b0008410:	36363636 	undefined
b0008414:	36363636 	undefined
b0008418:	36363636 	undefined
b000841c:	36363636 	undefined
b0008420:	36363636 	undefined
b0008424:	00000000 	andeq	r0, r0, r0
b0008428:	f606fe00 	strnv	pc, [r6], -r0, lsl #28
b000842c:	36363636 	undefined
b0008430:	36363636 	undefined
b0008434:	36363636 	undefined
b0008438:	fe06f636 	mcr2	6, 0, pc, cr6, cr6, {1}
	...
b0008444:	36363636 	undefined
b0008448:	fe363636 	mrc2	6, 1, r3, cr6, cr6, {1}
	...
b0008454:	18181818 	ldmneda	r8, {r3, r4, fp, ip}
b0008458:	f818f818 	ldmnvda	r8, {r3, r4, fp, ip, sp, lr, pc}
	...
b0008468:	f8000000 	stmnvda	r0, {}
b000846c:	18181818 	ldmneda	r8, {r3, r4, fp, ip}
b0008470:	18181818 	ldmneda	r8, {r3, r4, fp, ip}
b0008474:	18181818 	ldmneda	r8, {r3, r4, fp, ip}
b0008478:	1f181818 	swine	0x00181818
	...
b0008484:	18181818 	ldmneda	r8, {r3, r4, fp, ip}
b0008488:	ff181818 	swinv	0x00181818
	...
b0008498:	ff000000 	swinv	0x00000000
b000849c:	18181818 	ldmneda	r8, {r3, r4, fp, ip}
b00084a0:	18181818 	ldmneda	r8, {r3, r4, fp, ip}
b00084a4:	18181818 	ldmneda	r8, {r3, r4, fp, ip}
b00084a8:	1f181818 	swine	0x00181818
b00084ac:	18181818 	ldmneda	r8, {r3, r4, fp, ip}
b00084b0:	18181818 	ldmneda	r8, {r3, r4, fp, ip}
b00084b4:	00000000 	andeq	r0, r0, r0
b00084b8:	ff000000 	swinv	0x00000000
	...
b00084c4:	18181818 	ldmneda	r8, {r3, r4, fp, ip}
b00084c8:	ff181818 	swinv	0x00181818
b00084cc:	18181818 	ldmneda	r8, {r3, r4, fp, ip}
b00084d0:	18181818 	ldmneda	r8, {r3, r4, fp, ip}
b00084d4:	18181818 	ldmneda	r8, {r3, r4, fp, ip}
b00084d8:	1f181f18 	swine	0x00181f18
b00084dc:	18181818 	ldmneda	r8, {r3, r4, fp, ip}
b00084e0:	18181818 	ldmneda	r8, {r3, r4, fp, ip}
b00084e4:	36363636 	undefined
b00084e8:	37363636 	undefined
b00084ec:	36363636 	undefined
b00084f0:	36363636 	undefined
b00084f4:	36363636 	undefined
b00084f8:	3f303736 	swicc	0x00303736
	...
b0008508:	37303f00 	ldrcc	r3, [r0, -r0, lsl #30]!
b000850c:	36363636 	undefined
b0008510:	36363636 	undefined
b0008514:	36363636 	undefined
b0008518:	ff00f736 	swinv	0x0000f736
	...
b0008528:	f700ff00 	strnv	pc, [r0, -r0, lsl #30]
b000852c:	36363636 	undefined
b0008530:	36363636 	undefined
b0008534:	36363636 	undefined
b0008538:	37303736 	undefined
b000853c:	36363636 	undefined
b0008540:	36363636 	undefined
b0008544:	00000000 	andeq	r0, r0, r0
b0008548:	ff00ff00 	swinv	0x0000ff00
	...
b0008554:	36363636 	undefined
b0008558:	f700f736 	smuadxnv	r0, r6, r7
b000855c:	36363636 	undefined
b0008560:	36363636 	undefined
b0008564:	18181818 	ldmneda	r8, {r3, r4, fp, ip}
b0008568:	ff00ff18 	swinv	0x0000ff18
	...
b0008574:	36363636 	undefined
b0008578:	ff363636 	swinv	0x00363636
	...
b0008588:	ff00ff00 	swinv	0x0000ff00
b000858c:	18181818 	ldmneda	r8, {r3, r4, fp, ip}
b0008590:	18181818 	ldmneda	r8, {r3, r4, fp, ip}
b0008594:	00000000 	andeq	r0, r0, r0
b0008598:	ff000000 	swinv	0x00000000
b000859c:	36363636 	undefined
b00085a0:	36363636 	undefined
b00085a4:	36363636 	undefined
b00085a8:	3f363636 	swicc	0x00363636
	...
b00085b4:	18181818 	ldmneda	r8, {r3, r4, fp, ip}
b00085b8:	1f181f18 	swine	0x00181f18
	...
b00085c8:	1f181f00 	swine	0x00181f00
b00085cc:	18181818 	ldmneda	r8, {r3, r4, fp, ip}
b00085d0:	18181818 	ldmneda	r8, {r3, r4, fp, ip}
b00085d4:	00000000 	andeq	r0, r0, r0
b00085d8:	3f000000 	swicc	0x00000000
b00085dc:	36363636 	undefined
b00085e0:	36363636 	undefined
b00085e4:	36363636 	undefined
b00085e8:	ff363636 	swinv	0x00363636
b00085ec:	36363636 	undefined
b00085f0:	36363636 	undefined
b00085f4:	18181818 	ldmneda	r8, {r3, r4, fp, ip}
b00085f8:	ff18ff18 	swinv	0x0018ff18
b00085fc:	18181818 	ldmneda	r8, {r3, r4, fp, ip}
b0008600:	18181818 	ldmneda	r8, {r3, r4, fp, ip}
b0008604:	18181818 	ldmneda	r8, {r3, r4, fp, ip}
b0008608:	f8181818 	ldmnvda	r8, {r3, r4, fp, ip}
	...
b0008618:	1f000000 	swine	0x00000000
b000861c:	18181818 	ldmneda	r8, {r3, r4, fp, ip}
b0008620:	18181818 	ldmneda	r8, {r3, r4, fp, ip}
b0008624:	ffffffff 	swinv	0x00ffffff
b0008628:	ffffffff 	swinv	0x00ffffff
b000862c:	ffffffff 	swinv	0x00ffffff
b0008630:	ffffffff 	swinv	0x00ffffff
b0008634:	00000000 	andeq	r0, r0, r0
b0008638:	ff000000 	swinv	0x00000000
b000863c:	ffffffff 	swinv	0x00ffffff
b0008640:	ffffffff 	swinv	0x00ffffff
b0008644:	f0f0f0f0 	ldrnvsh	pc, [r0]
b0008648:	f0f0f0f0 	ldrnvsh	pc, [r0]
b000864c:	f0f0f0f0 	ldrnvsh	pc, [r0]
b0008650:	f0f0f0f0 	ldrnvsh	pc, [r0]
b0008654:	0f0f0f0f 	swieq	0x000f0f0f
b0008658:	0f0f0f0f 	swieq	0x000f0f0f
b000865c:	0f0f0f0f 	swieq	0x000f0f0f
b0008660:	0f0f0f0f 	swieq	0x000f0f0f
b0008664:	ffffffff 	swinv	0x00ffffff
b0008668:	00ffffff 	ldreqsh	pc, [pc, #255]	; b000876f <fontdata_8x16+0xefb>
	...
b0008678:	d8dc7600 	ldmleia	ip, {r9, sl, ip, sp, lr}^
b000867c:	76dcd8d8 	undefined
b0008680:	00000000 	andeq	r0, r0, r0
b0008684:	cc780000 	ldcgtl	0, cr0, [r8]
b0008688:	ccd8cccc 	ldcgtl	12, cr12, [r8], {204}
b000868c:	ccc6c6c6 	stcgtl	6, cr12, [r6], {198}
b0008690:	00000000 	andeq	r0, r0, r0
b0008694:	c6fe0000 	ldrgtbt	r0, [lr], r0
b0008698:	c0c0c0c6 	sbcgt	ip, r0, r6, asr #1
b000869c:	c0c0c0c0 	sbcgt	ip, r0, r0, asr #1
	...
b00086a8:	6c6cfe00 	stcvsl	14, cr15, [ip]
b00086ac:	6c6c6c6c 	stcvsl	12, cr6, [ip], #-432
b00086b0:	00000000 	andeq	r0, r0, r0
b00086b4:	c6fe0000 	ldrgtbt	r0, [lr], r0
b00086b8:	18183060 	ldmneda	r8, {r5, r6, ip, sp}
b00086bc:	fec66030 	mcr2	0, 6, r6, cr6, cr0, {1}
	...
b00086c8:	d8d87e00 	ldmleia	r8, {r9, sl, fp, ip, sp, lr}^
b00086cc:	70d8d8d8 	ldrvcsb	sp, [r8], #136
	...
b00086d8:	66666600 	strvsbt	r6, [r6], -r0, lsl #12
b00086dc:	7c666666 	stcvcl	6, cr6, [r6], #-408
b00086e0:	00c06060 	sbceq	r6, r0, r0, rrx
b00086e4:	00000000 	andeq	r0, r0, r0
b00086e8:	1818dc76 	ldmneda	r8, {r1, r2, r4, r5, r6, sl, fp, ip, lr, pc}
b00086ec:	18181818 	ldmneda	r8, {r3, r4, fp, ip}
b00086f0:	00000000 	andeq	r0, r0, r0
b00086f4:	187e0000 	ldmneda	lr!, {}^
b00086f8:	6666663c 	undefined
b00086fc:	7e183c66 	cdpvc	12, 1, cr3, cr8, cr6, {3}
b0008700:	00000000 	andeq	r0, r0, r0
b0008704:	6c380000 	ldcvs	0, cr0, [r8]
b0008708:	c6fec6c6 	ldrgtbt	ip, [lr], r6, asr #13
b000870c:	386cc6c6 	stmccda	ip!, {r1, r2, r6, r7, r9, sl, lr, pc}^
b0008710:	00000000 	andeq	r0, r0, r0
b0008714:	6c380000 	ldcvs	0, cr0, [r8]
b0008718:	6cc6c6c6 	stcvsl	6, cr12, [r6], {198}
b000871c:	ee6c6c6c 	cdp	12, 6, cr6, cr12, cr12, {3}
b0008720:	00000000 	andeq	r0, r0, r0
b0008724:	301e0000 	andccs	r0, lr, r0
b0008728:	663e0c18 	undefined
b000872c:	3c666666 	stcccl	6, cr6, [r6], #-408
	...
b0008738:	dbdb7e00 	blle	af6e7f40 <__code_start-0x9180c0>
b000873c:	00007edb 	ldreqd	r7, [r0], -fp
b0008740:	00000000 	andeq	r0, r0, r0
b0008744:	03000000 	tsteq	r0, #0	; 0x0
b0008748:	dbdb7e06 	blle	af6e7f68 <__code_start-0x918098>
b000874c:	c0607ef3 	strgtd	r7, [r0], #-227
b0008750:	00000000 	andeq	r0, r0, r0
b0008754:	301c0000 	andccs	r0, ip, r0
b0008758:	607c6060 	rsbvss	r6, ip, r0, rrx
b000875c:	1c306060 	ldcne	0, cr6, [r0], #-384
b0008760:	00000000 	andeq	r0, r0, r0
b0008764:	7c000000 	stcvc	0, cr0, [r0], {0}
b0008768:	c6c6c6c6 	strgtb	ip, [r6], r6, asr #13
b000876c:	c6c6c6c6 	strgtb	ip, [r6], r6, asr #13
	...
b0008778:	fe0000fe 	mcr2	0, 0, r0, cr0, cr14, {7}
b000877c:	00fe0000 	rsceqs	r0, lr, r0
	...
b0008788:	187e1818 	ldmneda	lr!, {r3, r4, fp, ip}^
b000878c:	7e000018 	mcrvc	0, 0, r0, cr0, cr8, {0}
b0008790:	00000000 	andeq	r0, r0, r0
b0008794:	30000000 	andcc	r0, r0, r0
b0008798:	0c060c18 	stceq	12, cr0, [r6], {24}
b000879c:	7e003018 	mcrvc	0, 0, r3, cr0, cr8, {0}
b00087a0:	00000000 	andeq	r0, r0, r0
b00087a4:	0c000000 	stceq	0, cr0, [r0], {0}
b00087a8:	30603018 	rsbcc	r3, r0, r8, lsl r0
b00087ac:	7e000c18 	mcrvc	12, 0, r0, cr0, cr8, {0}
b00087b0:	00000000 	andeq	r0, r0, r0
b00087b4:	1b0e0000 	blne	b03887bc <__bss_end+0x37cb7c>
b00087b8:	1818181b 	ldmneda	r8, {r0, r1, r3, r4, fp, ip}
b00087bc:	18181818 	ldmneda	r8, {r3, r4, fp, ip}
b00087c0:	18181818 	ldmneda	r8, {r3, r4, fp, ip}
b00087c4:	18181818 	ldmneda	r8, {r3, r4, fp, ip}
b00087c8:	18181818 	ldmneda	r8, {r3, r4, fp, ip}
b00087cc:	d8d8d818 	ldmleia	r8, {r3, r4, fp, ip, lr, pc}^
b00087d0:	00000070 	andeq	r0, r0, r0, ror r0
b00087d4:	00000000 	andeq	r0, r0, r0
b00087d8:	7e001800 	cdpvc	8, 0, cr1, cr0, cr0, {0}
b00087dc:	00001800 	andeq	r1, r0, r0, lsl #16
	...
b00087e8:	00dc7600 	sbceqs	r7, ip, r0, lsl #12
b00087ec:	0000dc76 	andeq	sp, r0, r6, ror ip
b00087f0:	00000000 	andeq	r0, r0, r0
b00087f4:	6c6c3800 	stcvsl	8, cr3, [ip]
b00087f8:	00000038 	andeq	r0, r0, r8, lsr r0
	...
b0008808:	18000000 	stmneda	r0, {}
b000880c:	00000018 	andeq	r0, r0, r8, lsl r0
	...
b0008818:	18000000 	stmneda	r0, {}
	...
b0008824:	0c0c0f00 	stceq	15, cr0, [ip], {0}
b0008828:	ec0c0c0c 	stc	12, cr0, [ip], {12}
b000882c:	1c3c6c6c 	ldcne	12, cr6, [ip], #-432
b0008830:	00000000 	andeq	r0, r0, r0
b0008834:	36366c00 	ldrcct	r6, [r6], -r0, lsl #24
b0008838:	00363636 	eoreqs	r3, r6, r6, lsr r6
	...
b0008844:	0c663c00 	stceql	12, cr3, [r6]
b0008848:	007e3218 	rsbeqs	r3, lr, r8, lsl r2
	...
b0008858:	7e7e7e7e 	mrcvc	14, 3, r7, cr14, cr14, {3}
b000885c:	007e7e7e 	rsbeqs	r7, lr, lr, ror lr
	...
b0008874:	3fb00000 	swicc	0x00b00000
b0008878:	00000000 	andeq	r0, r0, r0
b000887c:	3fc00000 	swicc	0x00c00000
b0008880:	00000000 	andeq	r0, r0, r0
b0008884:	3fd00000 	swicc	0x00d00000
b0008888:	00000000 	andeq	r0, r0, r0
b000888c:	3fe00000 	swicc	0x00e00000
b0008890:	00000000 	andeq	r0, r0, r0
b0008894:	3ff00000 	swicc	0x00f00000	; IMB
b0008898:	00000000 	andeq	r0, r0, r0
b000889c:	40000000 	andmi	r0, r0, r0
b00088a0:	00000000 	andeq	r0, r0, r0
b00088a4:	40100000 	andmis	r0, r0, r0
b00088a8:	00000000 	andeq	r0, r0, r0
b00088ac:	40200000 	eormi	r0, r0, r0
b00088b0:	00000000 	andeq	r0, r0, r0
b00088b4:	40300000 	eormis	r0, r0, r0
b00088b8:	00000000 	andeq	r0, r0, r0
b00088bc:	40400000 	submi	r0, r0, r0
b00088c0:	00000000 	andeq	r0, r0, r0
b00088c4:	40500000 	submis	r0, r0, r0
b00088c8:	00000000 	andeq	r0, r0, r0

b00088cc <__FUNCTION__.0>:
b00088cc:	61647269 	cmnvs	r4, r9, ror #4
b00088d0:	63656e5f 	cmnvs	r5, #1520	; 0x5f0
b00088d4:	6165725f 	cmnvs	r5, pc, asr r2
b00088d8:	00000064 	andeq	r0, r0, r4, rrx

b00088dc <small_digits.1>:
b00088dc:	33323130 	teqcc	r2, #12	; 0xc
b00088e0:	37363534 	undefined
b00088e4:	62613938 	rsbvs	r3, r1, #917504	; 0xe0000
b00088e8:	66656463 	strvsbt	r6, [r5], -r3, ror #8
b00088ec:	6a696867 	bvs	b1a62a90 <__bss_end+0x1a56e50>
b00088f0:	6e6d6c6b 	cdpvs	12, 6, cr6, cr13, cr11, {3}
b00088f4:	7271706f 	rsbvcs	r7, r1, #111	; 0x6f
b00088f8:	76757473 	undefined
b00088fc:	7a797877 	bvc	b1e66ae0 <__bss_end+0x1e5aea0>
b0008900:	00000000 	andeq	r0, r0, r0

b0008904 <large_digits.2>:
b0008904:	33323130 	teqcc	r2, #12	; 0xc
b0008908:	37363534 	undefined
b000890c:	42413938 	submi	r3, r1, #917504	; 0xe0000
b0008910:	46454443 	strmib	r4, [r5], -r3, asr #8
b0008914:	4a494847 	bmi	b125aa38 <__bss_end+0x124edf8>
b0008918:	4e4d4c4b 	cdpmi	12, 4, cr4, cr13, cr11, {2}
b000891c:	5251504f 	subpls	r5, r1, #79	; 0x4f
b0008920:	56555453 	undefined
b0008924:	5a595857 	bpl	b165ea88 <__bss_end+0x1652e48>
b0008928:	00000000 	andeq	r0, r0, r0
Disassembly of section .rodata.str1.4:

b000892c <.rodata.str1.4>:
b000892c:	65637845 	strvsb	r7, [r3, #-2117]!
b0008930:	6f697470 	swivs	0x00697470
b0008934:	6320216e 	teqvs	r0, #-2147483621	; 0x8000001b
b0008938:	20727370 	rsbcss	r7, r2, r0, ror r3
b000893c:	0000203d 	andeq	r2, r0, sp, lsr r0
b0008940:	00007830 	andeq	r7, r0, r0, lsr r8
b0008944:	5f495753 	swipl	0x00495753
b0008948:	3d6c6176 	stfcce	f6, [ip, #-472]!
b000894c:	00000000 	andeq	r0, r0, r0
b0008950:	656d6974 	strvsb	r6, [sp, #-2420]!
b0008954:	0000003a 	andeq	r0, r0, sl, lsr r0
b0008958:	0d0a6425 	cfstrseq	mvf6, [sl, #-148]
b000895c:	00000000 	andeq	r0, r0, r0
b0008960:	0064656c 	rsbeq	r6, r4, ip, ror #10
b0008964:	5f64636c 	swipl	0x0064636c
b0008968:	00332e34 	eoreqs	r2, r3, r4, lsr lr
b000896c:	36633373 	undefined
b0008970:	00303134 	eoreqs	r3, r0, r4, lsr r1
b0008974:	625f6266 	subvss	r6, pc, #1610612742	; 0x60000006
b0008978:	3a657361 	bcc	b1965704 <__bss_end+0x1959ac4>
b000897c:	2c207825 	stccs	8, cr7, [r0], #-148
b0008980:	73657278 	cmnvc	r5, #-2147483641	; 0x80000007
b0008984:	2064253a 	rsbcs	r2, r4, sl, lsr r5
b0008988:	6572792c 	ldrvsb	r7, [r2, #-2348]!
b000898c:	64253a73 	strvst	r3, [r5], #-2675
b0008990:	7070622c 	rsbvcs	r6, r0, ip, lsr #4
b0008994:	0a64253a 	beq	b1911e84 <__bss_end+0x1906244>
b0008998:	0000000d 	andeq	r0, r0, sp
b000899c:	73696854 	cmnvc	r9, #5505024	; 0x540000
b00089a0:	20736920 	rsbcss	r6, r3, r0, lsr #18
b00089a4:	6420796d 	strvst	r7, [r0], #-2413
b00089a8:	67697365 	strvsb	r7, [r9, -r5, ror #6]!
b00089ac:	2064656e 	rsbcs	r6, r4, lr, ror #10
b00089b0:	4d0a2021 	stcmi	0, cr2, [sl, #-132]
b00089b4:	616e2079 	cmnvs	lr, r9, ror r0
b00089b8:	6920656d 	stmvsdb	r0!, {r0, r2, r3, r5, r6, r8, sl, sp, lr}
b00089bc:	67732073 	undefined
b00089c0:	00002166 	andeq	r2, r0, r6, ror #2
b00089c4:	5046494d 	subpl	r4, r6, sp, asr #18
b00089c8:	3a4e4f43 	bcc	b139c6dc <__bss_end+0x1390a9c>
b00089cc:	0a783825 	beq	b1e16a68 <__bss_end+0x1e0ae28>
b00089d0:	0000000d 	andeq	r0, r0, sp
b00089d4:	4f435053 	swimi	0x00435053
b00089d8:	45525f4e 	ldrmib	r5, [r2, #-3918]
b00089dc:	38253a47 	stmccda	r5!, {r0, r1, r2, r6, r9, fp, ip, sp}
b00089e0:	000d0a78 	andeq	r0, sp, r8, ror sl
b00089e4:	43444956 	cmpmi	r4, #1409024	; 0x158000
b00089e8:	5f304e4f 	swipl	0x00304e4f
b00089ec:	3a474552 	bcc	b11d9f3c <__bss_end+0x11ce2fc>
b00089f0:	0a783825 	beq	b1e16a8c <__bss_end+0x1e0ae4c>
b00089f4:	0000000d 	andeq	r0, r0, sp
b00089f8:	43444956 	cmpmi	r4, #1409024	; 0x158000
b00089fc:	5f314e4f 	swipl	0x00314e4f
b0008a00:	3a474552 	bcc	b11d9f50 <__bss_end+0x11ce310>
b0008a04:	0a783825 	beq	b1e16aa0 <__bss_end+0x1e0ae60>
b0008a08:	0000000d 	andeq	r0, r0, sp
b0008a0c:	54444956 	strplb	r4, [r4], #-2390
b0008a10:	304e4f43 	subcc	r4, lr, r3, asr #30
b0008a14:	4745525f 	smlsldmi	r5, r5, pc, r2
b0008a18:	7838253a 	ldmvcda	r8!, {r1, r3, r4, r5, r8, sl, sp}
b0008a1c:	00000d0a 	andeq	r0, r0, sl, lsl #26
b0008a20:	54444956 	strplb	r4, [r4], #-2390
b0008a24:	314e4f43 	cmpcc	lr, r3, asr #30
b0008a28:	4745525f 	smlsldmi	r5, r5, pc, r2
b0008a2c:	7838253a 	ldmvcda	r8!, {r1, r3, r4, r5, r8, sl, sp}
b0008a30:	00000d0a 	andeq	r0, r0, sl, lsl #26
b0008a34:	54444956 	strplb	r4, [r4], #-2390
b0008a38:	324e4f43 	subcc	r4, lr, #268	; 0x10c
b0008a3c:	4745525f 	smlsldmi	r5, r5, pc, r2
b0008a40:	7838253a 	ldmvcda	r8!, {r1, r3, r4, r5, r8, sl, sp}
b0008a44:	00000d0a 	andeq	r0, r0, sl, lsl #26
b0008a48:	434e4957 	cmpmi	lr, #1425408	; 0x15c000
b0008a4c:	5f304e4f 	swipl	0x00304e4f
b0008a50:	3a474552 	bcc	b11d9fa0 <__bss_end+0x11ce360>
b0008a54:	0a783825 	beq	b1e16af0 <__bss_end+0x1e0aeb0>
b0008a58:	0000000d 	andeq	r0, r0, sp
b0008a5c:	4f444956 	swimi	0x00444956
b0008a60:	41304453 	teqmi	r0, r3, asr r4
b0008a64:	4745525f 	smlsldmi	r5, r5, pc, r2
b0008a68:	7838253a 	ldmvcda	r8!, {r1, r3, r4, r5, r8, sl, sp}
b0008a6c:	00000d0a 	andeq	r0, r0, sl, lsl #26
b0008a70:	4f444956 	swimi	0x00444956
b0008a74:	42304453 	eormis	r4, r0, #1392508928	; 0x53000000
b0008a78:	4745525f 	smlsldmi	r5, r5, pc, r2
b0008a7c:	7838253a 	ldmvcda	r8!, {r1, r3, r4, r5, r8, sl, sp}
b0008a80:	00000d0a 	andeq	r0, r0, sl, lsl #26
b0008a84:	4f444956 	swimi	0x00444956
b0008a88:	43304453 	teqmi	r0, #1392508928	; 0x53000000
b0008a8c:	4745525f 	smlsldmi	r5, r5, pc, r2
b0008a90:	7838253a 	ldmvcda	r8!, {r1, r3, r4, r5, r8, sl, sp}
b0008a94:	00000d0a 	andeq	r0, r0, sl, lsl #26
b0008a98:	57444956 	smlsldpl	r4, r4, r6, r9
b0008a9c:	44413030 	strmib	r3, [r1], #-48
b0008aa0:	30423044 	subcc	r3, r2, r4, asr #32
b0008aa4:	4745525f 	smlsldmi	r5, r5, pc, r2
b0008aa8:	7838253a 	ldmvcda	r8!, {r1, r3, r4, r5, r8, sl, sp}
b0008aac:	00000d0a 	andeq	r0, r0, sl, lsl #26
b0008ab0:	57444956 	smlsldpl	r4, r4, r6, r9
b0008ab4:	44413030 	strmib	r3, [r1], #-48
b0008ab8:	30423144 	subcc	r3, r2, r4, asr #2
b0008abc:	4745525f 	smlsldmi	r5, r5, pc, r2
b0008ac0:	7838253a 	ldmvcda	r8!, {r1, r3, r4, r5, r8, sl, sp}
b0008ac4:	00000d0a 	andeq	r0, r0, sl, lsl #26
b0008ac8:	3a636461 	bcc	b18e1c54 <__bss_end+0x18d6014>
b0008acc:	252e6425 	strcs	r6, [lr, #-1061]!
b0008ad0:	76643330 	undefined
b0008ad4:	0000000d 	andeq	r0, r0, sp
b0008ad8:	206e6570 	rsbcs	r6, lr, r0, ror r5
b0008adc:	0d0a7075 	stceq	0, cr7, [sl, #-468]
b0008ae0:	00000000 	andeq	r0, r0, r0
b0008ae4:	206e6570 	rsbcs	r6, lr, r0, ror r5
b0008ae8:	6e776f64 	cdpvs	15, 7, cr6, cr7, cr4, {3}
b0008aec:	00000d0a 	andeq	r0, r0, sl, lsl #26
b0008af0:	63756f74 	cmnvs	r5, #464	; 0x1d0
b0008af4:	72637368 	rsbvc	r7, r3, #-1610612735	; 0xa0000001
b0008af8:	006e6565 	rsbeq	r6, lr, r5, ror #10
b0008afc:	63756f54 	cmnvs	r5, #336	; 0x150
b0008b00:	72632068 	rsbvc	r2, r3, #104	; 0x68
b0008b04:	2073736f 	rsbcss	r7, r3, pc, ror #6
b0008b08:	63206f74 	teqvs	r0, #464	; 0x1d0
b0008b0c:	62696c61 	rsbvs	r6, r9, #24832	; 0x6100
b0008b10:	65746172 	ldrvsb	r6, [r4, #-370]!
b0008b14:	756f7420 	strvcb	r7, [pc, #-1056]!	; b00086fc <fontdata_8x16+0xe88>
b0008b18:	63736863 	cmnvs	r3, #6488064	; 0x630000
b0008b1c:	6e656572 	mcrvs	5, 3, r6, cr5, cr2, {3}
b0008b20:	00000000 	andeq	r0, r0, r0
b0008b24:	20214b4f 	eorcs	r4, r1, pc, asr #22
b0008b28:	64206f54 	strvst	r6, [r0], #-3924
b0008b2c:	21776172 	cmncs	r7, r2, ror r1
b0008b30:	00000000 	andeq	r0, r0, r0
b0008b34:	3d207820 	stccc	8, cr7, [r0, #-128]!
b0008b38:	2c642520 	cfstr64cs	mvdx2, [r4], #-128
b0008b3c:	3d207920 	stccc	9, cr7, [r0, #-128]!
b0008b40:	0a642520 	beq	b1911fc8 <__bss_end+0x1906388>
b0008b44:	0000000d 	andeq	r0, r0, sp
b0008b48:	20746567 	rsbcss	r6, r4, r7, ror #10
b0008b4c:	20776172 	rsbcss	r6, r7, r2, ror r1
b0008b50:	61746164 	cmnvs	r4, r4, ror #2
b0008b54:	2078203a 	rsbcss	r2, r8, sl, lsr r0
b0008b58:	3025203d 	eorcc	r2, r5, sp, lsr r0
b0008b5c:	202c6438 	eorcs	r6, ip, r8, lsr r4
b0008b60:	203d2079 	eorcss	r2, sp, r9, ror r0
b0008b64:	64383025 	ldrvst	r3, [r8], #-37
b0008b68:	6e63202c 	cdpvs	0, 6, cr2, cr3, cr12, {1}
b0008b6c:	203d2074 	eorcss	r2, sp, r4, ror r0
b0008b70:	702c6425 	eorvc	r6, ip, r5, lsr #8
b0008b74:	73736572 	cmnvc	r3, #478150656	; 0x1c800000
b0008b78:	3830253a 	ldmccda	r0!, {r1, r3, r4, r5, r8, sl, sp}
b0008b7c:	000d0a64 	andeq	r0, sp, r4, ror #20
b0008b80:	75746572 	ldrvcb	r6, [r4, #-1394]!
b0008b84:	72206e72 	eorvc	r6, r0, #1824	; 0x720
b0008b88:	64207761 	strvst	r7, [r0], #-1889
b0008b8c:	3a617461 	bcc	b1865d18 <__bss_end+0x185a0d8>
b0008b90:	3d207820 	stccc	8, cr7, [r0, #-128]!
b0008b94:	38302520 	ldmccda	r0!, {r5, r8, sl, sp}
b0008b98:	79202c64 	stmvcdb	r0!, {r2, r5, r6, sl, fp, sp}
b0008b9c:	25203d20 	strcs	r3, [r0, #-3360]!
b0008ba0:	0a643830 	beq	b1916c68 <__bss_end+0x190b028>
b0008ba4:	0000000d 	andeq	r0, r0, sp
b0008ba8:	636c2041 	cmnvs	ip, #65	; 0x41
b0008bac:	20785f64 	rsbcss	r5, r8, r4, ror #30
b0008bb0:	3025203d 	eorcc	r2, r5, sp, lsr r0
b0008bb4:	202c6438 	eorcs	r6, ip, r8, lsr r4
b0008bb8:	5f64636c 	swipl	0x0064636c
b0008bbc:	203d2079 	eorcss	r2, sp, r9, ror r0
b0008bc0:	64383025 	ldrvst	r3, [r8], #-37
b0008bc4:	00000d0a 	andeq	r0, r0, sl, lsl #26
b0008bc8:	636c2042 	cmnvs	ip, #66	; 0x42
b0008bcc:	20785f64 	rsbcss	r5, r8, r4, ror #30
b0008bd0:	3025203d 	eorcc	r2, r5, sp, lsr r0
b0008bd4:	202c6438 	eorcs	r6, ip, r8, lsr r4
b0008bd8:	5f64636c 	swipl	0x0064636c
b0008bdc:	203d2079 	eorcss	r2, sp, r9, ror r0
b0008be0:	64383025 	ldrvst	r3, [r8], #-37
b0008be4:	00000d0a 	andeq	r0, r0, sl, lsl #26
b0008be8:	636c2043 	cmnvs	ip, #67	; 0x43
b0008bec:	20785f64 	rsbcss	r5, r8, r4, ror #30
b0008bf0:	3025203d 	eorcc	r2, r5, sp, lsr r0
b0008bf4:	202c6438 	eorcs	r6, ip, r8, lsr r4
b0008bf8:	5f64636c 	swipl	0x0064636c
b0008bfc:	203d2079 	eorcss	r2, sp, r9, ror r0
b0008c00:	64383025 	ldrvst	r3, [r8], #-37
b0008c04:	00000d0a 	andeq	r0, r0, sl, lsl #26
b0008c08:	636c2044 	cmnvs	ip, #68	; 0x44
b0008c0c:	20785f64 	rsbcss	r5, r8, r4, ror #30
b0008c10:	3025203d 	eorcc	r2, r5, sp, lsr r0
b0008c14:	202c6438 	eorcs	r6, ip, r8, lsr r4
b0008c18:	5f64636c 	swipl	0x0064636c
b0008c1c:	203d2079 	eorcss	r2, sp, r9, ror r0
b0008c20:	64383025 	ldrvst	r3, [r8], #-37
b0008c24:	00000d0a 	andeq	r0, r0, sl, lsl #26
b0008c28:	636c2045 	cmnvs	ip, #69	; 0x45
b0008c2c:	20785f64 	rsbcss	r5, r8, r4, ror #30
b0008c30:	3025203d 	eorcc	r2, r5, sp, lsr r0
b0008c34:	202c6438 	eorcs	r6, ip, r8, lsr r4
b0008c38:	5f64636c 	swipl	0x0064636c
b0008c3c:	203d2079 	eorcss	r2, sp, r9, ror r0
b0008c40:	64383025 	ldrvst	r3, [r8], #-37
b0008c44:	00000d0a 	andeq	r0, r0, sl, lsl #26
b0008c48:	72646461 	rsbvc	r6, r4, #1627389952	; 0x61000000
b0008c4c:	20737365 	rsbcss	r7, r3, r5, ror #6
b0008c50:	3031203e 	eorccs	r2, r1, lr, lsr r0
b0008c54:	702c3432 	eorvc	r3, ip, r2, lsr r4
b0008c58:	7361656c 	cmnvc	r1, #452984832	; 0x1b000000
b0008c5c:	72742065 	rsbvcs	r2, r4, #101	; 0x65
b0008c60:	67612079 	undefined
b0008c64:	0a6e6961 	beq	b1ba31f0 <__bss_end+0x1b975b0>
b0008c68:	0000000d 	andeq	r0, r0, sp
b0008c6c:	34327461 	ldrcct	r7, [r2], #-1121
b0008c70:	5f787863 	swipl	0x00787863
b0008c74:	64616572 	strvsbt	r6, [r1], #-1394
b0008c78:	7465725f 	strvcbt	r7, [r5], #-607
b0008c7c:	3a6e7275 	bcc	b1ba5658 <__bss_end+0x1b99a18>
b0008c80:	0a206425 	beq	b0821d1c <__bss_end+0x8160dc>
b0008c84:	0000000d 	andeq	r0, r0, sp
b0008c88:	34327461 	ldrcct	r7, [r2], #-1121
b0008c8c:	5f787863 	swipl	0x00787863
b0008c90:	74697277 	strvcbt	r7, [r9], #-631
b0008c94:	65725f65 	ldrvsb	r5, [r2, #-3941]!
b0008c98:	6e727574 	mrcvs	5, 3, r7, cr2, cr4, {3}
b0008c9c:	2064253a 	rsbcs	r2, r4, sl, lsr r5
b0008ca0:	00000d0a 	andeq	r0, r0, sl, lsl #26
b0008ca4:	205d775b 	subcss	r7, sp, fp, asr r7
b0008ca8:	74697257 	strvcbt	r7, [r9], #-599
b0008cac:	54412065 	strplb	r2, [r1], #-101
b0008cb0:	58433432 	stmplda	r3, {r1, r4, r5, sl, ip, sp}^
b0008cb4:	000d0a58 	andeq	r0, sp, r8, asr sl
b0008cb8:	205d725b 	subcss	r7, sp, fp, asr r2
b0008cbc:	64616552 	strvsbt	r6, [r1], #-1362
b0008cc0:	54412020 	strplb	r2, [r1], #-32
b0008cc4:	58433432 	stmplda	r3, {r1, r4, r5, sl, ip, sp}^
b0008cc8:	000d0a58 	andeq	r0, sp, r8, asr sl
b0008ccc:	756e614d 	strvcb	r6, [lr, #-333]!
b0008cd0:	74636166 	strvcbt	r6, [r3], #-358
b0008cd4:	72657275 	rsbvc	r7, r5, #1342177287	; 0x50000007
b0008cd8:	3a444920 	bcc	b111b160 <__bss_end+0x110f520>
b0008cdc:	2c783225 	lfmcs	f3, 2, [r8], #-148
b0008ce0:	69766544 	ldmvsdb	r6!, {r2, r6, r8, sl, sp, lr}^
b0008ce4:	49206563 	stmmidb	r0!, {r0, r1, r5, r6, r8, sl, sp, lr}
b0008ce8:	32253a44 	eorcc	r3, r5, #278528	; 0x44000
b0008cec:	000d0a78 	andeq	r0, sp, r8, ror sl
b0008cf0:	23232323 	teqcs	r3, #-1946157056	; 0x8c000000
b0008cf4:	69707323 	ldmvsdb	r0!, {r0, r1, r5, r8, r9, ip, sp, lr}^
b0008cf8:	616c6620 	cmnvs	ip, r0, lsr #12
b0008cfc:	74206873 	strvct	r6, [r0], #-2163
b0008d00:	23747365 	cmncs	r4, #-1811939327	; 0x94000001
b0008d04:	23232323 	teqcs	r3, #-1946157056	; 0x8c000000
b0008d08:	00000d0a 	andeq	r0, r0, sl, lsl #26
b0008d0c:	205d695b 	subcss	r6, sp, fp, asr r9
b0008d10:	64616552 	strvsbt	r6, [r1], #-1362
b0008d14:	70732020 	rsbvcs	r2, r3, r0, lsr #32
b0008d18:	6c662069 	stcvsl	0, cr2, [r6], #-420
b0008d1c:	20687361 	rsbcs	r7, r8, r1, ror #6
b0008d20:	0d0a6469 	cfstrseq	mvf6, [sl, #-420]
b0008d24:	00000000 	andeq	r0, r0, r0
b0008d28:	205d655b 	subcss	r6, sp, fp, asr r5
b0008d2c:	73617245 	cmnvc	r1, #1342177284	; 0x50000004
b0008d30:	70732065 	rsbvcs	r2, r3, r5, rrx
b0008d34:	6c662069 	stcvsl	0, cr2, [r6], #-420
b0008d38:	0a687361 	beq	b1a25ac4 <__bss_end+0x1a19e84>
b0008d3c:	0000000d 	andeq	r0, r0, sp
b0008d40:	205d775b 	subcss	r7, sp, fp, asr r7
b0008d44:	74697257 	strvcbt	r7, [r9], #-599
b0008d48:	70732065 	rsbvcs	r2, r3, r5, rrx
b0008d4c:	6c662069 	stcvsl	0, cr2, [r6], #-420
b0008d50:	0a687361 	beq	b1a25adc <__bss_end+0x1a19e9c>
b0008d54:	0000000d 	andeq	r0, r0, sp
b0008d58:	205d725b 	subcss	r7, sp, fp, asr r2
b0008d5c:	64616552 	strvsbt	r6, [r1], #-1362
b0008d60:	70732020 	rsbvcs	r2, r3, r0, lsr #32
b0008d64:	6c662069 	stcvsl	0, cr2, [r6], #-420
b0008d68:	0a687361 	beq	b1a25af4 <__bss_end+0x1a19eb4>
b0008d6c:	0000000d 	andeq	r0, r0, sp
b0008d70:	69617732 	stmvsdb	r1!, {r1, r4, r5, r8, r9, sl, ip, sp, lr}^
b0008d74:	6f662074 	swivs	0x00662074
b0008d78:	70752072 	rsbvcs	r2, r5, r2, ror r0
b0008d7c:	72726520 	rsbvcs	r6, r2, #134217728	; 0x8000000
b0008d80:	000d0a21 	andeq	r0, sp, r1, lsr #20
b0008d84:	69617732 	stmvsdb	r1!, {r1, r4, r5, r8, r9, sl, ip, sp, lr}^
b0008d88:	6f662074 	swivs	0x00662074
b0008d8c:	6f642072 	swivs	0x00642072
b0008d90:	65206e77 	strvs	r6, [r0, #-3703]!
b0008d94:	0a217272 	beq	b0865764 <__bss_end+0x859b24>
b0008d98:	0000000d 	andeq	r0, r0, sp
b0008d9c:	31746864 	cmncc	r4, r4, ror #16
b0008da0:	6f6e2031 	swivs	0x006e2031
b0008da4:	63612074 	cmnvs	r1, #116	; 0x74
b0008da8:	65202c6b 	strvs	r2, [r0, #-3179]!
b0008dac:	0a217272 	beq	b086577c <__bss_end+0x859b3c>
b0008db0:	0000000d 	andeq	r0, r0, sp
b0008db4:	69617731 	stmvsdb	r1!, {r0, r4, r5, r8, r9, sl, ip, sp, lr}^
b0008db8:	6f662074 	swivs	0x00662074
b0008dbc:	6f642072 	swivs	0x00642072
b0008dc0:	65206e77 	strvs	r6, [r0, #-3703]!
b0008dc4:	0a217272 	beq	b0865794 <__bss_end+0x859b54>
b0008dc8:	0000000d 	andeq	r0, r0, sp
b0008dcc:	69617731 	stmvsdb	r1!, {r0, r4, r5, r8, r9, sl, ip, sp, lr}^
b0008dd0:	6f662074 	swivs	0x00662074
b0008dd4:	70752072 	rsbvcs	r2, r5, r2, ror r0
b0008dd8:	72726520 	rsbvcs	r6, r2, #134217728	; 0x8000000
b0008ddc:	000d0a21 	andeq	r0, sp, r1, lsr #20
b0008de0:	31746864 	cmncc	r4, r4, ror #16
b0008de4:	68632031 	stmvsda	r3!, {r0, r4, r5, sp}^
b0008de8:	736b6365 	cmnvc	fp, #-1811939327	; 0x94000001
b0008dec:	65206d75 	strvs	r6, [r0, #-3445]!
b0008df0:	0a217272 	beq	b08657c0 <__bss_end+0x859b80>
b0008df4:	0000000d 	andeq	r0, r0, sp
b0008df8:	68640d0a 	stmvsda	r4!, {r1, r3, r8, sl, fp}^
b0008dfc:	20313174 	eorcss	r3, r1, r4, ror r1
b0008e00:	64616572 	strvsbt	r6, [r1], #-1394
b0008e04:	72726520 	rsbvcs	r6, r2, #134217728	; 0x8000000
b0008e08:	000d0a21 	andeq	r0, sp, r1, lsr #20
b0008e0c:	48440d0a 	stmmida	r4, {r1, r3, r8, sl, fp}^
b0008e10:	20313154 	eorcss	r3, r1, r4, asr r1
b0008e14:	6425203a 	strvst	r2, [r5], #-58
b0008e18:	6d756820 	ldcvsl	8, cr6, [r5, #-128]!
b0008e1c:	74696469 	strvcbt	r6, [r9], #-1129
b0008e20:	25202c79 	strcs	r2, [r0, #-3193]!
b0008e24:	65742064 	ldrvsb	r2, [r4, #-100]!
b0008e28:	7265706d 	rsbvc	r7, r5, #109	; 0x6d
b0008e2c:	72757461 	rsbvcs	r7, r5, #1627389952	; 0x61000000
b0008e30:	000d0a65 	andeq	r0, sp, r5, ror #20
b0008e34:	74696e69 	strvcbt	r6, [r9], #-3689
b0008e38:	6961773a 	stmvsdb	r1!, {r1, r3, r4, r5, r8, r9, sl, ip, sp, lr}^
b0008e3c:	6f662074 	swivs	0x00662074
b0008e40:	6f642072 	swivs	0x00642072
b0008e44:	65206e77 	strvs	r6, [r0, #-3703]!
b0008e48:	0a217272 	beq	b0865818 <__bss_end+0x859bd8>
b0008e4c:	0000000d 	andeq	r0, r0, sp
b0008e50:	204d4f52 	subcs	r4, sp, r2, asr pc
b0008e54:	20435243 	subcs	r5, r3, r3, asr #4
b0008e58:	21727265 	cmncs	r2, r5, ror #4
b0008e5c:	00000d0a 	andeq	r0, r0, sl, lsl #26
b0008e60:	38315344 	ldmccda	r1!, {r2, r6, r8, r9, ip, lr}
b0008e64:	20303242 	eorcss	r3, r0, r2, asr #4
b0008e68:	3a4d4f52 	bcc	b135cbb8 <__bss_end+0x1350f78>
b0008e6c:	78323025 	ldmvcda	r2!, {r0, r2, r5, ip, sp}
b0008e70:	3230252c 	eorccs	r2, r0, #184549376	; 0xb000000
b0008e74:	30252078 	eorcc	r2, r5, r8, ror r0
b0008e78:	25207832 	strcs	r7, [r0, #-2098]!
b0008e7c:	20783230 	rsbcss	r3, r8, r0, lsr r2
b0008e80:	78323025 	ldmvcda	r2!, {r0, r2, r5, ip, sp}
b0008e84:	32302520 	eorccs	r2, r0, #134217728	; 0x8000000
b0008e88:	30252078 	eorcc	r2, r5, r8, ror r0
b0008e8c:	252c7832 	strcs	r7, [ip, #-2098]!
b0008e90:	0a783230 	beq	b1e15758 <__bss_end+0x1e09b18>
b0008e94:	0000000d 	andeq	r0, r0, sp
b0008e98:	61656c70 	cmnvs	r5, r0, ror ip
b0008e9c:	69206573 	stmvsdb	r0!, {r0, r1, r4, r5, r6, r8, sl, sp, lr}
b0008ea0:	7475706e 	ldrvcbt	r7, [r5], #-110
b0008ea4:	65727020 	ldrvsb	r7, [r2, #-32]!
b0008ea8:	69736963 	ldmvsdb	r3!, {r0, r1, r5, r6, r8, fp, sp, lr}^
b0008eac:	39286e6f 	stmccdb	r8!, {r0, r1, r2, r3, r5, r6, r9, sl, fp, sp, lr}
b0008eb0:	2932312d 	ldmcsdb	r2!, {r0, r2, r3, r5, r8, ip, sp}
b0008eb4:	0000003a 	andeq	r0, r0, sl, lsr r0
b0008eb8:	49525720 	ldmmidb	r2, {r5, r8, r9, sl, ip, lr}^
b0008ebc:	52204554 	eorpl	r4, r0, #352321536	; 0x15000000
b0008ec0:	65204d41 	strvs	r4, [r0, #-3393]!
b0008ec4:	0a217272 	beq	b0865894 <__bss_end+0x859c54>
b0008ec8:	0000000d 	andeq	r0, r0, sp
b0008ecc:	74696177 	strvcbt	r6, [r9], #-375
b0008ed0:	726f6620 	rsbvc	r6, pc, #33554432	; 0x2000000
b0008ed4:	69727720 	ldmvsdb	r2!, {r5, r8, r9, sl, ip, sp, lr}^
b0008ed8:	65206574 	strvs	r6, [r0, #-1396]!
b0008edc:	6f727065 	swivs	0x00727065
b0008ee0:	7265206d 	rsbvc	r2, r5, #109	; 0x6d
b0008ee4:	0d0a2172 	stfeqs	f2, [sl, #-456]
b0008ee8:	00000000 	andeq	r0, r0, r0
b0008eec:	74696177 	strvcbt	r6, [r9], #-375
b0008ef0:	726f6620 	rsbvc	r6, pc, #33554432	; 0x2000000
b0008ef4:	6e6f6320 	cdpvs	3, 6, cr6, cr15, cr0, {1}
b0008ef8:	74726576 	ldrvcbt	r6, [r2], #-1398
b0008efc:	72726520 	rsbvcs	r6, r2, #134217728	; 0x8000000
b0008f00:	000d0a21 	andeq	r0, sp, r1, lsr #20
b0008f04:	204d4152 	subcs	r4, sp, r2, asr r1
b0008f08:	20435243 	subcs	r5, r3, r3, asr #4
b0008f0c:	21727265 	cmncs	r2, r5, ror #4
b0008f10:	00000d0a 	andeq	r0, r0, sl, lsl #26
b0008f14:	38317364 	ldmccda	r1!, {r2, r5, r6, r8, r9, ip, sp, lr}
b0008f18:	20303262 	eorcss	r3, r0, r2, ror #4
b0008f1c:	706d6574 	rsbvc	r6, sp, r4, ror r5
b0008f20:	74617265 	strvcbt	r7, [r1], #-613
b0008f24:	3a657275 	bcc	b1965900 <__bss_end+0x1959cc0>
b0008f28:	2e642520 	cdpcs	5, 6, cr2, cr4, cr0, {1}
b0008f2c:	64343025 	ldrvst	r3, [r4], #-37
b0008f30:	00000d0a 	andeq	r0, r0, sl, lsl #26
b0008f34:	00776f6c 	rsbeqs	r6, r7, ip, ror #30
b0008f38:	68676968 	stmvsda	r7!, {r3, r5, r6, r8, fp, sp, lr}^
b0008f3c:	00000000 	andeq	r0, r0, r0
b0008f40:	25207325 	strcs	r7, [r0, #-805]!
b0008f44:	000d0a64 	andeq	r0, sp, r4, ror #20
b0008f48:	3a727265 	bcc	b1ca58e4 <__bss_end+0x1c99ca4>
b0008f4c:	25207325 	strcs	r7, [r0, #-805]!
b0008f50:	20737564 	rsbcss	r7, r3, r4, ror #10
b0008f54:	0000207c 	andeq	r2, r0, ip, ror r0
b0008f58:	20746567 	rsbcss	r6, r4, r7, ror #10
b0008f5c:	61746164 	cmnvs	r4, r4, ror #2
b0008f60:	7825203a 	stmvcda	r5!, {r1, r3, r4, r5, sp}
b0008f64:	20782520 	rsbcss	r2, r8, r0, lsr #10
b0008f68:	25207825 	strcs	r7, [r0, #-2085]!
b0008f6c:	000d0a78 	andeq	r0, sp, r8, ror sl
b0008f70:	61647269 	cmnvs	r4, r9, ror #4
b0008f74:	63656e5f 	cmnvs	r5, #1520	; 0x5f0
b0008f78:	6165725f 	cmnvs	r5, pc, asr r2
b0008f7c:	61203a64 	teqvs	r0, r4, ror #20
b0008f80:	65726464 	ldrvsb	r6, [r2, #-1124]!
b0008f84:	3d207373 	stccc	3, cr7, [r0, #-460]!
b0008f88:	25783020 	ldrcsb	r3, [r8, #-32]!
b0008f8c:	64202c78 	strvst	r2, [r0], #-3192
b0008f90:	20617461 	rsbcs	r7, r1, r1, ror #8
b0008f94:	7830203d 	ldmvcda	r0!, {r0, r2, r3, r4, r5, sp}
b0008f98:	0d0a7825 	stceq	8, cr7, [sl, #-148]
b0008f9c:	00000000 	andeq	r0, r0, r0
b0008fa0:	61647269 	cmnvs	r4, r9, ror #4
b0008fa4:	63656e5f 	cmnvs	r5, #1520	; 0x5f0
b0008fa8:	6165725f 	cmnvs	r5, pc, asr r2
b0008fac:	72203a64 	eorvc	r3, r0, #409600	; 0x64000
b0008fb0:	61657065 	cmnvs	r5, r5, rrx
b0008fb4:	6f632074 	swivs	0x00632074
b0008fb8:	0d0a6564 	cfstr32eq	mvfx6, [sl, #-400]
b0008fbc:	00000000 	andeq	r0, r0, r0
b0008fc0:	4c554e3c 	mrrcmi	14, 3, r4, r5, cr12
b0008fc4:	Address 0xb0008fc4 is out of bounds.

Disassembly of section .data:

b0008fc8 <lcd_4_3_params>:
b0008fc8:	b0008964 	andlt	r8, r0, r4, ror #18
	...
b0008fd8:	00000001 	andeq	r0, r0, r1
b0008fdc:	00000001 	andeq	r0, r0, r1
b0008fe0:	0000000a 	andeq	r0, r0, sl
b0008fe4:	00000002 	andeq	r0, r0, r2
b0008fe8:	00000002 	andeq	r0, r0, r2
b0008fec:	00000029 	andeq	r0, r0, r9, lsr #32
b0008ff0:	00000002 	andeq	r0, r0, r2
b0008ff4:	00000002 	andeq	r0, r0, r2
b0008ff8:	00000009 	andeq	r0, r0, r9
b0008ffc:	000001e0 	andeq	r0, r0, r0, ror #3
b0009000:	00000110 	andeq	r0, r0, r0, lsl r1
b0009004:	00000018 	andeq	r0, r0, r8, lsl r0
b0009008:	59000000 	stmpldb	r0, {}

b000900c <s3c6410_lcd_controller>:
b000900c:	b000896c 	andlt	r8, r0, ip, ror #18
b0009010:	b0002158 	andlt	r2, r0, r8, asr r1
b0009014:	b0002400 	andlt	r2, r0, r0, lsl #8
b0009018:	b000242c 	andlt	r2, r0, ip, lsr #8

b000901c <s3c6410_i2c_con>:
b000901c:	b0003584 	andlt	r3, r0, r4, lsl #11
b0009020:	b00036e4 	andlt	r3, r0, r4, ror #13
b0009024:	b000896c 	andlt	r8, r0, ip, ror #18

b0009028 <CRC8Table>:
b0009028:	e2bc5e00 	adcs	r5, ip, #0	; 0x0
b000902c:	83dd3f61 	bichis	r3, sp, #388	; 0x184
b0009030:	207e9cc2 	rsbcss	r9, lr, r2, asr #25
b0009034:	411ffda3 	tstmip	pc, r3, lsr #27
b0009038:	7f21c39d 	swivc	0x0021c39d
b000903c:	1e40a2fc 	mcrne	2, 2, sl, cr0, cr12, {7}
b0009040:	bde3015f 	stflte	f0, [r3, #380]!
b0009044:	dc82603e 	stcle	0, cr6, [r2], {62}
b0009048:	c19f7d23 	orrgts	r7, pc, r3, lsr #26
b000904c:	a0fe1c42 	rscges	r1, lr, r2, asr #24
b0009050:	035dbfe1 	cmpeq	sp, #900	; 0x384
b0009054:	623cde80 	eorvss	sp, ip, #2048	; 0x800
b0009058:	5c02e0be 	stcpl	0, cr14, [r2], {190}
b000905c:	3d6381df 	stfccp	f0, [r3, #-892]!
b0009060:	9ec0227c 	mcrls	2, 6, r2, cr0, cr12, {3}
b0009064:	ffa1431d 	swinv	0x00a1431d
b0009068:	a4fa1846 	ldrgebt	r1, [sl], #2118
b000906c:	c59b7927 	ldrgt	r7, [fp, #2343]
b0009070:	6638da84 	ldrvst	sp, [r8], -r4, lsl #21
b0009074:	0759bbe5 	ldreqb	fp, [r9, -r5, ror #23]
b0009078:	396785db 	stmccdb	r7!, {r0, r1, r3, r4, r6, r7, r8, sl, pc}^
b000907c:	5806e4ba 	stmplda	r6, {r1, r3, r4, r5, r7, sl, sp, lr, pc}
b0009080:	fba54719 	blx	ae95acee <__code_start-0x16a5312>
b0009084:	9ac42678 	bls	af112a6c <__code_start-0xeed594>
b0009088:	87d93b65 	ldrhib	r3, [r9, r5, ror #22]
b000908c:	e6b85a04 	ldrt	r5, [r8], r4, lsl #20
b0009090:	451bf9a7 	ldrmi	pc, [fp, #-2471]
b0009094:	247a98c6 	ldrcsbt	r9, [sl], #-2246
b0009098:	1a44a6f8 	bne	b1132c80 <__bss_end+0x1127040>
b000909c:	7b25c799 	blvc	b097af08 <__bss_end+0x96f2c8>
b00090a0:	d886643a 	stmleia	r6, {r1, r3, r4, r5, sl, sp, lr}
b00090a4:	b9e7055b 	stmltib	r7!, {r0, r1, r3, r4, r6, r8, sl}^
b00090a8:	6e30d28c 	cdpvs	2, 3, cr13, cr0, cr12, {4}
b00090ac:	0f51b3ed 	swieq	0x0051b3ed
b00090b0:	acf2104e 	ldcgel	0, cr1, [r2], #312
b00090b4:	cd93712f 	ldfgts	f7, [r3, #188]
b00090b8:	f3ad4f11 	movnv	r4, #68	; 0x44
b00090bc:	92cc2e70 	sbcls	r2, ip, #1792	; 0x700
b00090c0:	316f8dd3 	ldrccd	r8, [pc, #-211]	; b0008ff5 <lcd_4_3_params+0x2d>
b00090c4:	500eecb2 	strplh	lr, [lr], -r2
b00090c8:	4d13f1af 	ldfmid	f7, [r3, #-700]
b00090cc:	2c7290ce 	ldccsl	0, cr9, [r2], #-824
b00090d0:	8fd1336d 	swihi	0x00d1336d
b00090d4:	eeb0520c 	cdp	2, 11, cr5, cr0, cr12, {0}
b00090d8:	d08e6c32 	addle	r6, lr, r2, lsr ip
b00090dc:	b1ef0d53 	mvnlt	r0, r3, asr sp
b00090e0:	124caef0 	subne	sl, ip, #3840	; 0xf00
b00090e4:	732dcf91 	teqvc	sp, #580	; 0x244
b00090e8:	287694ca 	ldmcsda	r6!, {r1, r3, r6, r7, sl, ip, pc}^
b00090ec:	4917f5ab 	ldmmidb	r7, {r0, r1, r3, r5, r7, r8, sl, ip, sp, lr, pc}
b00090f0:	eab45608 	b	aed1e918 <__code_start-0x12e16e8>
b00090f4:	8bd53769 	blhi	af556ea0 <__code_start-0xaa9160>
b00090f8:	b5eb0957 	strltb	r0, [fp, #2391]!
b00090fc:	d48a6836 	strle	r6, [sl], #2102
b0009100:	7729cb95 	undefined
b0009104:	1648aaf4 	undefined
b0009108:	0b55b7e9 	bleq	b15770b4 <__bss_end+0x156b474>
b000910c:	6a34d688 	bvs	b0d3eb34 <__bss_end+0xd32ef4>
b0009110:	c997752b 	ldmgtib	r7, {r0, r1, r3, r5, r8, sl, ip, sp, lr}
b0009114:	a8f6144a 	ldmgeia	r6!, {r1, r3, r6, sl, ip}^
b0009118:	96c82a74 	undefined
b000911c:	f7a94b15 	undefined
b0009120:	540ae8b6 	strpl	lr, [sl], #-2230
b0009124:	356b89d7 	strccb	r8, [fp, #-2519]!

b0009128 <warn.0>:
b0009128:	00000001 	andeq	r0, r0, r1

b000912c <_ctype>:
b000912c:	08080808 	stmeqda	r8, {r3, fp}
b0009130:	08080808 	stmeqda	r8, {r3, fp}
b0009134:	28282808 	stmcsda	r8!, {r3, fp, sp}
b0009138:	08082828 	stmeqda	r8, {r3, r5, fp, sp}
b000913c:	08080808 	stmeqda	r8, {r3, fp}
b0009140:	08080808 	stmeqda	r8, {r3, fp}
b0009144:	08080808 	stmeqda	r8, {r3, fp}
b0009148:	08080808 	stmeqda	r8, {r3, fp}
b000914c:	101010a0 	andnes	r1, r0, r0, lsr #1
b0009150:	10101010 	andnes	r1, r0, r0, lsl r0
b0009154:	10101010 	andnes	r1, r0, r0, lsl r0
b0009158:	10101010 	andnes	r1, r0, r0, lsl r0
b000915c:	04040404 	streq	r0, [r4], #-1028
b0009160:	04040404 	streq	r0, [r4], #-1028
b0009164:	10100404 	andnes	r0, r0, r4, lsl #8
b0009168:	10101010 	andnes	r1, r0, r0, lsl r0
b000916c:	41414110 	cmpmi	r1, r0, lsl r1
b0009170:	01414141 	cmpeq	r1, r1, asr #2
b0009174:	01010101 	tsteq	r1, r1, lsl #2
b0009178:	01010101 	tsteq	r1, r1, lsl #2
b000917c:	01010101 	tsteq	r1, r1, lsl #2
b0009180:	01010101 	tsteq	r1, r1, lsl #2
b0009184:	10010101 	andne	r0, r1, r1, lsl #2
b0009188:	10101010 	andnes	r1, r0, r0, lsl r0
b000918c:	42424210 	submi	r4, r2, #1	; 0x1
b0009190:	02424242 	subeq	r4, r2, #536870916	; 0x20000004
b0009194:	02020202 	andeq	r0, r2, #536870912	; 0x20000000
b0009198:	02020202 	andeq	r0, r2, #536870912	; 0x20000000
b000919c:	02020202 	andeq	r0, r2, #536870912	; 0x20000000
b00091a0:	02020202 	andeq	r0, r2, #536870912	; 0x20000000
b00091a4:	10020202 	andne	r0, r2, r2, lsl #4
b00091a8:	08101010 	ldmeqda	r0, {r4, ip}
	...
b00091cc:	101010a0 	andnes	r1, r0, r0, lsr #1
b00091d0:	10101010 	andnes	r1, r0, r0, lsl r0
b00091d4:	10101010 	andnes	r1, r0, r0, lsl r0
b00091d8:	10101010 	andnes	r1, r0, r0, lsl r0
b00091dc:	10101010 	andnes	r1, r0, r0, lsl r0
b00091e0:	10101010 	andnes	r1, r0, r0, lsl r0
b00091e4:	10101010 	andnes	r1, r0, r0, lsl r0
b00091e8:	10101010 	andnes	r1, r0, r0, lsl r0
b00091ec:	01010101 	tsteq	r1, r1, lsl #2
b00091f0:	01010101 	tsteq	r1, r1, lsl #2
b00091f4:	01010101 	tsteq	r1, r1, lsl #2
b00091f8:	01010101 	tsteq	r1, r1, lsl #2
b00091fc:	01010101 	tsteq	r1, r1, lsl #2
b0009200:	10010101 	andne	r0, r1, r1, lsl #2
b0009204:	01010101 	tsteq	r1, r1, lsl #2
b0009208:	02010101 	andeq	r0, r1, #1073741824	; 0x40000000
b000920c:	02020202 	andeq	r0, r2, #536870912	; 0x20000000
b0009210:	02020202 	andeq	r0, r2, #536870912	; 0x20000000
b0009214:	02020202 	andeq	r0, r2, #536870912	; 0x20000000
b0009218:	02020202 	andeq	r0, r2, #536870912	; 0x20000000
b000921c:	02020202 	andeq	r0, r2, #536870912	; 0x20000000
b0009220:	10020202 	andne	r0, r2, r2, lsl #4
b0009224:	02020202 	andeq	r0, r2, #536870912	; 0x20000000
b0009228:	02020202 	andeq	r0, r2, #536870912	; 0x20000000
Disassembly of section .bss:

b000922c <g_system_10ms>:
	...

b0009234 <i.0>:
	...

b0009235 <j.1>:
	...

b0009236 <count.2>:
	...

b0009238 <fb_base>:
b0009238:	00000000 	andeq	r0, r0, r0

b000923c <xres>:
b000923c:	00000000 	andeq	r0, r0, r0

b0009240 <yres>:
b0009240:	00000000 	andeq	r0, r0, r0

b0009244 <bpp>:
b0009244:	00000000 	andeq	r0, r0, r0

b0009248 <p_array_lcd>:
	...

b0009270 <g_p_lcd_selected>:
b0009270:	00000000 	andeq	r0, r0, r0

b0009274 <p_array_lcd_controller>:
	...

b000929c <g_p_lcd_controller_selected>:
b000929c:	00000000 	andeq	r0, r0, r0

b00092a0 <has_get_xy>:
b00092a0:	00000000 	andeq	r0, r0, r0

b00092a4 <g_ts_data_valid>:
b00092a4:	00000000 	andeq	r0, r0, r0

b00092a8 <adc_cnt.0>:
b00092a8:	00000000 	andeq	r0, r0, r0

b00092ac <adc_x.1>:
b00092ac:	00000000 	andeq	r0, r0, r0

b00092b0 <adc_y.2>:
b00092b0:	00000000 	andeq	r0, r0, r0

b00092b4 <x>:
b00092b4:	00000000 	andeq	r0, r0, r0

b00092b8 <y>:
b00092b8:	00000000 	andeq	r0, r0, r0

b00092bc <g_ts_x>:
b00092bc:	00000000 	andeq	r0, r0, r0

b00092c0 <g_ts_y>:
b00092c0:	00000000 	andeq	r0, r0, r0

b00092c4 <g_ts_pressure>:
b00092c4:	00000000 	andeq	r0, r0, r0

b00092c8 <g_ts_xy_swap>:
b00092c8:	00000000 	andeq	r0, r0, r0

b00092cc <g_kx>:
	...

b00092d4 <g_ky>:
	...

b00092dc <g_ts_xc>:
b00092dc:	00000000 	andeq	r0, r0, r0

b00092e0 <g_ts_yc>:
b00092e0:	00000000 	andeq	r0, r0, r0

b00092e4 <g_lcd_xc>:
b00092e4:	00000000 	andeq	r0, r0, r0

b00092e8 <g_lcd_yc>:
b00092e8:	00000000 	andeq	r0, r0, r0

b00092ec <fb_base>:
b00092ec:	00000000 	andeq	r0, r0, r0

b00092f0 <xres>:
b00092f0:	00000000 	andeq	r0, r0, r0

b00092f4 <yres>:
b00092f4:	00000000 	andeq	r0, r0, r0

b00092f8 <bpp>:
b00092f8:	00000000 	andeq	r0, r0, r0

b00092fc <p_i2c_controllers>:
	...

b0009324 <p_i2c_con_selected>:
b0009324:	00000000 	andeq	r0, r0, r0

b0009328 <p_cur_msg>:
b0009328:	00000000 	andeq	r0, r0, r0

b000932c <g_r>:
b000932c:	00000000 	andeq	r0, r0, r0

b0009330 <g_w>:
b0009330:	00000000 	andeq	r0, r0, r0

b0009334 <g_event>:
	...

b000b334 <g_last_time>:
	...

b000b33c <g_pcOutBuf>:
	...

b000b73c <g_pcInBuf>:
	...

b000bb3c <timer_array>:
	...

b000bc3c <___strtok>:
b000bc3c:	00000000 	andeq	r0, r0, r0
Disassembly of section .comment:

00000000 <.comment>:
   0:	43434700 	cmpmi	r3, #0	; 0x0
   4:	4728203a 	undefined
   8:	2029554e 	eorcs	r5, r9, lr, asr #10
   c:	2e342e33 	mrccs	14, 1, r2, cr4, cr3, {1}
  10:	47000035 	smladxmi	r0, r5, r0, r0
  14:	203a4343 	eorcss	r4, sl, r3, asr #6
  18:	554e4728 	strplb	r4, [lr, #-1832]
  1c:	2e332029 	cdpcs	0, 3, cr2, cr3, cr9, {1}
  20:	00352e34 	eoreqs	r2, r5, r4, lsr lr
  24:	43434700 	cmpmi	r3, #0	; 0x0
  28:	4728203a 	undefined
  2c:	2029554e 	eorcs	r5, r9, lr, asr #10
  30:	2e342e33 	mrccs	14, 1, r2, cr4, cr3, {1}
  34:	47000035 	smladxmi	r0, r5, r0, r0
  38:	203a4343 	eorcss	r4, sl, r3, asr #6
  3c:	554e4728 	strplb	r4, [lr, #-1832]
  40:	2e332029 	cdpcs	0, 3, cr2, cr3, cr9, {1}
  44:	00352e34 	eoreqs	r2, r5, r4, lsr lr
  48:	43434700 	cmpmi	r3, #0	; 0x0
  4c:	4728203a 	undefined
  50:	2029554e 	eorcs	r5, r9, lr, asr #10
  54:	2e342e33 	mrccs	14, 1, r2, cr4, cr3, {1}
  58:	47000035 	smladxmi	r0, r5, r0, r0
  5c:	203a4343 	eorcss	r4, sl, r3, asr #6
  60:	554e4728 	strplb	r4, [lr, #-1832]
  64:	2e332029 	cdpcs	0, 3, cr2, cr3, cr9, {1}
  68:	00352e34 	eoreqs	r2, r5, r4, lsr lr
  6c:	43434700 	cmpmi	r3, #0	; 0x0
  70:	4728203a 	undefined
  74:	2029554e 	eorcs	r5, r9, lr, asr #10
  78:	2e342e33 	mrccs	14, 1, r2, cr4, cr3, {1}
  7c:	47000035 	smladxmi	r0, r5, r0, r0
  80:	203a4343 	eorcss	r4, sl, r3, asr #6
  84:	554e4728 	strplb	r4, [lr, #-1832]
  88:	2e332029 	cdpcs	0, 3, cr2, cr3, cr9, {1}
  8c:	00352e34 	eoreqs	r2, r5, r4, lsr lr
  90:	43434700 	cmpmi	r3, #0	; 0x0
  94:	4728203a 	undefined
  98:	2029554e 	eorcs	r5, r9, lr, asr #10
  9c:	2e342e33 	mrccs	14, 1, r2, cr4, cr3, {1}
  a0:	47000035 	smladxmi	r0, r5, r0, r0
  a4:	203a4343 	eorcss	r4, sl, r3, asr #6
  a8:	554e4728 	strplb	r4, [lr, #-1832]
  ac:	2e332029 	cdpcs	0, 3, cr2, cr3, cr9, {1}
  b0:	00352e34 	eoreqs	r2, r5, r4, lsr lr
  b4:	43434700 	cmpmi	r3, #0	; 0x0
  b8:	4728203a 	undefined
  bc:	2029554e 	eorcs	r5, r9, lr, asr #10
  c0:	2e342e33 	mrccs	14, 1, r2, cr4, cr3, {1}
  c4:	47000035 	smladxmi	r0, r5, r0, r0
  c8:	203a4343 	eorcss	r4, sl, r3, asr #6
  cc:	554e4728 	strplb	r4, [lr, #-1832]
  d0:	2e332029 	cdpcs	0, 3, cr2, cr3, cr9, {1}
  d4:	00352e34 	eoreqs	r2, r5, r4, lsr lr
  d8:	43434700 	cmpmi	r3, #0	; 0x0
  dc:	4728203a 	undefined
  e0:	2029554e 	eorcs	r5, r9, lr, asr #10
  e4:	2e342e33 	mrccs	14, 1, r2, cr4, cr3, {1}
  e8:	47000035 	smladxmi	r0, r5, r0, r0
  ec:	203a4343 	eorcss	r4, sl, r3, asr #6
  f0:	554e4728 	strplb	r4, [lr, #-1832]
  f4:	2e332029 	cdpcs	0, 3, cr2, cr3, cr9, {1}
  f8:	00352e34 	eoreqs	r2, r5, r4, lsr lr
  fc:	43434700 	cmpmi	r3, #0	; 0x0
 100:	4728203a 	undefined
 104:	2029554e 	eorcs	r5, r9, lr, asr #10
 108:	2e342e33 	mrccs	14, 1, r2, cr4, cr3, {1}
 10c:	47000035 	smladxmi	r0, r5, r0, r0
 110:	203a4343 	eorcss	r4, sl, r3, asr #6
 114:	554e4728 	strplb	r4, [lr, #-1832]
 118:	2e332029 	cdpcs	0, 3, cr2, cr3, cr9, {1}
 11c:	00352e34 	eoreqs	r2, r5, r4, lsr lr
 120:	43434700 	cmpmi	r3, #0	; 0x0
 124:	4728203a 	undefined
 128:	2029554e 	eorcs	r5, r9, lr, asr #10
 12c:	2e342e33 	mrccs	14, 1, r2, cr4, cr3, {1}
 130:	47000035 	smladxmi	r0, r5, r0, r0
 134:	203a4343 	eorcss	r4, sl, r3, asr #6
 138:	554e4728 	strplb	r4, [lr, #-1832]
 13c:	2e332029 	cdpcs	0, 3, cr2, cr3, cr9, {1}
 140:	00352e34 	eoreqs	r2, r5, r4, lsr lr
 144:	43434700 	cmpmi	r3, #0	; 0x0
 148:	4728203a 	undefined
 14c:	2029554e 	eorcs	r5, r9, lr, asr #10
 150:	2e342e33 	mrccs	14, 1, r2, cr4, cr3, {1}
 154:	47000035 	smladxmi	r0, r5, r0, r0
 158:	203a4343 	eorcss	r4, sl, r3, asr #6
 15c:	554e4728 	strplb	r4, [lr, #-1832]
 160:	2e332029 	cdpcs	0, 3, cr2, cr3, cr9, {1}
 164:	00352e34 	eoreqs	r2, r5, r4, lsr lr
 168:	43434700 	cmpmi	r3, #0	; 0x0
 16c:	4728203a 	undefined
 170:	2029554e 	eorcs	r5, r9, lr, asr #10
 174:	2e342e33 	mrccs	14, 1, r2, cr4, cr3, {1}
 178:	47000035 	smladxmi	r0, r5, r0, r0
 17c:	203a4343 	eorcss	r4, sl, r3, asr #6
 180:	554e4728 	strplb	r4, [lr, #-1832]
 184:	2e332029 	cdpcs	0, 3, cr2, cr3, cr9, {1}
 188:	00352e34 	eoreqs	r2, r5, r4, lsr lr
 18c:	43434700 	cmpmi	r3, #0	; 0x0
 190:	4728203a 	undefined
 194:	2029554e 	eorcs	r5, r9, lr, asr #10
 198:	2e342e33 	mrccs	14, 1, r2, cr4, cr3, {1}
 19c:	47000035 	smladxmi	r0, r5, r0, r0
 1a0:	203a4343 	eorcss	r4, sl, r3, asr #6
 1a4:	554e4728 	strplb	r4, [lr, #-1832]
 1a8:	2e332029 	cdpcs	0, 3, cr2, cr3, cr9, {1}
 1ac:	00352e34 	eoreqs	r2, r5, r4, lsr lr
 1b0:	43434700 	cmpmi	r3, #0	; 0x0
 1b4:	4728203a 	undefined
 1b8:	2029554e 	eorcs	r5, r9, lr, asr #10
 1bc:	2e342e33 	mrccs	14, 1, r2, cr4, cr3, {1}
 1c0:	47000035 	smladxmi	r0, r5, r0, r0
 1c4:	203a4343 	eorcss	r4, sl, r3, asr #6
 1c8:	554e4728 	strplb	r4, [lr, #-1832]
 1cc:	2e332029 	cdpcs	0, 3, cr2, cr3, cr9, {1}
 1d0:	00352e34 	eoreqs	r2, r5, r4, lsr lr
 1d4:	43434700 	cmpmi	r3, #0	; 0x0
 1d8:	4728203a 	undefined
 1dc:	2029554e 	eorcs	r5, r9, lr, asr #10
 1e0:	2e342e33 	mrccs	14, 1, r2, cr4, cr3, {1}
 1e4:	47000035 	smladxmi	r0, r5, r0, r0
 1e8:	203a4343 	eorcss	r4, sl, r3, asr #6
 1ec:	554e4728 	strplb	r4, [lr, #-1832]
 1f0:	2e332029 	cdpcs	0, 3, cr2, cr3, cr9, {1}
 1f4:	00352e34 	eoreqs	r2, r5, r4, lsr lr
 1f8:	43434700 	cmpmi	r3, #0	; 0x0
 1fc:	4728203a 	undefined
 200:	2029554e 	eorcs	r5, r9, lr, asr #10
 204:	2e342e33 	mrccs	14, 1, r2, cr4, cr3, {1}
 208:	47000035 	smladxmi	r0, r5, r0, r0
 20c:	203a4343 	eorcss	r4, sl, r3, asr #6
 210:	554e4728 	strplb	r4, [lr, #-1832]
 214:	2e332029 	cdpcs	0, 3, cr2, cr3, cr9, {1}
 218:	00352e34 	eoreqs	r2, r5, r4, lsr lr
 21c:	43434700 	cmpmi	r3, #0	; 0x0
 220:	4728203a 	undefined
 224:	2029554e 	eorcs	r5, r9, lr, asr #10
 228:	2e342e33 	mrccs	14, 1, r2, cr4, cr3, {1}
 22c:	47000035 	smladxmi	r0, r5, r0, r0
 230:	203a4343 	eorcss	r4, sl, r3, asr #6
 234:	554e4728 	strplb	r4, [lr, #-1832]
 238:	2e332029 	cdpcs	0, 3, cr2, cr3, cr9, {1}
 23c:	00352e34 	eoreqs	r2, r5, r4, lsr lr
 240:	43434700 	cmpmi	r3, #0	; 0x0
 244:	4728203a 	undefined
 248:	2029554e 	eorcs	r5, r9, lr, asr #10
 24c:	2e342e33 	mrccs	14, 1, r2, cr4, cr3, {1}
 250:	47000035 	smladxmi	r0, r5, r0, r0
 254:	203a4343 	eorcss	r4, sl, r3, asr #6
 258:	554e4728 	strplb	r4, [lr, #-1832]
 25c:	2e332029 	cdpcs	0, 3, cr2, cr3, cr9, {1}
 260:	00352e34 	eoreqs	r2, r5, r4, lsr lr
 264:	43434700 	cmpmi	r3, #0	; 0x0
 268:	4728203a 	undefined
 26c:	2029554e 	eorcs	r5, r9, lr, asr #10
 270:	2e342e33 	mrccs	14, 1, r2, cr4, cr3, {1}
 274:	47000035 	smladxmi	r0, r5, r0, r0
 278:	203a4343 	eorcss	r4, sl, r3, asr #6
 27c:	554e4728 	strplb	r4, [lr, #-1832]
 280:	2e332029 	cdpcs	0, 3, cr2, cr3, cr9, {1}
 284:	00352e34 	eoreqs	r2, r5, r4, lsr lr
 288:	43434700 	cmpmi	r3, #0	; 0x0
 28c:	4728203a 	undefined
 290:	2029554e 	eorcs	r5, r9, lr, asr #10
 294:	2e342e33 	mrccs	14, 1, r2, cr4, cr3, {1}
 298:	47000035 	smladxmi	r0, r5, r0, r0
 29c:	203a4343 	eorcss	r4, sl, r3, asr #6
 2a0:	554e4728 	strplb	r4, [lr, #-1832]
 2a4:	2e332029 	cdpcs	0, 3, cr2, cr3, cr9, {1}
 2a8:	00352e34 	eoreqs	r2, r5, r4, lsr lr
Disassembly of section .debug_aranges:

00000000 <.debug_aranges>:
   0:	0000001c 	andeq	r0, r0, ip, lsl r0
   4:	00000002 	andeq	r0, r0, r2
   8:	00040000 	andeq	r0, r4, r0
   c:	00000000 	andeq	r0, r0, r0
  10:	b0006910 	andlt	r6, r0, r0, lsl r9
  14:	00000388 	andeq	r0, r0, r8, lsl #7
	...
  20:	0000001c 	andeq	r0, r0, ip, lsl r0
  24:	01000002 	tsteq	r0, r2
  28:	00040000 	andeq	r0, r4, r0
  2c:	00000000 	andeq	r0, r0, r0
  30:	b0006c98 	mullt	r0, r8, ip
  34:	00000580 	andeq	r0, r0, r0, lsl #11
	...
  40:	0000001c 	andeq	r0, r0, ip, lsl r0
  44:	02000002 	andeq	r0, r0, #2	; 0x2
  48:	00040000 	andeq	r0, r4, r0
  4c:	00000000 	andeq	r0, r0, r0
  50:	b0007218 	andlt	r7, r0, r8, lsl r2
  54:	00000080 	andeq	r0, r0, r0, lsl #1
	...
  60:	0000001c 	andeq	r0, r0, ip, lsl r0
  64:	03000002 	tsteq	r0, #2	; 0x2
  68:	00040000 	andeq	r0, r4, r0
  6c:	00000000 	andeq	r0, r0, r0
  70:	b0007298 	mullt	r0, r8, r2
  74:	00000218 	andeq	r0, r0, r8, lsl r2
	...
  80:	0000001c 	andeq	r0, r0, ip, lsl r0
  84:	04000002 	streq	r0, [r0], #-2
  88:	00040000 	andeq	r0, r4, r0
  8c:	00000000 	andeq	r0, r0, r0
  90:	b00074b0 	strlth	r7, [r0], -r0
  94:	0000035c 	andeq	r0, r0, ip, asr r3
	...
  a0:	0000001c 	andeq	r0, r0, ip, lsl r0
  a4:	05000002 	streq	r0, [r0, #-2]
  a8:	00040000 	andeq	r0, r4, r0
  ac:	00000000 	andeq	r0, r0, r0
  b0:	b000780c 	andlt	r7, r0, ip, lsl #16
  b4:	00000068 	andeq	r0, r0, r8, rrx
	...
Disassembly of section .debug_info:

00000000 <.debug_info>:
   0:	000000fc 	streqd	r0, [r0], -ip
   4:	00000002 	andeq	r0, r0, r2
   8:	01040000 	tsteq	r4, r0
   c:	00000000 	andeq	r0, r0, r0
  10:	b0006910 	andlt	r6, r0, r0, lsl r9
  14:	b0006c98 	mullt	r0, r8, ip
  18:	726f772f 	rsbvc	r7, pc, #12320768	; 0xbc0000
  1c:	6f742f6b 	swivs	0x00742f6b
  20:	2f736c6f 	swics	0x00736c6f
  24:	61657263 	cmnvs	r5, r3, ror #4
  28:	635f6574 	cmpvs	pc, #486539264	; 0x1d000000
  2c:	73736f72 	cmnvc	r3, #456	; 0x1c8
  30:	6c6f6f74 	stcvsl	15, cr6, [pc], #-464
  34:	72632f73 	rsbvc	r2, r3, #460	; 0x1cc
  38:	7473736f 	ldrvcbt	r7, [r3], #-879
  3c:	2d6c6f6f 	stccsl	15, cr6, [ip, #-444]!
  40:	33342e30 	teqcc	r4, #768	; 0x300
  44:	6975622f 	ldmvsdb	r5!, {r0, r1, r2, r3, r5, r9, sp, lr}^
  48:	612f646c 	teqvs	pc, ip, ror #8
  4c:	6c2d6d72 	stcvs	13, cr6, [sp], #-456
  50:	78756e69 	ldmvcda	r5!, {r0, r3, r5, r6, r9, sl, fp, sp, lr}^
  54:	6363672f 	cmnvs	r3, #12320768	; 0xbc0000
  58:	342e332d 	strcct	r3, [lr], #-813
  5c:	672d352e 	strvs	r3, [sp, -lr, lsr #10]!
  60:	6362696c 	cmnvs	r2, #1769472	; 0x1b0000
  64:	332e322d 	teqcc	lr, #-805306366	; 0xd0000002
  68:	672f362e 	strvs	r3, [pc, -lr, lsr #12]!
  6c:	332d6363 	teqcc	sp, #-1946157055	; 0x8c000001
  70:	352e342e 	strcc	r3, [lr, #-1070]!
  74:	6363672f 	cmnvs	r3, #12320768	; 0xbc0000
  78:	6e6f632f 	cdpvs	3, 6, cr6, cr15, cr15, {1}
  7c:	2f676966 	swics	0x00676966
  80:	2f6d7261 	swics	0x006d7261
  84:	65656569 	strvsb	r6, [r5, #-1385]!
  88:	2d343537 	cfldr32cs	mvfx3, [r4, #-220]!
  8c:	532e6664 	teqpl	lr, #104857600	; 0x6400000
  90:	6f772f00 	swivs	0x00772f00
  94:	742f6b72 	strvct	r6, [pc], #2930	; 9c <__code_start-0xafffff64>
  98:	736c6f6f 	cmnvc	ip, #444	; 0x1bc
  9c:	6572632f 	ldrvsb	r6, [r2, #-815]!
  a0:	5f657461 	swipl	0x00657461
  a4:	736f7263 	cmnvc	pc, #805306374	; 0x30000006
  a8:	6f6f7473 	swivs	0x006f7473
  ac:	632f736c 	teqvs	pc, #-1342177279	; 0xb0000001
  b0:	73736f72 	cmnvc	r3, #456	; 0x1c8
  b4:	6c6f6f74 	stcvsl	15, cr6, [pc], #-464
  b8:	342e302d 	strcct	r3, [lr], #-45
  bc:	75622f33 	strvcb	r2, [r2, #-3891]!
  c0:	2f646c69 	swics	0x00646c69
  c4:	2d6d7261 	sfmcs	f7, 2, [sp, #-388]!
  c8:	756e696c 	strvcb	r6, [lr, #-2412]!
  cc:	63672f78 	cmnvs	r7, #480	; 0x1e0
  d0:	2e332d63 	cdpcs	13, 3, cr2, cr3, cr3, {3}
  d4:	2d352e34 	ldccs	14, cr2, [r5, #-208]!
  d8:	62696c67 	rsbvs	r6, r9, #26368	; 0x6700
  dc:	2e322d63 	cdpcs	13, 3, cr2, cr2, cr3, {3}
  e0:	2f362e33 	swics	0x00362e33
  e4:	6c697562 	cfstr64vs	mvdx7, [r9], #-392
  e8:	63672d64 	cmnvs	r7, #6400	; 0x1900
  ec:	63672f63 	cmnvs	r7, #396	; 0x18c
  f0:	4e470063 	cdpmi	0, 4, cr0, cr7, cr3, {3}
  f4:	53412055 	cmppl	r1, #85	; 0x55
  f8:	312e3220 	teqcc	lr, r0, lsr #4
  fc:	80010035 	andhi	r0, r1, r5, lsr r0
 100:	000000fc 	streqd	r0, [r0], -ip
 104:	00140002 	andeqs	r0, r4, r2
 108:	01040000 	tsteq	r4, r0
 10c:	000001fe 	streqd	r0, [r0], -lr
 110:	b0006c98 	mullt	r0, r8, ip
 114:	b0007218 	andlt	r7, r0, r8, lsl r2
 118:	726f772f 	rsbvc	r7, pc, #12320768	; 0xbc0000
 11c:	6f742f6b 	swivs	0x00742f6b
 120:	2f736c6f 	swics	0x00736c6f
 124:	61657263 	cmnvs	r5, r3, ror #4
 128:	635f6574 	cmpvs	pc, #486539264	; 0x1d000000
 12c:	73736f72 	cmnvc	r3, #456	; 0x1c8
 130:	6c6f6f74 	stcvsl	15, cr6, [pc], #-464
 134:	72632f73 	rsbvc	r2, r3, #460	; 0x1cc
 138:	7473736f 	ldrvcbt	r7, [r3], #-879
 13c:	2d6c6f6f 	stccsl	15, cr6, [ip, #-444]!
 140:	33342e30 	teqcc	r4, #768	; 0x300
 144:	6975622f 	ldmvsdb	r5!, {r0, r1, r2, r3, r5, r9, sp, lr}^
 148:	612f646c 	teqvs	pc, ip, ror #8
 14c:	6c2d6d72 	stcvs	13, cr6, [sp], #-456
 150:	78756e69 	ldmvcda	r5!, {r0, r3, r5, r6, r9, sl, fp, sp, lr}^
 154:	6363672f 	cmnvs	r3, #12320768	; 0xbc0000
 158:	342e332d 	strcct	r3, [lr], #-813
 15c:	672d352e 	strvs	r3, [sp, -lr, lsr #10]!
 160:	6362696c 	cmnvs	r2, #1769472	; 0x1b0000
 164:	332e322d 	teqcc	lr, #-805306366	; 0xd0000002
 168:	672f362e 	strvs	r3, [pc, -lr, lsr #12]!
 16c:	332d6363 	teqcc	sp, #-1946157055	; 0x8c000001
 170:	352e342e 	strcc	r3, [lr, #-1070]!
 174:	6363672f 	cmnvs	r3, #12320768	; 0xbc0000
 178:	6e6f632f 	cdpvs	3, 6, cr6, cr15, cr15, {1}
 17c:	2f676966 	swics	0x00676966
 180:	2f6d7261 	swics	0x006d7261
 184:	65656569 	strvsb	r6, [r5, #-1385]!
 188:	2d343537 	cfldr32cs	mvfx3, [r4, #-220]!
 18c:	532e6664 	teqpl	lr, #104857600	; 0x6400000
 190:	6f772f00 	swivs	0x00772f00
 194:	742f6b72 	strvct	r6, [pc], #2930	; 19c <__code_start-0xaffffe64>
 198:	736c6f6f 	cmnvc	ip, #444	; 0x1bc
 19c:	6572632f 	ldrvsb	r6, [r2, #-815]!
 1a0:	5f657461 	swipl	0x00657461
 1a4:	736f7263 	cmnvc	pc, #805306374	; 0x30000006
 1a8:	6f6f7473 	swivs	0x006f7473
 1ac:	632f736c 	teqvs	pc, #-1342177279	; 0xb0000001
 1b0:	73736f72 	cmnvc	r3, #456	; 0x1c8
 1b4:	6c6f6f74 	stcvsl	15, cr6, [pc], #-464
 1b8:	342e302d 	strcct	r3, [lr], #-45
 1bc:	75622f33 	strvcb	r2, [r2, #-3891]!
 1c0:	2f646c69 	swics	0x00646c69
 1c4:	2d6d7261 	sfmcs	f7, 2, [sp, #-388]!
 1c8:	756e696c 	strvcb	r6, [lr, #-2412]!
 1cc:	63672f78 	cmnvs	r7, #480	; 0x1e0
 1d0:	2e332d63 	cdpcs	13, 3, cr2, cr3, cr3, {3}
 1d4:	2d352e34 	ldccs	14, cr2, [r5, #-208]!
 1d8:	62696c67 	rsbvs	r6, r9, #26368	; 0x6700
 1dc:	2e322d63 	cdpcs	13, 3, cr2, cr2, cr3, {3}
 1e0:	2f362e33 	swics	0x00362e33
 1e4:	6c697562 	cfstr64vs	mvdx7, [r9], #-392
 1e8:	63672d64 	cmnvs	r7, #6400	; 0x1900
 1ec:	63672f63 	cmnvs	r7, #396	; 0x18c
 1f0:	4e470063 	cdpmi	0, 4, cr0, cr7, cr3, {3}
 1f4:	53412055 	cmppl	r1, #85	; 0x55
 1f8:	312e3220 	teqcc	lr, r0, lsr #4
 1fc:	80010035 	andhi	r0, r1, r5, lsr r0
 200:	000000fc 	streqd	r0, [r0], -ip
 204:	00280002 	eoreq	r0, r8, r2
 208:	01040000 	tsteq	r4, r0
 20c:	00000494 	muleq	r0, r4, r4
 210:	b0007218 	andlt	r7, r0, r8, lsl r2
 214:	b0007298 	mullt	r0, r8, r2
 218:	726f772f 	rsbvc	r7, pc, #12320768	; 0xbc0000
 21c:	6f742f6b 	swivs	0x00742f6b
 220:	2f736c6f 	swics	0x00736c6f
 224:	61657263 	cmnvs	r5, r3, ror #4
 228:	635f6574 	cmpvs	pc, #486539264	; 0x1d000000
 22c:	73736f72 	cmnvc	r3, #456	; 0x1c8
 230:	6c6f6f74 	stcvsl	15, cr6, [pc], #-464
 234:	72632f73 	rsbvc	r2, r3, #460	; 0x1cc
 238:	7473736f 	ldrvcbt	r7, [r3], #-879
 23c:	2d6c6f6f 	stccsl	15, cr6, [ip, #-444]!
 240:	33342e30 	teqcc	r4, #768	; 0x300
 244:	6975622f 	ldmvsdb	r5!, {r0, r1, r2, r3, r5, r9, sp, lr}^
 248:	612f646c 	teqvs	pc, ip, ror #8
 24c:	6c2d6d72 	stcvs	13, cr6, [sp], #-456
 250:	78756e69 	ldmvcda	r5!, {r0, r3, r5, r6, r9, sl, fp, sp, lr}^
 254:	6363672f 	cmnvs	r3, #12320768	; 0xbc0000
 258:	342e332d 	strcct	r3, [lr], #-813
 25c:	672d352e 	strvs	r3, [sp, -lr, lsr #10]!
 260:	6362696c 	cmnvs	r2, #1769472	; 0x1b0000
 264:	332e322d 	teqcc	lr, #-805306366	; 0xd0000002
 268:	672f362e 	strvs	r3, [pc, -lr, lsr #12]!
 26c:	332d6363 	teqcc	sp, #-1946157055	; 0x8c000001
 270:	352e342e 	strcc	r3, [lr, #-1070]!
 274:	6363672f 	cmnvs	r3, #12320768	; 0xbc0000
 278:	6e6f632f 	cdpvs	3, 6, cr6, cr15, cr15, {1}
 27c:	2f676966 	swics	0x00676966
 280:	2f6d7261 	swics	0x006d7261
 284:	65656569 	strvsb	r6, [r5, #-1385]!
 288:	2d343537 	cfldr32cs	mvfx3, [r4, #-220]!
 28c:	532e6664 	teqpl	lr, #104857600	; 0x6400000
 290:	6f772f00 	swivs	0x00772f00
 294:	742f6b72 	strvct	r6, [pc], #2930	; 29c <__code_start-0xaffffd64>
 298:	736c6f6f 	cmnvc	ip, #444	; 0x1bc
 29c:	6572632f 	ldrvsb	r6, [r2, #-815]!
 2a0:	5f657461 	swipl	0x00657461
 2a4:	736f7263 	cmnvc	pc, #805306374	; 0x30000006
 2a8:	6f6f7473 	swivs	0x006f7473
 2ac:	632f736c 	teqvs	pc, #-1342177279	; 0xb0000001
 2b0:	73736f72 	cmnvc	r3, #456	; 0x1c8
 2b4:	6c6f6f74 	stcvsl	15, cr6, [pc], #-464
 2b8:	342e302d 	strcct	r3, [lr], #-45
 2bc:	75622f33 	strvcb	r2, [r2, #-3891]!
 2c0:	2f646c69 	swics	0x00646c69
 2c4:	2d6d7261 	sfmcs	f7, 2, [sp, #-388]!
 2c8:	756e696c 	strvcb	r6, [lr, #-2412]!
 2cc:	63672f78 	cmnvs	r7, #480	; 0x1e0
 2d0:	2e332d63 	cdpcs	13, 3, cr2, cr3, cr3, {3}
 2d4:	2d352e34 	ldccs	14, cr2, [r5, #-208]!
 2d8:	62696c67 	rsbvs	r6, r9, #26368	; 0x6700
 2dc:	2e322d63 	cdpcs	13, 3, cr2, cr2, cr3, {3}
 2e0:	2f362e33 	swics	0x00362e33
 2e4:	6c697562 	cfstr64vs	mvdx7, [r9], #-392
 2e8:	63672d64 	cmnvs	r7, #6400	; 0x1900
 2ec:	63672f63 	cmnvs	r7, #396	; 0x18c
 2f0:	4e470063 	cdpmi	0, 4, cr0, cr7, cr3, {3}
 2f4:	53412055 	cmppl	r1, #85	; 0x55
 2f8:	312e3220 	teqcc	lr, r0, lsr #4
 2fc:	80010035 	andhi	r0, r1, r5, lsr r0
 300:	000000fc 	streqd	r0, [r0], -ip
 304:	003c0002 	eoreqs	r0, ip, r2
 308:	01040000 	tsteq	r4, r0
 30c:	00000573 	andeq	r0, r0, r3, ror r5
 310:	b0007298 	mullt	r0, r8, r2
 314:	b00074b0 	strlth	r7, [r0], -r0
 318:	726f772f 	rsbvc	r7, pc, #12320768	; 0xbc0000
 31c:	6f742f6b 	swivs	0x00742f6b
 320:	2f736c6f 	swics	0x00736c6f
 324:	61657263 	cmnvs	r5, r3, ror #4
 328:	635f6574 	cmpvs	pc, #486539264	; 0x1d000000
 32c:	73736f72 	cmnvc	r3, #456	; 0x1c8
 330:	6c6f6f74 	stcvsl	15, cr6, [pc], #-464
 334:	72632f73 	rsbvc	r2, r3, #460	; 0x1cc
 338:	7473736f 	ldrvcbt	r7, [r3], #-879
 33c:	2d6c6f6f 	stccsl	15, cr6, [ip, #-444]!
 340:	33342e30 	teqcc	r4, #768	; 0x300
 344:	6975622f 	ldmvsdb	r5!, {r0, r1, r2, r3, r5, r9, sp, lr}^
 348:	612f646c 	teqvs	pc, ip, ror #8
 34c:	6c2d6d72 	stcvs	13, cr6, [sp], #-456
 350:	78756e69 	ldmvcda	r5!, {r0, r3, r5, r6, r9, sl, fp, sp, lr}^
 354:	6363672f 	cmnvs	r3, #12320768	; 0xbc0000
 358:	342e332d 	strcct	r3, [lr], #-813
 35c:	672d352e 	strvs	r3, [sp, -lr, lsr #10]!
 360:	6362696c 	cmnvs	r2, #1769472	; 0x1b0000
 364:	332e322d 	teqcc	lr, #-805306366	; 0xd0000002
 368:	672f362e 	strvs	r3, [pc, -lr, lsr #12]!
 36c:	332d6363 	teqcc	sp, #-1946157055	; 0x8c000001
 370:	352e342e 	strcc	r3, [lr, #-1070]!
 374:	6363672f 	cmnvs	r3, #12320768	; 0xbc0000
 378:	6e6f632f 	cdpvs	3, 6, cr6, cr15, cr15, {1}
 37c:	2f676966 	swics	0x00676966
 380:	2f6d7261 	swics	0x006d7261
 384:	65656569 	strvsb	r6, [r5, #-1385]!
 388:	2d343537 	cfldr32cs	mvfx3, [r4, #-220]!
 38c:	532e6673 	teqpl	lr, #120586240	; 0x7300000
 390:	6f772f00 	swivs	0x00772f00
 394:	742f6b72 	strvct	r6, [pc], #2930	; 39c <__code_start-0xaffffc64>
 398:	736c6f6f 	cmnvc	ip, #444	; 0x1bc
 39c:	6572632f 	ldrvsb	r6, [r2, #-815]!
 3a0:	5f657461 	swipl	0x00657461
 3a4:	736f7263 	cmnvc	pc, #805306374	; 0x30000006
 3a8:	6f6f7473 	swivs	0x006f7473
 3ac:	632f736c 	teqvs	pc, #-1342177279	; 0xb0000001
 3b0:	73736f72 	cmnvc	r3, #456	; 0x1c8
 3b4:	6c6f6f74 	stcvsl	15, cr6, [pc], #-464
 3b8:	342e302d 	strcct	r3, [lr], #-45
 3bc:	75622f33 	strvcb	r2, [r2, #-3891]!
 3c0:	2f646c69 	swics	0x00646c69
 3c4:	2d6d7261 	sfmcs	f7, 2, [sp, #-388]!
 3c8:	756e696c 	strvcb	r6, [lr, #-2412]!
 3cc:	63672f78 	cmnvs	r7, #480	; 0x1e0
 3d0:	2e332d63 	cdpcs	13, 3, cr2, cr3, cr3, {3}
 3d4:	2d352e34 	ldccs	14, cr2, [r5, #-208]!
 3d8:	62696c67 	rsbvs	r6, r9, #26368	; 0x6700
 3dc:	2e322d63 	cdpcs	13, 3, cr2, cr2, cr3, {3}
 3e0:	2f362e33 	swics	0x00362e33
 3e4:	6c697562 	cfstr64vs	mvdx7, [r9], #-392
 3e8:	63672d64 	cmnvs	r7, #6400	; 0x1900
 3ec:	63672f63 	cmnvs	r7, #396	; 0x18c
 3f0:	4e470063 	cdpmi	0, 4, cr0, cr7, cr3, {3}
 3f4:	53412055 	cmppl	r1, #85	; 0x55
 3f8:	312e3220 	teqcc	lr, r0, lsr #4
 3fc:	80010035 	andhi	r0, r1, r5, lsr r0
 400:	000000fc 	streqd	r0, [r0], -ip
 404:	00500002 	subeqs	r0, r0, r2
 408:	01040000 	tsteq	r4, r0
 40c:	000006bb 	streqh	r0, [r0], -fp
 410:	b00074b0 	strlth	r7, [r0], -r0
 414:	b000780c 	andlt	r7, r0, ip, lsl #16
 418:	726f772f 	rsbvc	r7, pc, #12320768	; 0xbc0000
 41c:	6f742f6b 	swivs	0x00742f6b
 420:	2f736c6f 	swics	0x00736c6f
 424:	61657263 	cmnvs	r5, r3, ror #4
 428:	635f6574 	cmpvs	pc, #486539264	; 0x1d000000
 42c:	73736f72 	cmnvc	r3, #456	; 0x1c8
 430:	6c6f6f74 	stcvsl	15, cr6, [pc], #-464
 434:	72632f73 	rsbvc	r2, r3, #460	; 0x1cc
 438:	7473736f 	ldrvcbt	r7, [r3], #-879
 43c:	2d6c6f6f 	stccsl	15, cr6, [ip, #-444]!
 440:	33342e30 	teqcc	r4, #768	; 0x300
 444:	6975622f 	ldmvsdb	r5!, {r0, r1, r2, r3, r5, r9, sp, lr}^
 448:	612f646c 	teqvs	pc, ip, ror #8
 44c:	6c2d6d72 	stcvs	13, cr6, [sp], #-456
 450:	78756e69 	ldmvcda	r5!, {r0, r3, r5, r6, r9, sl, fp, sp, lr}^
 454:	6363672f 	cmnvs	r3, #12320768	; 0xbc0000
 458:	342e332d 	strcct	r3, [lr], #-813
 45c:	672d352e 	strvs	r3, [sp, -lr, lsr #10]!
 460:	6362696c 	cmnvs	r2, #1769472	; 0x1b0000
 464:	332e322d 	teqcc	lr, #-805306366	; 0xd0000002
 468:	672f362e 	strvs	r3, [pc, -lr, lsr #12]!
 46c:	332d6363 	teqcc	sp, #-1946157055	; 0x8c000001
 470:	352e342e 	strcc	r3, [lr, #-1070]!
 474:	6363672f 	cmnvs	r3, #12320768	; 0xbc0000
 478:	6e6f632f 	cdpvs	3, 6, cr6, cr15, cr15, {1}
 47c:	2f676966 	swics	0x00676966
 480:	2f6d7261 	swics	0x006d7261
 484:	65656569 	strvsb	r6, [r5, #-1385]!
 488:	2d343537 	cfldr32cs	mvfx3, [r4, #-220]!
 48c:	532e6673 	teqpl	lr, #120586240	; 0x7300000
 490:	6f772f00 	swivs	0x00772f00
 494:	742f6b72 	strvct	r6, [pc], #2930	; 49c <__code_start-0xaffffb64>
 498:	736c6f6f 	cmnvc	ip, #444	; 0x1bc
 49c:	6572632f 	ldrvsb	r6, [r2, #-815]!
 4a0:	5f657461 	swipl	0x00657461
 4a4:	736f7263 	cmnvc	pc, #805306374	; 0x30000006
 4a8:	6f6f7473 	swivs	0x006f7473
 4ac:	632f736c 	teqvs	pc, #-1342177279	; 0xb0000001
 4b0:	73736f72 	cmnvc	r3, #456	; 0x1c8
 4b4:	6c6f6f74 	stcvsl	15, cr6, [pc], #-464
 4b8:	342e302d 	strcct	r3, [lr], #-45
 4bc:	75622f33 	strvcb	r2, [r2, #-3891]!
 4c0:	2f646c69 	swics	0x00646c69
 4c4:	2d6d7261 	sfmcs	f7, 2, [sp, #-388]!
 4c8:	756e696c 	strvcb	r6, [lr, #-2412]!
 4cc:	63672f78 	cmnvs	r7, #480	; 0x1e0
 4d0:	2e332d63 	cdpcs	13, 3, cr2, cr3, cr3, {3}
 4d4:	2d352e34 	ldccs	14, cr2, [r5, #-208]!
 4d8:	62696c67 	rsbvs	r6, r9, #26368	; 0x6700
 4dc:	2e322d63 	cdpcs	13, 3, cr2, cr2, cr3, {3}
 4e0:	2f362e33 	swics	0x00362e33
 4e4:	6c697562 	cfstr64vs	mvdx7, [r9], #-392
 4e8:	63672d64 	cmnvs	r7, #6400	; 0x1900
 4ec:	63672f63 	cmnvs	r7, #396	; 0x18c
 4f0:	4e470063 	cdpmi	0, 4, cr0, cr7, cr3, {3}
 4f4:	53412055 	cmppl	r1, #85	; 0x55
 4f8:	312e3220 	teqcc	lr, r0, lsr #4
 4fc:	80010035 	andhi	r0, r1, r5, lsr r0
 500:	000000fc 	streqd	r0, [r0], -ip
 504:	00640002 	rsbeq	r0, r4, r2
 508:	01040000 	tsteq	r4, r0
 50c:	00000853 	andeq	r0, r0, r3, asr r8
 510:	b000780c 	andlt	r7, r0, ip, lsl #16
 514:	b0007874 	andlt	r7, r0, r4, ror r8
 518:	726f772f 	rsbvc	r7, pc, #12320768	; 0xbc0000
 51c:	6f742f6b 	swivs	0x00742f6b
 520:	2f736c6f 	swics	0x00736c6f
 524:	61657263 	cmnvs	r5, r3, ror #4
 528:	635f6574 	cmpvs	pc, #486539264	; 0x1d000000
 52c:	73736f72 	cmnvc	r3, #456	; 0x1c8
 530:	6c6f6f74 	stcvsl	15, cr6, [pc], #-464
 534:	72632f73 	rsbvc	r2, r3, #460	; 0x1cc
 538:	7473736f 	ldrvcbt	r7, [r3], #-879
 53c:	2d6c6f6f 	stccsl	15, cr6, [ip, #-444]!
 540:	33342e30 	teqcc	r4, #768	; 0x300
 544:	6975622f 	ldmvsdb	r5!, {r0, r1, r2, r3, r5, r9, sp, lr}^
 548:	612f646c 	teqvs	pc, ip, ror #8
 54c:	6c2d6d72 	stcvs	13, cr6, [sp], #-456
 550:	78756e69 	ldmvcda	r5!, {r0, r3, r5, r6, r9, sl, fp, sp, lr}^
 554:	6363672f 	cmnvs	r3, #12320768	; 0xbc0000
 558:	342e332d 	strcct	r3, [lr], #-813
 55c:	672d352e 	strvs	r3, [sp, -lr, lsr #10]!
 560:	6362696c 	cmnvs	r2, #1769472	; 0x1b0000
 564:	332e322d 	teqcc	lr, #-805306366	; 0xd0000002
 568:	672f362e 	strvs	r3, [pc, -lr, lsr #12]!
 56c:	332d6363 	teqcc	sp, #-1946157055	; 0x8c000001
 570:	352e342e 	strcc	r3, [lr, #-1070]!
 574:	6363672f 	cmnvs	r3, #12320768	; 0xbc0000
 578:	6e6f632f 	cdpvs	3, 6, cr6, cr15, cr15, {1}
 57c:	2f676966 	swics	0x00676966
 580:	2f6d7261 	swics	0x006d7261
 584:	65656569 	strvsb	r6, [r5, #-1385]!
 588:	2d343537 	cfldr32cs	mvfx3, [r4, #-220]!
 58c:	532e6673 	teqpl	lr, #120586240	; 0x7300000
 590:	6f772f00 	swivs	0x00772f00
 594:	742f6b72 	strvct	r6, [pc], #2930	; 59c <__code_start-0xaffffa64>
 598:	736c6f6f 	cmnvc	ip, #444	; 0x1bc
 59c:	6572632f 	ldrvsb	r6, [r2, #-815]!
 5a0:	5f657461 	swipl	0x00657461
 5a4:	736f7263 	cmnvc	pc, #805306374	; 0x30000006
 5a8:	6f6f7473 	swivs	0x006f7473
 5ac:	632f736c 	teqvs	pc, #-1342177279	; 0xb0000001
 5b0:	73736f72 	cmnvc	r3, #456	; 0x1c8
 5b4:	6c6f6f74 	stcvsl	15, cr6, [pc], #-464
 5b8:	342e302d 	strcct	r3, [lr], #-45
 5bc:	75622f33 	strvcb	r2, [r2, #-3891]!
 5c0:	2f646c69 	swics	0x00646c69
 5c4:	2d6d7261 	sfmcs	f7, 2, [sp, #-388]!
 5c8:	756e696c 	strvcb	r6, [lr, #-2412]!
 5cc:	63672f78 	cmnvs	r7, #480	; 0x1e0
 5d0:	2e332d63 	cdpcs	13, 3, cr2, cr3, cr3, {3}
 5d4:	2d352e34 	ldccs	14, cr2, [r5, #-208]!
 5d8:	62696c67 	rsbvs	r6, r9, #26368	; 0x6700
 5dc:	2e322d63 	cdpcs	13, 3, cr2, cr2, cr3, {3}
 5e0:	2f362e33 	swics	0x00362e33
 5e4:	6c697562 	cfstr64vs	mvdx7, [r9], #-392
 5e8:	63672d64 	cmnvs	r7, #6400	; 0x1900
 5ec:	63672f63 	cmnvs	r7, #396	; 0x18c
 5f0:	4e470063 	cdpmi	0, 4, cr0, cr7, cr3, {3}
 5f4:	53412055 	cmppl	r1, #85	; 0x55
 5f8:	312e3220 	teqcc	lr, r0, lsr #4
 5fc:	80010035 	andhi	r0, r1, r5, lsr r0
Disassembly of section .debug_abbrev:

00000000 <.debug_abbrev>:
   0:	10001101 	andne	r1, r0, r1, lsl #2
   4:	12011106 	andne	r1, r1, #-2147483647	; 0x80000001
   8:	1b080301 	blne	200c14 <__code_start-0xafdff3ec>
   c:	13082508 	tstne	r8, #33554432	; 0x2000000
  10:	00000005 	andeq	r0, r0, r5
  14:	10001101 	andne	r1, r0, r1, lsl #2
  18:	12011106 	andne	r1, r1, #-2147483647	; 0x80000001
  1c:	1b080301 	blne	200c28 <__code_start-0xafdff3d8>
  20:	13082508 	tstne	r8, #33554432	; 0x2000000
  24:	00000005 	andeq	r0, r0, r5
  28:	10001101 	andne	r1, r0, r1, lsl #2
  2c:	12011106 	andne	r1, r1, #-2147483647	; 0x80000001
  30:	1b080301 	blne	200c3c <__code_start-0xafdff3c4>
  34:	13082508 	tstne	r8, #33554432	; 0x2000000
  38:	00000005 	andeq	r0, r0, r5
  3c:	10001101 	andne	r1, r0, r1, lsl #2
  40:	12011106 	andne	r1, r1, #-2147483647	; 0x80000001
  44:	1b080301 	blne	200c50 <__code_start-0xafdff3b0>
  48:	13082508 	tstne	r8, #33554432	; 0x2000000
  4c:	00000005 	andeq	r0, r0, r5
  50:	10001101 	andne	r1, r0, r1, lsl #2
  54:	12011106 	andne	r1, r1, #-2147483647	; 0x80000001
  58:	1b080301 	blne	200c64 <__code_start-0xafdff39c>
  5c:	13082508 	tstne	r8, #33554432	; 0x2000000
  60:	00000005 	andeq	r0, r0, r5
  64:	10001101 	andne	r1, r0, r1, lsl #2
  68:	12011106 	andne	r1, r1, #-2147483647	; 0x80000001
  6c:	1b080301 	blne	200c78 <__code_start-0xafdff388>
  70:	13082508 	tstne	r8, #33554432	; 0x2000000
  74:	00000005 	andeq	r0, r0, r5
Disassembly of section .debug_line:

00000000 <.debug_line>:
   0:	000001e0 	andeq	r0, r0, r0, ror #3
   4:	009d0002 	addeqs	r0, sp, r2
   8:	01020000 	tsteq	r2, r0
   c:	000a0efb 	streqd	r0, [sl], -fp
  10:	01010101 	tsteq	r1, r1, lsl #2
  14:	01000000 	tsteq	r0, r0
  18:	726f772f 	rsbvc	r7, pc, #12320768	; 0xbc0000
  1c:	6f742f6b 	swivs	0x00742f6b
  20:	2f736c6f 	swics	0x00736c6f
  24:	61657263 	cmnvs	r5, r3, ror #4
  28:	635f6574 	cmpvs	pc, #486539264	; 0x1d000000
  2c:	73736f72 	cmnvc	r3, #456	; 0x1c8
  30:	6c6f6f74 	stcvsl	15, cr6, [pc], #-464
  34:	72632f73 	rsbvc	r2, r3, #460	; 0x1cc
  38:	7473736f 	ldrvcbt	r7, [r3], #-879
  3c:	2d6c6f6f 	stccsl	15, cr6, [ip, #-444]!
  40:	33342e30 	teqcc	r4, #768	; 0x300
  44:	6975622f 	ldmvsdb	r5!, {r0, r1, r2, r3, r5, r9, sp, lr}^
  48:	612f646c 	teqvs	pc, ip, ror #8
  4c:	6c2d6d72 	stcvs	13, cr6, [sp], #-456
  50:	78756e69 	ldmvcda	r5!, {r0, r3, r5, r6, r9, sl, fp, sp, lr}^
  54:	6363672f 	cmnvs	r3, #12320768	; 0xbc0000
  58:	342e332d 	strcct	r3, [lr], #-813
  5c:	672d352e 	strvs	r3, [sp, -lr, lsr #10]!
  60:	6362696c 	cmnvs	r2, #1769472	; 0x1b0000
  64:	332e322d 	teqcc	lr, #-805306366	; 0xd0000002
  68:	672f362e 	strvs	r3, [pc, -lr, lsr #12]!
  6c:	332d6363 	teqcc	sp, #-1946157055	; 0x8c000001
  70:	352e342e 	strcc	r3, [lr, #-1070]!
  74:	6363672f 	cmnvs	r3, #12320768	; 0xbc0000
  78:	6e6f632f 	cdpvs	3, 6, cr6, cr15, cr15, {1}
  7c:	2f676966 	swics	0x00676966
  80:	006d7261 	rsbeq	r7, sp, r1, ror #4
  84:	65656900 	strvsb	r6, [r5, #-2304]!
  88:	34353765 	ldrcct	r3, [r5], #-1893
  8c:	2e66642d 	cdpcs	4, 6, cr6, cr6, cr13, {1}
  90:	00010053 	andeq	r0, r1, r3, asr r0
  94:	62696c00 	rsbvs	r6, r9, #0	; 0x0
  98:	6e756631 	mrcvs	6, 3, r6, cr5, cr1, {1}
  9c:	612e7363 	teqvs	lr, r3, ror #6
  a0:	01006d73 	tsteq	r0, r3, ror sp
  a4:	00000000 	andeq	r0, r0, r0
  a8:	69100205 	ldmvsdb	r0, {r0, r2, r9}
  ac:	c903b000 	stmgtdb	r3, {ip, sp, pc}
  b0:	2c330100 	ldfcss	f0, [r3]
  b4:	2c2f2c2c 	stccs	12, cr2, [pc], #-176
  b8:	2d2c2c2c 	stccs	12, cr2, [ip, #-176]!
  bc:	2c2c2c2e 	stccs	12, cr2, [ip], #-184
  c0:	2f2c2c2e 	swics	0x002c2c2e
  c4:	2c2c2c2c 	stccs	12, cr2, [ip], #-176
  c8:	2c2c2c2c 	stccs	12, cr2, [ip], #-176
  cc:	0204312c 	andeq	r3, r4, #11	; 0xb
  d0:	33010427 	tstcc	r1, #654311424	; 0x27000000
  d4:	2c2c2c2c 	stccs	12, cr2, [ip], #-176
  d8:	2c2c2d2c 	stccs	13, cr2, [ip], #-176
  dc:	2f2c2c2c 	swics	0x002c2c2c
  e0:	2c2c302c 	stccs	0, cr3, [ip], #-176
  e4:	2c2c2c2c 	stccs	12, cr2, [ip], #-176
  e8:	2e2c2c2c 	cdpcs	12, 2, cr2, cr12, cr12, {1}
  ec:	2c2c2c2c 	stccs	12, cr2, [ip], #-176
  f0:	2c2c2c2c 	stccs	12, cr2, [ip], #-176
  f4:	2c2c2c2c 	stccs	12, cr2, [ip], #-176
  f8:	2c2f2c2e 	stccs	12, cr2, [pc], #-184
  fc:	2f2c2c2c 	swics	0x002c2c2c
 100:	2c2c2c2c 	stccs	12, cr2, [ip], #-176
 104:	2c2c2e2c 	stccs	14, cr2, [ip], #-176
 108:	2c2d2c2c 	stccs	12, cr2, [sp], #-176
 10c:	312c2c2c 	teqcc	ip, ip, lsr #24
 110:	2f2c2c2c 	swics	0x002c2c2c
 114:	2f2c2e2c 	swics	0x002c2e2c
 118:	02042c2c 	andeq	r2, r4, #11264	; 0x2c00
 11c:	2b7f9003 	blcs	1fe4130 <__code_start-0xae01bed0>
 120:	f8030104 	stmnvda	r3, {r2, r8}
 124:	2c2c2b00 	stccs	11, cr2, [ip]
 128:	2c2c2c2c 	stccs	12, cr2, [ip], #-176
 12c:	2c2c2c2c 	stccs	12, cr2, [ip], #-176
 130:	2c2c2c2c 	stccs	12, cr2, [ip], #-176
 134:	2c2c2c2c 	stccs	12, cr2, [ip], #-176
 138:	2b0e032c 	blcs	380df0 <__code_start-0xafc7f210>
 13c:	2f2c2c2c 	swics	0x002c2c2c
 140:	2c2c2c2c 	stccs	12, cr2, [ip], #-176
 144:	2c2c2c2f 	stccs	12, cr2, [ip], #-188
 148:	2f2c2e2c 	swics	0x002c2e2c
 14c:	2c2c2c2c 	stccs	12, cr2, [ip], #-176
 150:	2c2c2c2e 	stccs	12, cr2, [ip], #-184
 154:	0302042c 	tsteq	r2, #738197504	; 0x2c000000
 158:	042b7ec1 	streqt	r7, [fp], #-3777
 15c:	01c40301 	biceq	r0, r4, r1, lsl #6
 160:	2c2c2c2b 	stccs	12, cr2, [ip], #-172
 164:	0302042c 	tsteq	r2, #738197504	; 0x2c000000
 168:	042b7eb8 	streqt	r7, [fp], #-3768
 16c:	01cd0301 	biceq	r0, sp, r1, lsl #6
 170:	02042c2b 	andeq	r2, r4, #11008	; 0x2b00
 174:	2b7eb203 	blcs	1fac988 <__code_start-0xae053678>
 178:	d3030104 	tstle	r3, #1	; 0x1
 17c:	2c2c2b01 	stccs	11, cr2, [ip], #-4
 180:	2f2c2c2c 	swics	0x002c2c2c
 184:	2c2c2c2c 	stccs	12, cr2, [ip], #-176
 188:	2c2f2c2c 	stccs	12, cr2, [pc], #-176
 18c:	0302042c 	tsteq	r2, #738197504	; 0x2c000000
 190:	042b7e98 	streqt	r7, [fp], #-3736
 194:	01f20301 	mvneqs	r0, r1, lsl #6
 198:	2c2c2c2b 	stccs	12, cr2, [ip], #-172
 19c:	8b030204 	blhi	c09b4 <__code_start-0xaff3f64c>
 1a0:	01042b7e 	tsteq	r4, lr, ror fp
 1a4:	2b01f803 	blcs	7e1b8 <__code_start-0xaff81e48>
 1a8:	2c2c2c2c 	stccs	12, cr2, [ip], #-176
 1ac:	84030204 	strhi	r0, [r3], #-516
 1b0:	01042b7e 	tsteq	r4, lr, ror fp
 1b4:	2b028303 	blcs	a0dc8 <__code_start-0xaff5f238>
 1b8:	2c2c2c2c 	stccs	12, cr2, [ip], #-176
 1bc:	2c2c2c2c 	stccs	12, cr2, [ip], #-176
 1c0:	2c2c302c 	stccs	0, cr3, [ip], #-176
 1c4:	2c2c2c2c 	stccs	12, cr2, [ip], #-176
 1c8:	2c2c2c2c 	stccs	12, cr2, [ip], #-176
 1cc:	2c2c2c30 	stccs	12, cr2, [ip], #-192
 1d0:	2c2c2c2c 	stccs	12, cr2, [ip], #-176
 1d4:	2c2d2c2c 	stccs	12, cr2, [sp], #-176
 1d8:	2c2c2e2c 	stccs	14, cr2, [ip], #-176
 1dc:	022c2c2c 	eoreq	r2, ip, #11264	; 0x2c00
 1e0:	01010002 	tsteq	r1, r2
 1e4:	00000016 	andeq	r0, r0, r6, lsl r0
 1e8:	00100002 	andeqs	r0, r0, r2
 1ec:	01020000 	tsteq	r2, r0
 1f0:	000a0efb 	streqd	r0, [sl], -fp
 1f4:	01010101 	tsteq	r1, r1, lsl #2
 1f8:	01000000 	tsteq	r0, r0
 1fc:	02780000 	rsbeqs	r0, r8, #0	; 0x0
 200:	00020000 	andeq	r0, r2, r0
 204:	0000009d 	muleq	r0, sp, r0
 208:	0efb0102 	cdpeq	1, 15, cr0, cr11, cr2, {0}
 20c:	0101000a 	tsteq	r1, sl
 210:	00000101 	andeq	r0, r0, r1, lsl #2
 214:	772f0100 	strvc	r0, [pc, -r0, lsl #2]!
 218:	2f6b726f 	swics	0x006b726f
 21c:	6c6f6f74 	stcvsl	15, cr6, [pc], #-464
 220:	72632f73 	rsbvc	r2, r3, #460	; 0x1cc
 224:	65746165 	ldrvsb	r6, [r4, #-357]!
 228:	6f72635f 	swivs	0x0072635f
 22c:	6f747373 	swivs	0x00747373
 230:	2f736c6f 	swics	0x00736c6f
 234:	736f7263 	cmnvc	pc, #805306374	; 0x30000006
 238:	6f6f7473 	swivs	0x006f7473
 23c:	2e302d6c 	cdpcs	13, 3, cr2, cr0, cr12, {3}
 240:	622f3334 	eorvs	r3, pc, #-805306368	; 0xd0000000
 244:	646c6975 	strvsbt	r6, [ip], #-2421
 248:	6d72612f 	ldfvse	f6, [r2, #-188]!
 24c:	6e696c2d 	cdpvs	12, 6, cr6, cr9, cr13, {1}
 250:	672f7875 	undefined
 254:	332d6363 	teqcc	sp, #-1946157055	; 0x8c000001
 258:	352e342e 	strcc	r3, [lr, #-1070]!
 25c:	696c672d 	stmvsdb	ip!, {r0, r2, r3, r5, r8, r9, sl, sp, lr}^
 260:	322d6362 	eorcc	r6, sp, #-2013265919	; 0x88000001
 264:	362e332e 	strcct	r3, [lr], -lr, lsr #6
 268:	6363672f 	cmnvs	r3, #12320768	; 0xbc0000
 26c:	342e332d 	strcct	r3, [lr], #-813
 270:	672f352e 	strvs	r3, [pc, -lr, lsr #10]!
 274:	632f6363 	teqvs	pc, #-1946157055	; 0x8c000001
 278:	69666e6f 	stmvsdb	r6!, {r0, r1, r2, r3, r5, r6, r9, sl, fp, sp, lr}^
 27c:	72612f67 	rsbvc	r2, r1, #412	; 0x19c
 280:	6900006d 	stmvsdb	r0, {r0, r2, r3, r5, r6}
 284:	37656565 	strccb	r6, [r5, -r5, ror #10]!
 288:	642d3435 	strvst	r3, [sp], #-1077
 28c:	00532e66 	subeqs	r2, r3, r6, ror #28
 290:	6c000001 	stcvs	0, cr0, [r0], {1}
 294:	66316269 	ldrvst	r6, [r1], -r9, ror #4
 298:	73636e75 	cmnvc	r3, #1872	; 0x750
 29c:	6d73612e 	ldfvse	f6, [r3, #-184]!
 2a0:	00000100 	andeq	r0, r0, r0, lsl #2
 2a4:	02050000 	andeq	r0, r5, #0	; 0x0
 2a8:	b0006c98 	mullt	r0, r8, ip
 2ac:	0103b703 	tsteq	r3, r3, lsl #14
 2b0:	2c2c2c2e 	stccs	12, cr2, [ip], #-184
 2b4:	2e2c2c2e 	cdpcs	12, 2, cr2, cr12, cr14, {1}
 2b8:	2c302c2c 	ldccs	12, cr2, [r0], #-176
 2bc:	2c2e2d2c 	stccs	13, cr2, [lr], #-176
 2c0:	2c2c2c2e 	stccs	12, cr2, [ip], #-184
 2c4:	2c2c2c31 	stccs	12, cr2, [ip], #-196
 2c8:	2c2c2c2c 	stccs	12, cr2, [ip], #-176
 2cc:	2c2c2c2c 	stccs	12, cr2, [ip], #-176
 2d0:	2c2c2c2c 	stccs	12, cr2, [ip], #-176
 2d4:	2c2c2c2c 	stccs	12, cr2, [ip], #-176
 2d8:	2c2c2c2c 	stccs	12, cr2, [ip], #-176
 2dc:	2c2c2c2c 	stccs	12, cr2, [ip], #-176
 2e0:	2c2c2c2c 	stccs	12, cr2, [ip], #-176
 2e4:	2c2c2c2c 	stccs	12, cr2, [ip], #-176
 2e8:	2c2c2c2c 	stccs	12, cr2, [ip], #-176
 2ec:	2c2c2c2c 	stccs	12, cr2, [ip], #-176
 2f0:	2c2c2c2c 	stccs	12, cr2, [ip], #-176
 2f4:	2c2c2c2c 	stccs	12, cr2, [ip], #-176
 2f8:	2b10032c 	blcs	400fb0 <__code_start-0xafbff050>
 2fc:	2e2c2e2c 	cdpcs	14, 2, cr2, cr12, cr12, {1}
 300:	2c2c2c2c 	stccs	12, cr2, [ip], #-176
 304:	2c2f2c2c 	stccs	12, cr2, [pc], #-176
 308:	2c2e2c2c 	stccs	12, cr2, [lr], #-176
 30c:	2c2c2e2c 	stccs	14, cr2, [ip], #-176
 310:	2f2c2c2c 	swics	0x002c2c2c
 314:	2c2c2e2c 	stccs	14, cr2, [ip], #-176
 318:	02042c2e 	andeq	r2, r4, #11776	; 0x2e00
 31c:	2b7ca403 	blcs	1f29330 <__code_start-0xae0d6cd0>
 320:	e1030104 	tst	r3, r4, lsl #2
 324:	2c2d2b03 	stccs	11, cr2, [sp], #-12
 328:	9c030204 	sfmls	f0, 4, [r3], {4}
 32c:	01042b7c 	tsteq	r4, ip, ror fp
 330:	2b03e903 	blcs	fa744 <__code_start-0xaff058bc>
 334:	02042c2c 	andeq	r2, r4, #11264	; 0x2c00
 338:	2b7c9503 	blcs	1f2574c <__code_start-0xae0da8b4>
 33c:	f0030104 	andnv	r0, r3, r4, lsl #2
 340:	2c2c2b03 	stccs	11, cr2, [ip], #-12
 344:	2c2e2c2c 	stccs	12, cr2, [lr], #-176
 348:	2c2c2c2c 	stccs	12, cr2, [ip], #-176
 34c:	2c2c2c2c 	stccs	12, cr2, [ip], #-176
 350:	042c2c2c 	streqt	r2, [ip], #-3116
 354:	7bfd0302 	blvc	fff40f64 <__bss_end+0x4ff35324>
 358:	0301042b 	tsteq	r1, #721420288	; 0x2b000000
 35c:	2c2b0488 	cfstrscs	mvf0, [fp], #-544
 360:	2c2c2c2c 	stccs	12, cr2, [ip], #-176
 364:	2c2c2c2c 	stccs	12, cr2, [ip], #-176
 368:	0302042c 	tsteq	r2, #738197504	; 0x2c000000
 36c:	042b7bee 	streqt	r7, [fp], #-3054
 370:	04970301 	ldreq	r0, [r7], #769
 374:	2c2c2c2b 	stccs	12, cr2, [ip], #-172
 378:	2c2c2c2c 	stccs	12, cr2, [ip], #-176
 37c:	042c2c2c 	streqt	r2, [ip], #-3116
 380:	7bdf0302 	blvc	ff7c0f90 <__bss_end+0x4f7b5350>
 384:	0301042b 	tsteq	r1, #721420288	; 0x2b000000
 388:	2c2b04a7 	cfstrscs	mvf0, [fp], #-668
 38c:	2c2c2c2c 	stccs	12, cr2, [ip], #-176
 390:	2c2c2c2c 	stccs	12, cr2, [ip], #-176
 394:	2c2c2c2c 	stccs	12, cr2, [ip], #-176
 398:	2c2c2c2c 	stccs	12, cr2, [ip], #-176
 39c:	2c2f2c2c 	stccs	12, cr2, [pc], #-176
 3a0:	2c2c2c2c 	stccs	12, cr2, [ip], #-176
 3a4:	2c2c2c2c 	stccs	12, cr2, [ip], #-176
 3a8:	2c2f2f2c 	stccs	15, cr2, [pc], #-176
 3ac:	02042c2c 	andeq	r2, r4, #11264	; 0x2c00
 3b0:	2b7bad03 	blcs	1eeb7c4 <__code_start-0xae11483c>
 3b4:	d8030104 	stmleda	r3, {r2, r8}
 3b8:	042c2b04 	streqt	r2, [ip], #-2820
 3bc:	7ba70302 	blvc	fe9c0fcc <__bss_end+0x4e9b538c>
 3c0:	0301042b 	tsteq	r1, #721420288	; 0x2b000000
 3c4:	2e2b04e0 	cdpcs	4, 2, cr0, cr11, cr0, {7}
 3c8:	2e2c2c2c 	cdpcs	12, 2, cr2, cr12, cr12, {1}
 3cc:	2c2c2c2c 	stccs	12, cr2, [ip], #-176
 3d0:	2d2c2c30 	stccs	12, cr2, [ip, #-192]!
 3d4:	2c2c2f2e 	stccs	15, cr2, [ip], #-184
 3d8:	2c2c2c2c 	stccs	12, cr2, [ip], #-176
 3dc:	2c2c2c2c 	stccs	12, cr2, [ip], #-176
 3e0:	2c2c2e2e 	stccs	14, cr2, [ip], #-184
 3e4:	2e2c2c2c 	cdpcs	12, 2, cr2, cr12, cr12, {1}
 3e8:	2c2c2c2c 	stccs	12, cr2, [ip], #-176
 3ec:	2c2c2e2c 	stccs	14, cr2, [ip], #-176
 3f0:	2e2c2c2c 	cdpcs	12, 2, cr2, cr12, cr12, {1}
 3f4:	2c2c2c2c 	stccs	12, cr2, [ip], #-176
 3f8:	2c2c2c2c 	stccs	12, cr2, [ip], #-176
 3fc:	2c2c2c2c 	stccs	12, cr2, [ip], #-176
 400:	2c2c2c2c 	stccs	12, cr2, [ip], #-176
 404:	2c2c2c2c 	stccs	12, cr2, [ip], #-176
 408:	2c2c2c2c 	stccs	12, cr2, [ip], #-176
 40c:	2c2c2d2c 	stccs	13, cr2, [ip], #-176
 410:	2c2c2c2c 	stccs	12, cr2, [ip], #-176
 414:	2f2c2c2c 	swics	0x002c2c2c
 418:	2c2c2c2c 	stccs	12, cr2, [ip], #-176
 41c:	2c2c2e2c 	stccs	14, cr2, [ip], #-176
 420:	2c2e2c2e 	stccs	12, cr2, [lr], #-184
 424:	2c2c2c2c 	stccs	12, cr2, [ip], #-176
 428:	02042c2e 	andeq	r2, r4, #11776	; 0x2e00
 42c:	2b7a9903 	blcs	1ea6840 <__code_start-0xae1597c0>
 430:	ec030104 	stfs	f0, [r3], {4}
 434:	2c2c2b05 	stccs	11, cr2, [ip], #-20
 438:	2c2c2c2c 	stccs	12, cr2, [ip], #-176
 43c:	0302042c 	tsteq	r2, #738197504	; 0x2c000000
 440:	042b7a8d 	streqt	r7, [fp], #-2701
 444:	05f60301 	ldreqb	r0, [r6, #769]!
 448:	2c2c2c2b 	stccs	12, cr2, [ip], #-172
 44c:	302c302c 	eorcc	r3, ip, ip, lsr #32
 450:	2c2c2c2c 	stccs	12, cr2, [ip], #-176
 454:	2c2c2c2c 	stccs	12, cr2, [ip], #-176
 458:	2c2c2c2c 	stccs	12, cr2, [ip], #-176
 45c:	2c2c2c2c 	stccs	12, cr2, [ip], #-176
 460:	2f2c2c2c 	swics	0x002c2c2c
 464:	2c2c2c2c 	stccs	12, cr2, [ip], #-176
 468:	2c2c2c2c 	stccs	12, cr2, [ip], #-176
 46c:	2c2c2c2c 	stccs	12, cr2, [ip], #-176
 470:	2c2c2c2d 	stccs	12, cr2, [ip], #-180
 474:	0002022c 	andeq	r0, r2, ip, lsr #4
 478:	00160101 	andeqs	r0, r6, r1, lsl #2
 47c:	00020000 	andeq	r0, r2, r0
 480:	00000010 	andeq	r0, r0, r0, lsl r0
 484:	0efb0102 	cdpeq	1, 15, cr0, cr11, cr2, {0}
 488:	0101000a 	tsteq	r1, sl
 48c:	00000101 	andeq	r0, r0, r1, lsl #2
 490:	00000100 	andeq	r0, r0, r0, lsl #2
 494:	000000c1 	andeq	r0, r0, r1, asr #1
 498:	008c0002 	addeq	r0, ip, r2
 49c:	01020000 	tsteq	r2, r0
 4a0:	000a0efb 	streqd	r0, [sl], -fp
 4a4:	01010101 	tsteq	r1, r1, lsl #2
 4a8:	01000000 	tsteq	r0, r0
 4ac:	726f772f 	rsbvc	r7, pc, #12320768	; 0xbc0000
 4b0:	6f742f6b 	swivs	0x00742f6b
 4b4:	2f736c6f 	swics	0x00736c6f
 4b8:	61657263 	cmnvs	r5, r3, ror #4
 4bc:	635f6574 	cmpvs	pc, #486539264	; 0x1d000000
 4c0:	73736f72 	cmnvc	r3, #456	; 0x1c8
 4c4:	6c6f6f74 	stcvsl	15, cr6, [pc], #-464
 4c8:	72632f73 	rsbvc	r2, r3, #460	; 0x1cc
 4cc:	7473736f 	ldrvcbt	r7, [r3], #-879
 4d0:	2d6c6f6f 	stccsl	15, cr6, [ip, #-444]!
 4d4:	33342e30 	teqcc	r4, #768	; 0x300
 4d8:	6975622f 	ldmvsdb	r5!, {r0, r1, r2, r3, r5, r9, sp, lr}^
 4dc:	612f646c 	teqvs	pc, ip, ror #8
 4e0:	6c2d6d72 	stcvs	13, cr6, [sp], #-456
 4e4:	78756e69 	ldmvcda	r5!, {r0, r3, r5, r6, r9, sl, fp, sp, lr}^
 4e8:	6363672f 	cmnvs	r3, #12320768	; 0xbc0000
 4ec:	342e332d 	strcct	r3, [lr], #-813
 4f0:	672d352e 	strvs	r3, [sp, -lr, lsr #10]!
 4f4:	6362696c 	cmnvs	r2, #1769472	; 0x1b0000
 4f8:	332e322d 	teqcc	lr, #-805306366	; 0xd0000002
 4fc:	672f362e 	strvs	r3, [pc, -lr, lsr #12]!
 500:	332d6363 	teqcc	sp, #-1946157055	; 0x8c000001
 504:	352e342e 	strcc	r3, [lr, #-1070]!
 508:	6363672f 	cmnvs	r3, #12320768	; 0xbc0000
 50c:	6e6f632f 	cdpvs	3, 6, cr6, cr15, cr15, {1}
 510:	2f676966 	swics	0x00676966
 514:	006d7261 	rsbeq	r7, sp, r1, ror #4
 518:	65656900 	strvsb	r6, [r5, #-2304]!
 51c:	34353765 	ldrcct	r3, [r5], #-1893
 520:	2e66642d 	cdpcs	4, 6, cr6, cr6, cr13, {1}
 524:	00010053 	andeq	r0, r1, r3, asr r0
 528:	05000000 	streq	r0, [r0]
 52c:	00721802 	rsbeqs	r1, r2, r2, lsl #16
 530:	089603b0 	ldmeqia	r6, {r4, r5, r7, r8, r9}
 534:	2e2d2c01 	cdpcs	12, 2, cr2, cr13, cr1, {0}
 538:	2c2c2c2c 	stccs	12, cr2, [ip], #-176
 53c:	2c2c2c2c 	stccs	12, cr2, [ip], #-176
 540:	2c2d2c2c 	stccs	12, cr2, [sp], #-176
 544:	2c2c2c2c 	stccs	12, cr2, [ip], #-176
 548:	2d2c2c2c 	stccs	12, cr2, [ip, #-176]!
 54c:	2c2c2d2c 	stccs	13, cr2, [ip], #-176
 550:	2c2d2c2c 	stccs	12, cr2, [sp], #-176
 554:	01000202 	tsteq	r0, r2, lsl #4
 558:	00001601 	andeq	r1, r0, r1, lsl #12
 55c:	10000200 	andne	r0, r0, r0, lsl #4
 560:	02000000 	andeq	r0, r0, #0	; 0x0
 564:	0a0efb01 	beq	3bf170 <__code_start-0xafc40e90>
 568:	01010100 	tsteq	r1, r0, lsl #2
 56c:	00000001 	andeq	r0, r0, r1
 570:	2a000001 	bcs	57c <__code_start-0xaffffa84>
 574:	02000001 	andeq	r0, r0, #1	; 0x1
 578:	00008c00 	andeq	r8, r0, r0, lsl #24
 57c:	fb010200 	blx	40d86 <__code_start-0xaffbf27a>
 580:	01000a0e 	tsteq	r0, lr, lsl #20
 584:	00010101 	andeq	r0, r1, r1, lsl #2
 588:	2f010000 	swics	0x00010000
 58c:	6b726f77 	blvs	1c9c370 <__code_start-0xae363c90>
 590:	6f6f742f 	swivs	0x006f742f
 594:	632f736c 	teqvs	pc, #-1342177279	; 0xb0000001
 598:	74616572 	strvcbt	r6, [r1], #-1394
 59c:	72635f65 	rsbvc	r5, r3, #404	; 0x194
 5a0:	7473736f 	ldrvcbt	r7, [r3], #-879
 5a4:	736c6f6f 	cmnvc	ip, #444	; 0x1bc
 5a8:	6f72632f 	swivs	0x0072632f
 5ac:	6f747373 	swivs	0x00747373
 5b0:	302d6c6f 	eorcc	r6, sp, pc, ror #24
 5b4:	2f33342e 	swics	0x0033342e
 5b8:	6c697562 	cfstr64vs	mvdx7, [r9], #-392
 5bc:	72612f64 	rsbvc	r2, r1, #400	; 0x190
 5c0:	696c2d6d 	stmvsdb	ip!, {r0, r2, r3, r5, r6, r8, sl, fp, sp}^
 5c4:	2f78756e 	swics	0x0078756e
 5c8:	2d636367 	stccsl	3, cr6, [r3, #-412]!
 5cc:	2e342e33 	mrccs	14, 1, r2, cr4, cr3, {1}
 5d0:	6c672d35 	stcvsl	13, cr2, [r7], #-212
 5d4:	2d636269 	sfmcs	f6, 2, [r3, #-420]!
 5d8:	2e332e32 	mrccs	14, 1, r2, cr3, cr2, {1}
 5dc:	63672f36 	cmnvs	r7, #216	; 0xd8
 5e0:	2e332d63 	cdpcs	13, 3, cr2, cr3, cr3, {3}
 5e4:	2f352e34 	swics	0x00352e34
 5e8:	2f636367 	swics	0x00636367
 5ec:	666e6f63 	strvsbt	r6, [lr], -r3, ror #30
 5f0:	612f6769 	teqvs	pc, r9, ror #14
 5f4:	00006d72 	andeq	r6, r0, r2, ror sp
 5f8:	65656569 	strvsb	r6, [r5, #-1385]!
 5fc:	2d343537 	cfldr32cs	mvfx3, [r4, #-220]!
 600:	532e6673 	teqpl	lr, #120586240	; 0x7300000
 604:	00000100 	andeq	r0, r0, r0, lsl #2
 608:	02050000 	andeq	r0, r5, #0	; 0x0
 60c:	b0007298 	mullt	r0, r8, r2
 610:	33013503 	tstcc	r1, #12582912	; 0xc00000
 614:	2c2f2c2c 	stccs	12, cr2, [pc], #-176
 618:	2c2e2c2c 	stccs	12, cr2, [lr], #-176
 61c:	2c2c2e2c 	stccs	14, cr2, [ip], #-176
 620:	2c2c2c2f 	stccs	12, cr2, [ip], #-188
 624:	2c302c2c 	ldccs	12, cr2, [r0], #-176
 628:	2c2c2c2e 	stccs	12, cr2, [ip], #-184
 62c:	2c2c2c2c 	stccs	12, cr2, [ip], #-176
 630:	2c312c2f 	ldccs	12, cr2, [r1], #-188
 634:	2e2c2c2c 	cdpcs	12, 2, cr2, cr12, cr12, {1}
 638:	2f2d2c2c 	swics	0x002d2c2c
 63c:	2f2c2c2c 	swics	0x002c2c2c
 640:	2c2c2c2c 	stccs	12, cr2, [ip], #-176
 644:	2c2c2e2c 	stccs	14, cr2, [ip], #-176
 648:	312c2c2d 	teqcc	ip, sp, lsr #24
 64c:	2c2f2c2c 	stccs	12, cr2, [pc], #-176
 650:	2c2f2c2e 	stccs	12, cr2, [pc], #-184
 654:	2c332c2c 	ldccs	12, cr2, [r3], #-176
 658:	2c2c2c2c 	stccs	12, cr2, [ip], #-176
 65c:	2c2c2c2c 	stccs	12, cr2, [ip], #-176
 660:	2c2c2c2c 	stccs	12, cr2, [ip], #-176
 664:	032c2c2c 	teqeq	ip, #11264	; 0x2c00
 668:	2c2c2b0d 	stccs	11, cr2, [ip], #-52
 66c:	2c2c302c 	stccs	0, cr3, [ip], #-176
 670:	2f2c2c2c 	swics	0x002c2c2c
 674:	2c2c2c2c 	stccs	12, cr2, [ip], #-176
 678:	2c2c2f2c 	stccs	15, cr2, [ip], #-176
 67c:	2c2b0903 	stccs	9, cr0, [fp], #-12
 680:	2c2c2c2c 	stccs	12, cr2, [ip], #-176
 684:	312c2c2c 	teqcc	ip, ip, lsr #24
 688:	2d2c2e2c 	stccs	14, cr2, [ip, #-176]!
 68c:	2c2c2d2c 	stccs	13, cr2, [ip], #-176
 690:	2c2c2e2c 	stccs	14, cr2, [ip], #-176
 694:	2c2c2c2c 	stccs	12, cr2, [ip], #-176
 698:	2c2c2c2c 	stccs	12, cr2, [ip], #-176
 69c:	01000202 	tsteq	r0, r2, lsl #4
 6a0:	00001601 	andeq	r1, r0, r1, lsl #12
 6a4:	10000200 	andne	r0, r0, r0, lsl #4
 6a8:	02000000 	andeq	r0, r0, #0	; 0x0
 6ac:	0a0efb01 	beq	3bf2b8 <__code_start-0xafc40d48>
 6b0:	01010100 	tsteq	r1, r0, lsl #2
 6b4:	00000001 	andeq	r0, r0, r1
 6b8:	7a000001 	bvc	6c4 <__code_start-0xaffff93c>
 6bc:	02000001 	andeq	r0, r0, #1	; 0x1
 6c0:	00008c00 	andeq	r8, r0, r0, lsl #24
 6c4:	fb010200 	blx	40ece <__code_start-0xaffbf132>
 6c8:	01000a0e 	tsteq	r0, lr, lsl #20
 6cc:	00010101 	andeq	r0, r1, r1, lsl #2
 6d0:	2f010000 	swics	0x00010000
 6d4:	6b726f77 	blvs	1c9c4b8 <__code_start-0xae363b48>
 6d8:	6f6f742f 	swivs	0x006f742f
 6dc:	632f736c 	teqvs	pc, #-1342177279	; 0xb0000001
 6e0:	74616572 	strvcbt	r6, [r1], #-1394
 6e4:	72635f65 	rsbvc	r5, r3, #404	; 0x194
 6e8:	7473736f 	ldrvcbt	r7, [r3], #-879
 6ec:	736c6f6f 	cmnvc	ip, #444	; 0x1bc
 6f0:	6f72632f 	swivs	0x0072632f
 6f4:	6f747373 	swivs	0x00747373
 6f8:	302d6c6f 	eorcc	r6, sp, pc, ror #24
 6fc:	2f33342e 	swics	0x0033342e
 700:	6c697562 	cfstr64vs	mvdx7, [r9], #-392
 704:	72612f64 	rsbvc	r2, r1, #400	; 0x190
 708:	696c2d6d 	stmvsdb	ip!, {r0, r2, r3, r5, r6, r8, sl, fp, sp}^
 70c:	2f78756e 	swics	0x0078756e
 710:	2d636367 	stccsl	3, cr6, [r3, #-412]!
 714:	2e342e33 	mrccs	14, 1, r2, cr4, cr3, {1}
 718:	6c672d35 	stcvsl	13, cr2, [r7], #-212
 71c:	2d636269 	sfmcs	f6, 2, [r3, #-420]!
 720:	2e332e32 	mrccs	14, 1, r2, cr3, cr2, {1}
 724:	63672f36 	cmnvs	r7, #216	; 0xd8
 728:	2e332d63 	cdpcs	13, 3, cr2, cr3, cr3, {3}
 72c:	2f352e34 	swics	0x00352e34
 730:	2f636367 	swics	0x00636367
 734:	666e6f63 	strvsbt	r6, [lr], -r3, ror #30
 738:	612f6769 	teqvs	pc, r9, ror #14
 73c:	00006d72 	andeq	r6, r0, r2, ror sp
 740:	65656569 	strvsb	r6, [r5, #-1385]!
 744:	2d343537 	cfldr32cs	mvfx3, [r4, #-220]!
 748:	532e6673 	teqpl	lr, #120586240	; 0x7300000
 74c:	00000100 	andeq	r0, r0, r0, lsl #2
 750:	02050000 	andeq	r0, r5, #0	; 0x0
 754:	b00074b0 	strlth	r7, [r0], -r0
 758:	0102ae03 	tsteq	r2, r3, lsl #28
 75c:	2c2e2c2c 	stccs	12, cr2, [lr], #-176
 760:	2c2c2e2c 	stccs	14, cr2, [ip], #-176
 764:	2d2c2c30 	stccs	12, cr2, [ip, #-192]!
 768:	2c2e2c2e 	stccs	12, cr2, [lr], #-184
 76c:	2c312c2c 	ldccs	12, cr2, [r1], #-176
 770:	2c2c2c2c 	stccs	12, cr2, [ip], #-176
 774:	2c2c2c2c 	stccs	12, cr2, [ip], #-176
 778:	09032c2c 	stmeqdb	r3, {r2, r3, r5, sl, fp, sp}
 77c:	2c2f2c2b 	stccs	12, cr2, [pc], #-172
 780:	2c2e2c2c 	stccs	12, cr2, [lr], #-176
 784:	2c2e2c2f 	stccs	12, cr2, [lr], #-188
 788:	2e2c2f2c 	cdpcs	15, 2, cr2, cr12, cr12, {1}
 78c:	2c2c2e2c 	stccs	14, cr2, [ip], #-176
 790:	2f2c2c2f 	swics	0x002c2c2f
 794:	2c2c2e2c 	stccs	14, cr2, [ip], #-176
 798:	2c2c2c2e 	stccs	12, cr2, [ip], #-184
 79c:	2c2c2c2c 	stccs	12, cr2, [ip], #-176
 7a0:	2c2c2c30 	stccs	12, cr2, [ip], #-192
 7a4:	2c2c2c2c 	stccs	12, cr2, [ip], #-176
 7a8:	2c2c2c30 	stccs	12, cr2, [ip], #-192
 7ac:	2c2c2c2c 	stccs	12, cr2, [ip], #-176
 7b0:	2c2c2c2c 	stccs	12, cr2, [ip], #-176
 7b4:	2f2c2c2c 	swics	0x002c2c2c
 7b8:	2c2c2c2c 	stccs	12, cr2, [ip], #-176
 7bc:	2c2c2c2c 	stccs	12, cr2, [ip], #-176
 7c0:	2c2c2c2c 	stccs	12, cr2, [ip], #-176
 7c4:	2c2c2f2f 	stccs	15, cr2, [ip], #-188
 7c8:	2c2c2f2c 	stccs	15, cr2, [ip], #-176
 7cc:	2e2c2c32 	mcrcs	12, 1, r2, cr12, cr2, {1}
 7d0:	2c2c2c2c 	stccs	12, cr2, [ip], #-176
 7d4:	2d2c2c30 	stccs	12, cr2, [ip, #-192]!
 7d8:	2c2c2f2e 	stccs	15, cr2, [ip], #-184
 7dc:	2e2c2c2c 	cdpcs	12, 2, cr2, cr12, cr12, {1}
 7e0:	2e2c2c2e 	cdpcs	12, 2, cr2, cr12, cr14, {1}
 7e4:	2c2c2c2c 	stccs	12, cr2, [ip], #-176
 7e8:	2c2c2c2e 	stccs	12, cr2, [ip], #-184
 7ec:	2c2c2c2c 	stccs	12, cr2, [ip], #-176
 7f0:	2c2c2c2c 	stccs	12, cr2, [ip], #-176
 7f4:	2c2c2c2c 	stccs	12, cr2, [ip], #-176
 7f8:	2c2e2c2e 	stccs	12, cr2, [lr], #-184
 7fc:	2c2c2e2c 	stccs	14, cr2, [ip], #-176
 800:	2c2c2c2f 	stccs	12, cr2, [ip], #-188
 804:	2c2c2c2c 	stccs	12, cr2, [ip], #-176
 808:	2c2c2c2c 	stccs	12, cr2, [ip], #-176
 80c:	2c2c302c 	stccs	0, cr3, [ip], #-176
 810:	2c302c2c 	ldccs	12, cr2, [r0], #-176
 814:	2c2c2c2c 	stccs	12, cr2, [ip], #-176
 818:	2c2c2c2c 	stccs	12, cr2, [ip], #-176
 81c:	2c2c2c2c 	stccs	12, cr2, [ip], #-176
 820:	2c2c2f2c 	stccs	15, cr2, [ip], #-176
 824:	2c2c2c2c 	stccs	12, cr2, [ip], #-176
 828:	2c2c2c2c 	stccs	12, cr2, [ip], #-176
 82c:	2d2c2c2c 	stccs	12, cr2, [ip, #-176]!
 830:	2c2c2c2c 	stccs	12, cr2, [ip], #-176
 834:	01000202 	tsteq	r0, r2, lsl #4
 838:	00001601 	andeq	r1, r0, r1, lsl #12
 83c:	10000200 	andne	r0, r0, r0, lsl #4
 840:	02000000 	andeq	r0, r0, #0	; 0x0
 844:	0a0efb01 	beq	3bf450 <__code_start-0xafc40bb0>
 848:	01010100 	tsteq	r1, r0, lsl #2
 84c:	00000001 	andeq	r0, r0, r1
 850:	bb000001 	bllt	85c <__code_start-0xaffff7a4>
 854:	02000000 	andeq	r0, r0, #0	; 0x0
 858:	00008c00 	andeq	r8, r0, r0, lsl #24
 85c:	fb010200 	blx	41066 <__code_start-0xaffbef9a>
 860:	01000a0e 	tsteq	r0, lr, lsl #20
 864:	00010101 	andeq	r0, r1, r1, lsl #2
 868:	2f010000 	swics	0x00010000
 86c:	6b726f77 	blvs	1c9c650 <__code_start-0xae3639b0>
 870:	6f6f742f 	swivs	0x006f742f
 874:	632f736c 	teqvs	pc, #-1342177279	; 0xb0000001
 878:	74616572 	strvcbt	r6, [r1], #-1394
 87c:	72635f65 	rsbvc	r5, r3, #404	; 0x194
 880:	7473736f 	ldrvcbt	r7, [r3], #-879
 884:	736c6f6f 	cmnvc	ip, #444	; 0x1bc
 888:	6f72632f 	swivs	0x0072632f
 88c:	6f747373 	swivs	0x00747373
 890:	302d6c6f 	eorcc	r6, sp, pc, ror #24
 894:	2f33342e 	swics	0x0033342e
 898:	6c697562 	cfstr64vs	mvdx7, [r9], #-392
 89c:	72612f64 	rsbvc	r2, r1, #400	; 0x190
 8a0:	696c2d6d 	stmvsdb	ip!, {r0, r2, r3, r5, r6, r8, sl, fp, sp}^
 8a4:	2f78756e 	swics	0x0078756e
 8a8:	2d636367 	stccsl	3, cr6, [r3, #-412]!
 8ac:	2e342e33 	mrccs	14, 1, r2, cr4, cr3, {1}
 8b0:	6c672d35 	stcvsl	13, cr2, [r7], #-212
 8b4:	2d636269 	sfmcs	f6, 2, [r3, #-420]!
 8b8:	2e332e32 	mrccs	14, 1, r2, cr3, cr2, {1}
 8bc:	63672f36 	cmnvs	r7, #216	; 0xd8
 8c0:	2e332d63 	cdpcs	13, 3, cr2, cr3, cr3, {3}
 8c4:	2f352e34 	swics	0x00352e34
 8c8:	2f636367 	swics	0x00636367
 8cc:	666e6f63 	strvsbt	r6, [lr], -r3, ror #30
 8d0:	612f6769 	teqvs	pc, r9, ror #14
 8d4:	00006d72 	andeq	r6, r0, r2, ror sp
 8d8:	65656569 	strvsb	r6, [r5, #-1385]!
 8dc:	2d343537 	cfldr32cs	mvfx3, [r4, #-220]!
 8e0:	532e6673 	teqpl	lr, #120586240	; 0x7300000
 8e4:	00000100 	andeq	r0, r0, r0, lsl #2
 8e8:	02050000 	andeq	r0, r5, #0	; 0x0
 8ec:	b000780c 	andlt	r7, r0, ip, lsl #16
 8f0:	0105e703 	tsteq	r5, r3, lsl #14
 8f4:	2c2e2d2c 	stccs	13, cr2, [lr], #-176
 8f8:	2c2c2c2c 	stccs	12, cr2, [ip], #-176
 8fc:	2c2c2c2d 	stccs	12, cr2, [ip], #-180
 900:	2c2c2c2c 	stccs	12, cr2, [ip], #-176
 904:	2c2c2c2d 	stccs	12, cr2, [ip], #-180
 908:	2d2c2c2c 	stccs	12, cr2, [ip, #-176]!
 90c:	0002022c 	andeq	r0, r2, ip, lsr #4
 910:	00160101 	andeqs	r0, r6, r1, lsl #2
 914:	00020000 	andeq	r0, r2, r0
 918:	00000010 	andeq	r0, r0, r0, lsl r0
 91c:	0efb0102 	cdpeq	1, 15, cr0, cr11, cr2, {0}
 920:	0101000a 	tsteq	r1, sl
 924:	00000101 	andeq	r0, r0, r1, lsl #2
 928:	00000100 	andeq	r0, r0, r0, lsl #2
